
/home/xhyvm2/gitwork/labs/COMPSYS/software/picotest/build/pico-riscv32.elf:     file format elf32-littleriscv


Disassembly of section .text:

80000000 <_start>:
80000000:	00000413          	li	s0,0
80000004:	00013117          	auipc	sp,0x13
80000008:	ffc10113          	add	sp,sp,-4 # 80013000 <_end>
8000000c:	3350a0ef          	jal	8000ab40 <call_main>

80000010 <sll>:
80000010:	00100f93          	li	t6,1
80000014:	00000113          	li	sp,0
80000018:	002f91b3          	sll	gp,t6,sp
8000001c:	00100e93          	li	t4,1
80000020:	00200e13          	li	t3,2
80000024:	55d19c63          	bne	gp,t4,8000057c <fail>

80000028 <test_3>:
80000028:	00100f93          	li	t6,1
8000002c:	00100113          	li	sp,1
80000030:	002f91b3          	sll	gp,t6,sp
80000034:	00200e93          	li	t4,2
80000038:	00300e13          	li	t3,3
8000003c:	55d19063          	bne	gp,t4,8000057c <fail>

80000040 <test_4>:
80000040:	00100f93          	li	t6,1
80000044:	00700113          	li	sp,7
80000048:	002f91b3          	sll	gp,t6,sp
8000004c:	08000e93          	li	t4,128
80000050:	00400e13          	li	t3,4
80000054:	53d19463          	bne	gp,t4,8000057c <fail>

80000058 <test_5>:
80000058:	00100f93          	li	t6,1
8000005c:	00e00113          	li	sp,14
80000060:	002f91b3          	sll	gp,t6,sp
80000064:	00004eb7          	lui	t4,0x4
80000068:	00500e13          	li	t3,5
8000006c:	51d19863          	bne	gp,t4,8000057c <fail>

80000070 <test_6>:
80000070:	00100f93          	li	t6,1
80000074:	01f00113          	li	sp,31
80000078:	002f91b3          	sll	gp,t6,sp
8000007c:	80000eb7          	lui	t4,0x80000
80000080:	00600e13          	li	t3,6
80000084:	4fd19c63          	bne	gp,t4,8000057c <fail>

80000088 <test_7>:
80000088:	fff00f93          	li	t6,-1
8000008c:	00000113          	li	sp,0
80000090:	002f91b3          	sll	gp,t6,sp
80000094:	fff00e93          	li	t4,-1
80000098:	00700e13          	li	t3,7
8000009c:	4fd19063          	bne	gp,t4,8000057c <fail>

800000a0 <test_8>:
800000a0:	fff00f93          	li	t6,-1
800000a4:	00100113          	li	sp,1
800000a8:	002f91b3          	sll	gp,t6,sp
800000ac:	ffe00e93          	li	t4,-2
800000b0:	00800e13          	li	t3,8
800000b4:	4dd19463          	bne	gp,t4,8000057c <fail>

800000b8 <test_9>:
800000b8:	fff00f93          	li	t6,-1
800000bc:	00700113          	li	sp,7
800000c0:	002f91b3          	sll	gp,t6,sp
800000c4:	f8000e93          	li	t4,-128
800000c8:	00900e13          	li	t3,9
800000cc:	4bd19863          	bne	gp,t4,8000057c <fail>

800000d0 <test_10>:
800000d0:	fff00f93          	li	t6,-1
800000d4:	00e00113          	li	sp,14
800000d8:	002f91b3          	sll	gp,t6,sp
800000dc:	ffffceb7          	lui	t4,0xffffc
800000e0:	00a00e13          	li	t3,10
800000e4:	49d19c63          	bne	gp,t4,8000057c <fail>

800000e8 <test_11>:
800000e8:	fff00f93          	li	t6,-1
800000ec:	01f00113          	li	sp,31
800000f0:	002f91b3          	sll	gp,t6,sp
800000f4:	80000eb7          	lui	t4,0x80000
800000f8:	00b00e13          	li	t3,11
800000fc:	49d19063          	bne	gp,t4,8000057c <fail>

80000100 <test_12>:
80000100:	21212fb7          	lui	t6,0x21212
80000104:	121f8f93          	add	t6,t6,289 # 21212121 <_entry_offset+0x21212121>
80000108:	00000113          	li	sp,0
8000010c:	002f91b3          	sll	gp,t6,sp
80000110:	21212eb7          	lui	t4,0x21212
80000114:	121e8e93          	add	t4,t4,289 # 21212121 <_entry_offset+0x21212121>
80000118:	00c00e13          	li	t3,12
8000011c:	47d19063          	bne	gp,t4,8000057c <fail>

80000120 <test_13>:
80000120:	21212fb7          	lui	t6,0x21212
80000124:	121f8f93          	add	t6,t6,289 # 21212121 <_entry_offset+0x21212121>
80000128:	00100113          	li	sp,1
8000012c:	002f91b3          	sll	gp,t6,sp
80000130:	42424eb7          	lui	t4,0x42424
80000134:	242e8e93          	add	t4,t4,578 # 42424242 <_entry_offset+0x42424242>
80000138:	00d00e13          	li	t3,13
8000013c:	45d19063          	bne	gp,t4,8000057c <fail>

80000140 <test_14>:
80000140:	21212fb7          	lui	t6,0x21212
80000144:	121f8f93          	add	t6,t6,289 # 21212121 <_entry_offset+0x21212121>
80000148:	00700113          	li	sp,7
8000014c:	002f91b3          	sll	gp,t6,sp
80000150:	90909eb7          	lui	t4,0x90909
80000154:	080e8e93          	add	t4,t4,128 # 90909080 <_end+0x108f6080>
80000158:	00e00e13          	li	t3,14
8000015c:	43d19063          	bne	gp,t4,8000057c <fail>

80000160 <test_15>:
80000160:	21212fb7          	lui	t6,0x21212
80000164:	121f8f93          	add	t6,t6,289 # 21212121 <_entry_offset+0x21212121>
80000168:	00e00113          	li	sp,14
8000016c:	002f91b3          	sll	gp,t6,sp
80000170:	48484eb7          	lui	t4,0x48484
80000174:	00f00e13          	li	t3,15
80000178:	41d19263          	bne	gp,t4,8000057c <fail>

8000017c <test_16>:
8000017c:	21212fb7          	lui	t6,0x21212
80000180:	121f8f93          	add	t6,t6,289 # 21212121 <_entry_offset+0x21212121>
80000184:	01f00113          	li	sp,31
80000188:	002f91b3          	sll	gp,t6,sp
8000018c:	80000eb7          	lui	t4,0x80000
80000190:	01000e13          	li	t3,16
80000194:	3fd19463          	bne	gp,t4,8000057c <fail>

80000198 <test_17>:
80000198:	21212fb7          	lui	t6,0x21212
8000019c:	121f8f93          	add	t6,t6,289 # 21212121 <_entry_offset+0x21212121>
800001a0:	fe000113          	li	sp,-32
800001a4:	002f91b3          	sll	gp,t6,sp
800001a8:	21212eb7          	lui	t4,0x21212
800001ac:	121e8e93          	add	t4,t4,289 # 21212121 <_entry_offset+0x21212121>
800001b0:	01100e13          	li	t3,17
800001b4:	3dd19463          	bne	gp,t4,8000057c <fail>

800001b8 <test_18>:
800001b8:	21212fb7          	lui	t6,0x21212
800001bc:	121f8f93          	add	t6,t6,289 # 21212121 <_entry_offset+0x21212121>
800001c0:	fe100113          	li	sp,-31
800001c4:	002f91b3          	sll	gp,t6,sp
800001c8:	42424eb7          	lui	t4,0x42424
800001cc:	242e8e93          	add	t4,t4,578 # 42424242 <_entry_offset+0x42424242>
800001d0:	01200e13          	li	t3,18
800001d4:	3bd19463          	bne	gp,t4,8000057c <fail>

800001d8 <test_19>:
800001d8:	21212fb7          	lui	t6,0x21212
800001dc:	121f8f93          	add	t6,t6,289 # 21212121 <_entry_offset+0x21212121>
800001e0:	fe700113          	li	sp,-25
800001e4:	002f91b3          	sll	gp,t6,sp
800001e8:	90909eb7          	lui	t4,0x90909
800001ec:	080e8e93          	add	t4,t4,128 # 90909080 <_end+0x108f6080>
800001f0:	01300e13          	li	t3,19
800001f4:	39d19463          	bne	gp,t4,8000057c <fail>

800001f8 <test_20>:
800001f8:	21212fb7          	lui	t6,0x21212
800001fc:	121f8f93          	add	t6,t6,289 # 21212121 <_entry_offset+0x21212121>
80000200:	fee00113          	li	sp,-18
80000204:	002f91b3          	sll	gp,t6,sp
80000208:	48484eb7          	lui	t4,0x48484
8000020c:	01400e13          	li	t3,20
80000210:	37d19663          	bne	gp,t4,8000057c <fail>

80000214 <test_21>:
80000214:	21212fb7          	lui	t6,0x21212
80000218:	120f8f93          	add	t6,t6,288 # 21212120 <_entry_offset+0x21212120>
8000021c:	fff00113          	li	sp,-1
80000220:	002f91b3          	sll	gp,t6,sp
80000224:	00000e93          	li	t4,0
80000228:	01500e13          	li	t3,21
8000022c:	35d19863          	bne	gp,t4,8000057c <fail>

80000230 <test_22>:
80000230:	00100f93          	li	t6,1
80000234:	00700113          	li	sp,7
80000238:	002f9fb3          	sll	t6,t6,sp
8000023c:	08000e93          	li	t4,128
80000240:	01600e13          	li	t3,22
80000244:	33df9c63          	bne	t6,t4,8000057c <fail>

80000248 <test_23>:
80000248:	00100f93          	li	t6,1
8000024c:	00e00113          	li	sp,14
80000250:	002f9133          	sll	sp,t6,sp
80000254:	00004eb7          	lui	t4,0x4
80000258:	01700e13          	li	t3,23
8000025c:	33d11063          	bne	sp,t4,8000057c <fail>

80000260 <test_24>:
80000260:	00300f93          	li	t6,3
80000264:	01ff9fb3          	sll	t6,t6,t6
80000268:	01800e93          	li	t4,24
8000026c:	01800e13          	li	t3,24
80000270:	31df9663          	bne	t6,t4,8000057c <fail>

80000274 <test_25>:
80000274:	00000213          	li	tp,0
80000278:	00100f93          	li	t6,1
8000027c:	00700113          	li	sp,7
80000280:	002f91b3          	sll	gp,t6,sp
80000284:	00018313          	mv	t1,gp
80000288:	00120213          	add	tp,tp,1 # 1 <_entry_offset+0x1>
8000028c:	00200293          	li	t0,2
80000290:	fe5214e3          	bne	tp,t0,80000278 <test_25+0x4>
80000294:	08000e93          	li	t4,128
80000298:	01900e13          	li	t3,25
8000029c:	2fd31063          	bne	t1,t4,8000057c <fail>

800002a0 <test_26>:
800002a0:	00000213          	li	tp,0
800002a4:	00100f93          	li	t6,1
800002a8:	00e00113          	li	sp,14
800002ac:	002f91b3          	sll	gp,t6,sp
800002b0:	00000013          	nop
800002b4:	00018313          	mv	t1,gp
800002b8:	00120213          	add	tp,tp,1 # 1 <_entry_offset+0x1>
800002bc:	00200293          	li	t0,2
800002c0:	fe5212e3          	bne	tp,t0,800002a4 <test_26+0x4>
800002c4:	00004eb7          	lui	t4,0x4
800002c8:	01a00e13          	li	t3,26
800002cc:	2bd31863          	bne	t1,t4,8000057c <fail>

800002d0 <test_27>:
800002d0:	00000213          	li	tp,0
800002d4:	00100f93          	li	t6,1
800002d8:	01f00113          	li	sp,31
800002dc:	002f91b3          	sll	gp,t6,sp
800002e0:	00000013          	nop
800002e4:	00000013          	nop
800002e8:	00018313          	mv	t1,gp
800002ec:	00120213          	add	tp,tp,1 # 1 <_entry_offset+0x1>
800002f0:	00200293          	li	t0,2
800002f4:	fe5210e3          	bne	tp,t0,800002d4 <test_27+0x4>
800002f8:	80000eb7          	lui	t4,0x80000
800002fc:	01b00e13          	li	t3,27
80000300:	27d31e63          	bne	t1,t4,8000057c <fail>

80000304 <test_28>:
80000304:	00000213          	li	tp,0
80000308:	00100f93          	li	t6,1
8000030c:	00700113          	li	sp,7
80000310:	002f91b3          	sll	gp,t6,sp
80000314:	00120213          	add	tp,tp,1 # 1 <_entry_offset+0x1>
80000318:	00200293          	li	t0,2
8000031c:	fe5216e3          	bne	tp,t0,80000308 <test_28+0x4>
80000320:	08000e93          	li	t4,128
80000324:	01c00e13          	li	t3,28
80000328:	25d19a63          	bne	gp,t4,8000057c <fail>

8000032c <test_29>:
8000032c:	00000213          	li	tp,0
80000330:	00100f93          	li	t6,1
80000334:	00e00113          	li	sp,14
80000338:	00000013          	nop
8000033c:	002f91b3          	sll	gp,t6,sp
80000340:	00120213          	add	tp,tp,1 # 1 <_entry_offset+0x1>
80000344:	00200293          	li	t0,2
80000348:	fe5214e3          	bne	tp,t0,80000330 <test_29+0x4>
8000034c:	00004eb7          	lui	t4,0x4
80000350:	01d00e13          	li	t3,29
80000354:	23d19463          	bne	gp,t4,8000057c <fail>

80000358 <test_30>:
80000358:	00000213          	li	tp,0
8000035c:	00100f93          	li	t6,1
80000360:	01f00113          	li	sp,31
80000364:	00000013          	nop
80000368:	00000013          	nop
8000036c:	002f91b3          	sll	gp,t6,sp
80000370:	00120213          	add	tp,tp,1 # 1 <_entry_offset+0x1>
80000374:	00200293          	li	t0,2
80000378:	fe5212e3          	bne	tp,t0,8000035c <test_30+0x4>
8000037c:	80000eb7          	lui	t4,0x80000
80000380:	01e00e13          	li	t3,30
80000384:	1fd19c63          	bne	gp,t4,8000057c <fail>

80000388 <test_31>:
80000388:	00000213          	li	tp,0
8000038c:	00100f93          	li	t6,1
80000390:	00000013          	nop
80000394:	00700113          	li	sp,7
80000398:	002f91b3          	sll	gp,t6,sp
8000039c:	00120213          	add	tp,tp,1 # 1 <_entry_offset+0x1>
800003a0:	00200293          	li	t0,2
800003a4:	fe5214e3          	bne	tp,t0,8000038c <test_31+0x4>
800003a8:	08000e93          	li	t4,128
800003ac:	01f00e13          	li	t3,31
800003b0:	1dd19663          	bne	gp,t4,8000057c <fail>

800003b4 <test_32>:
800003b4:	00000213          	li	tp,0
800003b8:	00100f93          	li	t6,1
800003bc:	00000013          	nop
800003c0:	00e00113          	li	sp,14
800003c4:	00000013          	nop
800003c8:	002f91b3          	sll	gp,t6,sp
800003cc:	00120213          	add	tp,tp,1 # 1 <_entry_offset+0x1>
800003d0:	00200293          	li	t0,2
800003d4:	fe5212e3          	bne	tp,t0,800003b8 <test_32+0x4>
800003d8:	00004eb7          	lui	t4,0x4
800003dc:	02000e13          	li	t3,32
800003e0:	19d19e63          	bne	gp,t4,8000057c <fail>

800003e4 <test_33>:
800003e4:	00000213          	li	tp,0
800003e8:	00100f93          	li	t6,1
800003ec:	00000013          	nop
800003f0:	00000013          	nop
800003f4:	01f00113          	li	sp,31
800003f8:	002f91b3          	sll	gp,t6,sp
800003fc:	00120213          	add	tp,tp,1 # 1 <_entry_offset+0x1>
80000400:	00200293          	li	t0,2
80000404:	fe5212e3          	bne	tp,t0,800003e8 <test_33+0x4>
80000408:	80000eb7          	lui	t4,0x80000
8000040c:	02100e13          	li	t3,33
80000410:	17d19663          	bne	gp,t4,8000057c <fail>

80000414 <test_34>:
80000414:	00000213          	li	tp,0
80000418:	00700113          	li	sp,7
8000041c:	00100f93          	li	t6,1
80000420:	002f91b3          	sll	gp,t6,sp
80000424:	00120213          	add	tp,tp,1 # 1 <_entry_offset+0x1>
80000428:	00200293          	li	t0,2
8000042c:	fe5216e3          	bne	tp,t0,80000418 <test_34+0x4>
80000430:	08000e93          	li	t4,128
80000434:	02200e13          	li	t3,34
80000438:	15d19263          	bne	gp,t4,8000057c <fail>

8000043c <test_35>:
8000043c:	00000213          	li	tp,0
80000440:	00e00113          	li	sp,14
80000444:	00100f93          	li	t6,1
80000448:	00000013          	nop
8000044c:	002f91b3          	sll	gp,t6,sp
80000450:	00120213          	add	tp,tp,1 # 1 <_entry_offset+0x1>
80000454:	00200293          	li	t0,2
80000458:	fe5214e3          	bne	tp,t0,80000440 <test_35+0x4>
8000045c:	00004eb7          	lui	t4,0x4
80000460:	02300e13          	li	t3,35
80000464:	11d19c63          	bne	gp,t4,8000057c <fail>

80000468 <test_36>:
80000468:	00000213          	li	tp,0
8000046c:	01f00113          	li	sp,31
80000470:	00100f93          	li	t6,1
80000474:	00000013          	nop
80000478:	00000013          	nop
8000047c:	002f91b3          	sll	gp,t6,sp
80000480:	00120213          	add	tp,tp,1 # 1 <_entry_offset+0x1>
80000484:	00200293          	li	t0,2
80000488:	fe5212e3          	bne	tp,t0,8000046c <test_36+0x4>
8000048c:	80000eb7          	lui	t4,0x80000
80000490:	02400e13          	li	t3,36
80000494:	0fd19463          	bne	gp,t4,8000057c <fail>

80000498 <test_37>:
80000498:	00000213          	li	tp,0
8000049c:	00700113          	li	sp,7
800004a0:	00000013          	nop
800004a4:	00100f93          	li	t6,1
800004a8:	002f91b3          	sll	gp,t6,sp
800004ac:	00120213          	add	tp,tp,1 # 1 <_entry_offset+0x1>
800004b0:	00200293          	li	t0,2
800004b4:	fe5214e3          	bne	tp,t0,8000049c <test_37+0x4>
800004b8:	08000e93          	li	t4,128
800004bc:	02500e13          	li	t3,37
800004c0:	0bd19e63          	bne	gp,t4,8000057c <fail>

800004c4 <test_38>:
800004c4:	00000213          	li	tp,0
800004c8:	00e00113          	li	sp,14
800004cc:	00000013          	nop
800004d0:	00100f93          	li	t6,1
800004d4:	00000013          	nop
800004d8:	002f91b3          	sll	gp,t6,sp
800004dc:	00120213          	add	tp,tp,1 # 1 <_entry_offset+0x1>
800004e0:	00200293          	li	t0,2
800004e4:	fe5212e3          	bne	tp,t0,800004c8 <test_38+0x4>
800004e8:	00004eb7          	lui	t4,0x4
800004ec:	02600e13          	li	t3,38
800004f0:	09d19663          	bne	gp,t4,8000057c <fail>

800004f4 <test_39>:
800004f4:	00000213          	li	tp,0
800004f8:	01f00113          	li	sp,31
800004fc:	00000013          	nop
80000500:	00000013          	nop
80000504:	00100f93          	li	t6,1
80000508:	002f91b3          	sll	gp,t6,sp
8000050c:	00120213          	add	tp,tp,1 # 1 <_entry_offset+0x1>
80000510:	00200293          	li	t0,2
80000514:	fe5212e3          	bne	tp,t0,800004f8 <test_39+0x4>
80000518:	80000eb7          	lui	t4,0x80000
8000051c:	02700e13          	li	t3,39
80000520:	05d19e63          	bne	gp,t4,8000057c <fail>

80000524 <test_40>:
80000524:	00f00f93          	li	t6,15
80000528:	01f01133          	sll	sp,zero,t6
8000052c:	00000e93          	li	t4,0
80000530:	02800e13          	li	t3,40
80000534:	05d11463          	bne	sp,t4,8000057c <fail>

80000538 <test_41>:
80000538:	02000f93          	li	t6,32
8000053c:	000f9133          	sll	sp,t6,zero
80000540:	02000e93          	li	t4,32
80000544:	02900e13          	li	t3,41
80000548:	03d11a63          	bne	sp,t4,8000057c <fail>

8000054c <test_42>:
8000054c:	00001fb3          	sll	t6,zero,zero
80000550:	00000e93          	li	t4,0
80000554:	02a00e13          	li	t3,42
80000558:	03df9263          	bne	t6,t4,8000057c <fail>

8000055c <test_43>:
8000055c:	40000f93          	li	t6,1024
80000560:	00001137          	lui	sp,0x1
80000564:	80010113          	add	sp,sp,-2048 # 800 <_entry_offset+0x800>
80000568:	002f9033          	sll	zero,t6,sp
8000056c:	00000e93          	li	t4,0
80000570:	02b00e13          	li	t3,43
80000574:	01d01463          	bne	zero,t4,8000057c <fail>
80000578:	0100006f          	j	80000588 <pass>

8000057c <fail>:
8000057c:	fff00513          	li	a0,-1
80000580:	00100073          	ebreak
80000584:	ff9ff06f          	j	8000057c <fail>

80000588 <pass>:
80000588:	00000513          	li	a0,0
8000058c:	00008067          	ret

80000590 <beq>:
80000590:	00200e13          	li	t3,2
80000594:	00000f93          	li	t6,0
80000598:	00000113          	li	sp,0
8000059c:	002f8663          	beq	t6,sp,800005a8 <beq+0x18>
800005a0:	2bc01863          	bne	zero,t3,80000850 <fail>
800005a4:	01c01663          	bne	zero,t3,800005b0 <test_3>
800005a8:	fe2f8ee3          	beq	t6,sp,800005a4 <beq+0x14>
800005ac:	2bc01263          	bne	zero,t3,80000850 <fail>

800005b0 <test_3>:
800005b0:	00300e13          	li	t3,3
800005b4:	00100f93          	li	t6,1
800005b8:	00100113          	li	sp,1
800005bc:	002f8663          	beq	t6,sp,800005c8 <test_3+0x18>
800005c0:	29c01863          	bne	zero,t3,80000850 <fail>
800005c4:	01c01663          	bne	zero,t3,800005d0 <test_4>
800005c8:	fe2f8ee3          	beq	t6,sp,800005c4 <test_3+0x14>
800005cc:	29c01263          	bne	zero,t3,80000850 <fail>

800005d0 <test_4>:
800005d0:	00400e13          	li	t3,4
800005d4:	fff00f93          	li	t6,-1
800005d8:	fff00113          	li	sp,-1
800005dc:	002f8663          	beq	t6,sp,800005e8 <test_4+0x18>
800005e0:	27c01863          	bne	zero,t3,80000850 <fail>
800005e4:	01c01663          	bne	zero,t3,800005f0 <test_5>
800005e8:	fe2f8ee3          	beq	t6,sp,800005e4 <test_4+0x14>
800005ec:	27c01263          	bne	zero,t3,80000850 <fail>

800005f0 <test_5>:
800005f0:	00500e13          	li	t3,5
800005f4:	00000f93          	li	t6,0
800005f8:	00100113          	li	sp,1
800005fc:	002f8463          	beq	t6,sp,80000604 <test_5+0x14>
80000600:	01c01463          	bne	zero,t3,80000608 <test_5+0x18>
80000604:	25c01663          	bne	zero,t3,80000850 <fail>
80000608:	fe2f8ee3          	beq	t6,sp,80000604 <test_5+0x14>

8000060c <test_6>:
8000060c:	00600e13          	li	t3,6
80000610:	00100f93          	li	t6,1
80000614:	00000113          	li	sp,0
80000618:	002f8463          	beq	t6,sp,80000620 <test_6+0x14>
8000061c:	01c01463          	bne	zero,t3,80000624 <test_6+0x18>
80000620:	23c01863          	bne	zero,t3,80000850 <fail>
80000624:	fe2f8ee3          	beq	t6,sp,80000620 <test_6+0x14>

80000628 <test_7>:
80000628:	00700e13          	li	t3,7
8000062c:	fff00f93          	li	t6,-1
80000630:	00100113          	li	sp,1
80000634:	002f8463          	beq	t6,sp,8000063c <test_7+0x14>
80000638:	01c01463          	bne	zero,t3,80000640 <test_7+0x18>
8000063c:	21c01a63          	bne	zero,t3,80000850 <fail>
80000640:	fe2f8ee3          	beq	t6,sp,8000063c <test_7+0x14>

80000644 <test_8>:
80000644:	00800e13          	li	t3,8
80000648:	00100f93          	li	t6,1
8000064c:	fff00113          	li	sp,-1
80000650:	002f8463          	beq	t6,sp,80000658 <test_8+0x14>
80000654:	01c01463          	bne	zero,t3,8000065c <test_8+0x18>
80000658:	1fc01c63          	bne	zero,t3,80000850 <fail>
8000065c:	fe2f8ee3          	beq	t6,sp,80000658 <test_8+0x14>

80000660 <test_9>:
80000660:	00900e13          	li	t3,9
80000664:	00000213          	li	tp,0
80000668:	00000f93          	li	t6,0
8000066c:	fff00113          	li	sp,-1
80000670:	1e2f8063          	beq	t6,sp,80000850 <fail>
80000674:	00120213          	add	tp,tp,1 # 1 <_entry_offset+0x1>
80000678:	00200293          	li	t0,2
8000067c:	fe5216e3          	bne	tp,t0,80000668 <test_9+0x8>

80000680 <test_10>:
80000680:	00a00e13          	li	t3,10
80000684:	00000213          	li	tp,0
80000688:	00000f93          	li	t6,0
8000068c:	fff00113          	li	sp,-1
80000690:	00000013          	nop
80000694:	1a2f8e63          	beq	t6,sp,80000850 <fail>
80000698:	00120213          	add	tp,tp,1 # 1 <_entry_offset+0x1>
8000069c:	00200293          	li	t0,2
800006a0:	fe5214e3          	bne	tp,t0,80000688 <test_10+0x8>

800006a4 <test_11>:
800006a4:	00b00e13          	li	t3,11
800006a8:	00000213          	li	tp,0
800006ac:	00000f93          	li	t6,0
800006b0:	fff00113          	li	sp,-1
800006b4:	00000013          	nop
800006b8:	00000013          	nop
800006bc:	182f8a63          	beq	t6,sp,80000850 <fail>
800006c0:	00120213          	add	tp,tp,1 # 1 <_entry_offset+0x1>
800006c4:	00200293          	li	t0,2
800006c8:	fe5212e3          	bne	tp,t0,800006ac <test_11+0x8>

800006cc <test_12>:
800006cc:	00c00e13          	li	t3,12
800006d0:	00000213          	li	tp,0
800006d4:	00000f93          	li	t6,0
800006d8:	00000013          	nop
800006dc:	fff00113          	li	sp,-1
800006e0:	162f8863          	beq	t6,sp,80000850 <fail>
800006e4:	00120213          	add	tp,tp,1 # 1 <_entry_offset+0x1>
800006e8:	00200293          	li	t0,2
800006ec:	fe5214e3          	bne	tp,t0,800006d4 <test_12+0x8>

800006f0 <test_13>:
800006f0:	00d00e13          	li	t3,13
800006f4:	00000213          	li	tp,0
800006f8:	00000f93          	li	t6,0
800006fc:	00000013          	nop
80000700:	fff00113          	li	sp,-1
80000704:	00000013          	nop
80000708:	142f8463          	beq	t6,sp,80000850 <fail>
8000070c:	00120213          	add	tp,tp,1 # 1 <_entry_offset+0x1>
80000710:	00200293          	li	t0,2
80000714:	fe5212e3          	bne	tp,t0,800006f8 <test_13+0x8>

80000718 <test_14>:
80000718:	00e00e13          	li	t3,14
8000071c:	00000213          	li	tp,0
80000720:	00000f93          	li	t6,0
80000724:	00000013          	nop
80000728:	00000013          	nop
8000072c:	fff00113          	li	sp,-1
80000730:	122f8063          	beq	t6,sp,80000850 <fail>
80000734:	00120213          	add	tp,tp,1 # 1 <_entry_offset+0x1>
80000738:	00200293          	li	t0,2
8000073c:	fe5212e3          	bne	tp,t0,80000720 <test_14+0x8>

80000740 <test_15>:
80000740:	00f00e13          	li	t3,15
80000744:	00000213          	li	tp,0
80000748:	00000f93          	li	t6,0
8000074c:	fff00113          	li	sp,-1
80000750:	102f8063          	beq	t6,sp,80000850 <fail>
80000754:	00120213          	add	tp,tp,1 # 1 <_entry_offset+0x1>
80000758:	00200293          	li	t0,2
8000075c:	fe5216e3          	bne	tp,t0,80000748 <test_15+0x8>

80000760 <test_16>:
80000760:	01000e13          	li	t3,16
80000764:	00000213          	li	tp,0
80000768:	00000f93          	li	t6,0
8000076c:	fff00113          	li	sp,-1
80000770:	00000013          	nop
80000774:	0c2f8e63          	beq	t6,sp,80000850 <fail>
80000778:	00120213          	add	tp,tp,1 # 1 <_entry_offset+0x1>
8000077c:	00200293          	li	t0,2
80000780:	fe5214e3          	bne	tp,t0,80000768 <test_16+0x8>

80000784 <test_17>:
80000784:	01100e13          	li	t3,17
80000788:	00000213          	li	tp,0
8000078c:	00000f93          	li	t6,0
80000790:	fff00113          	li	sp,-1
80000794:	00000013          	nop
80000798:	00000013          	nop
8000079c:	0a2f8a63          	beq	t6,sp,80000850 <fail>
800007a0:	00120213          	add	tp,tp,1 # 1 <_entry_offset+0x1>
800007a4:	00200293          	li	t0,2
800007a8:	fe5212e3          	bne	tp,t0,8000078c <test_17+0x8>

800007ac <test_18>:
800007ac:	01200e13          	li	t3,18
800007b0:	00000213          	li	tp,0
800007b4:	00000f93          	li	t6,0
800007b8:	00000013          	nop
800007bc:	fff00113          	li	sp,-1
800007c0:	082f8863          	beq	t6,sp,80000850 <fail>
800007c4:	00120213          	add	tp,tp,1 # 1 <_entry_offset+0x1>
800007c8:	00200293          	li	t0,2
800007cc:	fe5214e3          	bne	tp,t0,800007b4 <test_18+0x8>

800007d0 <test_19>:
800007d0:	01300e13          	li	t3,19
800007d4:	00000213          	li	tp,0
800007d8:	00000f93          	li	t6,0
800007dc:	00000013          	nop
800007e0:	fff00113          	li	sp,-1
800007e4:	00000013          	nop
800007e8:	062f8463          	beq	t6,sp,80000850 <fail>
800007ec:	00120213          	add	tp,tp,1 # 1 <_entry_offset+0x1>
800007f0:	00200293          	li	t0,2
800007f4:	fe5212e3          	bne	tp,t0,800007d8 <test_19+0x8>

800007f8 <test_20>:
800007f8:	01400e13          	li	t3,20
800007fc:	00000213          	li	tp,0
80000800:	00000f93          	li	t6,0
80000804:	00000013          	nop
80000808:	00000013          	nop
8000080c:	fff00113          	li	sp,-1
80000810:	042f8063          	beq	t6,sp,80000850 <fail>
80000814:	00120213          	add	tp,tp,1 # 1 <_entry_offset+0x1>
80000818:	00200293          	li	t0,2
8000081c:	fe5212e3          	bne	tp,t0,80000800 <test_20+0x8>

80000820 <test_21>:
80000820:	00100f93          	li	t6,1
80000824:	00000a63          	beqz	zero,80000838 <test_21+0x18>
80000828:	001f8f93          	add	t6,t6,1
8000082c:	001f8f93          	add	t6,t6,1
80000830:	001f8f93          	add	t6,t6,1
80000834:	001f8f93          	add	t6,t6,1
80000838:	001f8f93          	add	t6,t6,1
8000083c:	001f8f93          	add	t6,t6,1
80000840:	00300e93          	li	t4,3
80000844:	01500e13          	li	t3,21
80000848:	01df9463          	bne	t6,t4,80000850 <fail>
8000084c:	0100006f          	j	8000085c <pass>

80000850 <fail>:
80000850:	fff00513          	li	a0,-1
80000854:	00100073          	ebreak
80000858:	ff9ff06f          	j	80000850 <fail>

8000085c <pass>:
8000085c:	00000513          	li	a0,0
80000860:	00008067          	ret

80000864 <xor>:
80000864:	ff010fb7          	lui	t6,0xff010
80000868:	f00f8f93          	add	t6,t6,-256 # ff00ff00 <_end+0x7effcf00>
8000086c:	0f0f1137          	lui	sp,0xf0f1
80000870:	f0f10113          	add	sp,sp,-241 # f0f0f0f <_entry_offset+0xf0f0f0f>
80000874:	002fc1b3          	xor	gp,t6,sp
80000878:	f00ffeb7          	lui	t4,0xf00ff
8000087c:	00fe8e93          	add	t4,t4,15 # f00ff00f <_end+0x700ec00f>
80000880:	00200e13          	li	t3,2
80000884:	4bd19063          	bne	gp,t4,80000d24 <fail>

80000888 <test_3>:
80000888:	0ff01fb7          	lui	t6,0xff01
8000088c:	ff0f8f93          	add	t6,t6,-16 # ff00ff0 <_entry_offset+0xff00ff0>
80000890:	f0f0f137          	lui	sp,0xf0f0f
80000894:	0f010113          	add	sp,sp,240 # f0f0f0f0 <_end+0x70efc0f0>
80000898:	002fc1b3          	xor	gp,t6,sp
8000089c:	ff010eb7          	lui	t4,0xff010
800008a0:	f00e8e93          	add	t4,t4,-256 # ff00ff00 <_end+0x7effcf00>
800008a4:	00300e13          	li	t3,3
800008a8:	47d19e63          	bne	gp,t4,80000d24 <fail>

800008ac <test_4>:
800008ac:	00ff0fb7          	lui	t6,0xff0
800008b0:	0fff8f93          	add	t6,t6,255 # ff00ff <_entry_offset+0xff00ff>
800008b4:	0f0f1137          	lui	sp,0xf0f1
800008b8:	f0f10113          	add	sp,sp,-241 # f0f0f0f <_entry_offset+0xf0f0f0f>
800008bc:	002fc1b3          	xor	gp,t6,sp
800008c0:	0ff01eb7          	lui	t4,0xff01
800008c4:	ff0e8e93          	add	t4,t4,-16 # ff00ff0 <_entry_offset+0xff00ff0>
800008c8:	00400e13          	li	t3,4
800008cc:	45d19c63          	bne	gp,t4,80000d24 <fail>

800008d0 <test_5>:
800008d0:	f00fffb7          	lui	t6,0xf00ff
800008d4:	00ff8f93          	add	t6,t6,15 # f00ff00f <_end+0x700ec00f>
800008d8:	f0f0f137          	lui	sp,0xf0f0f
800008dc:	0f010113          	add	sp,sp,240 # f0f0f0f0 <_end+0x70efc0f0>
800008e0:	002fc1b3          	xor	gp,t6,sp
800008e4:	00ff0eb7          	lui	t4,0xff0
800008e8:	0ffe8e93          	add	t4,t4,255 # ff00ff <_entry_offset+0xff00ff>
800008ec:	00500e13          	li	t3,5
800008f0:	43d19a63          	bne	gp,t4,80000d24 <fail>

800008f4 <test_6>:
800008f4:	ff010fb7          	lui	t6,0xff010
800008f8:	f00f8f93          	add	t6,t6,-256 # ff00ff00 <_end+0x7effcf00>
800008fc:	0f0f1137          	lui	sp,0xf0f1
80000900:	f0f10113          	add	sp,sp,-241 # f0f0f0f <_entry_offset+0xf0f0f0f>
80000904:	002fcfb3          	xor	t6,t6,sp
80000908:	f00ffeb7          	lui	t4,0xf00ff
8000090c:	00fe8e93          	add	t4,t4,15 # f00ff00f <_end+0x700ec00f>
80000910:	00600e13          	li	t3,6
80000914:	41df9863          	bne	t6,t4,80000d24 <fail>

80000918 <test_7>:
80000918:	ff010fb7          	lui	t6,0xff010
8000091c:	f00f8f93          	add	t6,t6,-256 # ff00ff00 <_end+0x7effcf00>
80000920:	0f0f1137          	lui	sp,0xf0f1
80000924:	f0f10113          	add	sp,sp,-241 # f0f0f0f <_entry_offset+0xf0f0f0f>
80000928:	002fc133          	xor	sp,t6,sp
8000092c:	f00ffeb7          	lui	t4,0xf00ff
80000930:	00fe8e93          	add	t4,t4,15 # f00ff00f <_end+0x700ec00f>
80000934:	00700e13          	li	t3,7
80000938:	3fd11663          	bne	sp,t4,80000d24 <fail>

8000093c <test_8>:
8000093c:	ff010fb7          	lui	t6,0xff010
80000940:	f00f8f93          	add	t6,t6,-256 # ff00ff00 <_end+0x7effcf00>
80000944:	01ffcfb3          	xor	t6,t6,t6
80000948:	00000e93          	li	t4,0
8000094c:	00800e13          	li	t3,8
80000950:	3ddf9a63          	bne	t6,t4,80000d24 <fail>

80000954 <test_9>:
80000954:	00000213          	li	tp,0
80000958:	ff010fb7          	lui	t6,0xff010
8000095c:	f00f8f93          	add	t6,t6,-256 # ff00ff00 <_end+0x7effcf00>
80000960:	0f0f1137          	lui	sp,0xf0f1
80000964:	f0f10113          	add	sp,sp,-241 # f0f0f0f <_entry_offset+0xf0f0f0f>
80000968:	002fc1b3          	xor	gp,t6,sp
8000096c:	00018313          	mv	t1,gp
80000970:	00120213          	add	tp,tp,1 # 1 <_entry_offset+0x1>
80000974:	00200293          	li	t0,2
80000978:	fe5210e3          	bne	tp,t0,80000958 <test_9+0x4>
8000097c:	f00ffeb7          	lui	t4,0xf00ff
80000980:	00fe8e93          	add	t4,t4,15 # f00ff00f <_end+0x700ec00f>
80000984:	00900e13          	li	t3,9
80000988:	39d31e63          	bne	t1,t4,80000d24 <fail>

8000098c <test_10>:
8000098c:	00000213          	li	tp,0
80000990:	0ff01fb7          	lui	t6,0xff01
80000994:	ff0f8f93          	add	t6,t6,-16 # ff00ff0 <_entry_offset+0xff00ff0>
80000998:	f0f0f137          	lui	sp,0xf0f0f
8000099c:	0f010113          	add	sp,sp,240 # f0f0f0f0 <_end+0x70efc0f0>
800009a0:	002fc1b3          	xor	gp,t6,sp
800009a4:	00000013          	nop
800009a8:	00018313          	mv	t1,gp
800009ac:	00120213          	add	tp,tp,1 # 1 <_entry_offset+0x1>
800009b0:	00200293          	li	t0,2
800009b4:	fc521ee3          	bne	tp,t0,80000990 <test_10+0x4>
800009b8:	ff010eb7          	lui	t4,0xff010
800009bc:	f00e8e93          	add	t4,t4,-256 # ff00ff00 <_end+0x7effcf00>
800009c0:	00a00e13          	li	t3,10
800009c4:	37d31063          	bne	t1,t4,80000d24 <fail>

800009c8 <test_11>:
800009c8:	00000213          	li	tp,0
800009cc:	00ff0fb7          	lui	t6,0xff0
800009d0:	0fff8f93          	add	t6,t6,255 # ff00ff <_entry_offset+0xff00ff>
800009d4:	0f0f1137          	lui	sp,0xf0f1
800009d8:	f0f10113          	add	sp,sp,-241 # f0f0f0f <_entry_offset+0xf0f0f0f>
800009dc:	002fc1b3          	xor	gp,t6,sp
800009e0:	00000013          	nop
800009e4:	00000013          	nop
800009e8:	00018313          	mv	t1,gp
800009ec:	00120213          	add	tp,tp,1 # 1 <_entry_offset+0x1>
800009f0:	00200293          	li	t0,2
800009f4:	fc521ce3          	bne	tp,t0,800009cc <test_11+0x4>
800009f8:	0ff01eb7          	lui	t4,0xff01
800009fc:	ff0e8e93          	add	t4,t4,-16 # ff00ff0 <_entry_offset+0xff00ff0>
80000a00:	00b00e13          	li	t3,11
80000a04:	33d31063          	bne	t1,t4,80000d24 <fail>

80000a08 <test_12>:
80000a08:	00000213          	li	tp,0
80000a0c:	ff010fb7          	lui	t6,0xff010
80000a10:	f00f8f93          	add	t6,t6,-256 # ff00ff00 <_end+0x7effcf00>
80000a14:	0f0f1137          	lui	sp,0xf0f1
80000a18:	f0f10113          	add	sp,sp,-241 # f0f0f0f <_entry_offset+0xf0f0f0f>
80000a1c:	002fc1b3          	xor	gp,t6,sp
80000a20:	00120213          	add	tp,tp,1 # 1 <_entry_offset+0x1>
80000a24:	00200293          	li	t0,2
80000a28:	fe5212e3          	bne	tp,t0,80000a0c <test_12+0x4>
80000a2c:	f00ffeb7          	lui	t4,0xf00ff
80000a30:	00fe8e93          	add	t4,t4,15 # f00ff00f <_end+0x700ec00f>
80000a34:	00c00e13          	li	t3,12
80000a38:	2fd19663          	bne	gp,t4,80000d24 <fail>

80000a3c <test_13>:
80000a3c:	00000213          	li	tp,0
80000a40:	0ff01fb7          	lui	t6,0xff01
80000a44:	ff0f8f93          	add	t6,t6,-16 # ff00ff0 <_entry_offset+0xff00ff0>
80000a48:	f0f0f137          	lui	sp,0xf0f0f
80000a4c:	0f010113          	add	sp,sp,240 # f0f0f0f0 <_end+0x70efc0f0>
80000a50:	00000013          	nop
80000a54:	002fc1b3          	xor	gp,t6,sp
80000a58:	00120213          	add	tp,tp,1 # 1 <_entry_offset+0x1>
80000a5c:	00200293          	li	t0,2
80000a60:	fe5210e3          	bne	tp,t0,80000a40 <test_13+0x4>
80000a64:	ff010eb7          	lui	t4,0xff010
80000a68:	f00e8e93          	add	t4,t4,-256 # ff00ff00 <_end+0x7effcf00>
80000a6c:	00d00e13          	li	t3,13
80000a70:	2bd19a63          	bne	gp,t4,80000d24 <fail>

80000a74 <test_14>:
80000a74:	00000213          	li	tp,0
80000a78:	00ff0fb7          	lui	t6,0xff0
80000a7c:	0fff8f93          	add	t6,t6,255 # ff00ff <_entry_offset+0xff00ff>
80000a80:	0f0f1137          	lui	sp,0xf0f1
80000a84:	f0f10113          	add	sp,sp,-241 # f0f0f0f <_entry_offset+0xf0f0f0f>
80000a88:	00000013          	nop
80000a8c:	00000013          	nop
80000a90:	002fc1b3          	xor	gp,t6,sp
80000a94:	00120213          	add	tp,tp,1 # 1 <_entry_offset+0x1>
80000a98:	00200293          	li	t0,2
80000a9c:	fc521ee3          	bne	tp,t0,80000a78 <test_14+0x4>
80000aa0:	0ff01eb7          	lui	t4,0xff01
80000aa4:	ff0e8e93          	add	t4,t4,-16 # ff00ff0 <_entry_offset+0xff00ff0>
80000aa8:	00e00e13          	li	t3,14
80000aac:	27d19c63          	bne	gp,t4,80000d24 <fail>

80000ab0 <test_15>:
80000ab0:	00000213          	li	tp,0
80000ab4:	ff010fb7          	lui	t6,0xff010
80000ab8:	f00f8f93          	add	t6,t6,-256 # ff00ff00 <_end+0x7effcf00>
80000abc:	00000013          	nop
80000ac0:	0f0f1137          	lui	sp,0xf0f1
80000ac4:	f0f10113          	add	sp,sp,-241 # f0f0f0f <_entry_offset+0xf0f0f0f>
80000ac8:	002fc1b3          	xor	gp,t6,sp
80000acc:	00120213          	add	tp,tp,1 # 1 <_entry_offset+0x1>
80000ad0:	00200293          	li	t0,2
80000ad4:	fe5210e3          	bne	tp,t0,80000ab4 <test_15+0x4>
80000ad8:	f00ffeb7          	lui	t4,0xf00ff
80000adc:	00fe8e93          	add	t4,t4,15 # f00ff00f <_end+0x700ec00f>
80000ae0:	00f00e13          	li	t3,15
80000ae4:	25d19063          	bne	gp,t4,80000d24 <fail>

80000ae8 <test_16>:
80000ae8:	00000213          	li	tp,0
80000aec:	0ff01fb7          	lui	t6,0xff01
80000af0:	ff0f8f93          	add	t6,t6,-16 # ff00ff0 <_entry_offset+0xff00ff0>
80000af4:	00000013          	nop
80000af8:	f0f0f137          	lui	sp,0xf0f0f
80000afc:	0f010113          	add	sp,sp,240 # f0f0f0f0 <_end+0x70efc0f0>
80000b00:	00000013          	nop
80000b04:	002fc1b3          	xor	gp,t6,sp
80000b08:	00120213          	add	tp,tp,1 # 1 <_entry_offset+0x1>
80000b0c:	00200293          	li	t0,2
80000b10:	fc521ee3          	bne	tp,t0,80000aec <test_16+0x4>
80000b14:	ff010eb7          	lui	t4,0xff010
80000b18:	f00e8e93          	add	t4,t4,-256 # ff00ff00 <_end+0x7effcf00>
80000b1c:	01000e13          	li	t3,16
80000b20:	21d19263          	bne	gp,t4,80000d24 <fail>

80000b24 <test_17>:
80000b24:	00000213          	li	tp,0
80000b28:	00ff0fb7          	lui	t6,0xff0
80000b2c:	0fff8f93          	add	t6,t6,255 # ff00ff <_entry_offset+0xff00ff>
80000b30:	00000013          	nop
80000b34:	00000013          	nop
80000b38:	0f0f1137          	lui	sp,0xf0f1
80000b3c:	f0f10113          	add	sp,sp,-241 # f0f0f0f <_entry_offset+0xf0f0f0f>
80000b40:	002fc1b3          	xor	gp,t6,sp
80000b44:	00120213          	add	tp,tp,1 # 1 <_entry_offset+0x1>
80000b48:	00200293          	li	t0,2
80000b4c:	fc521ee3          	bne	tp,t0,80000b28 <test_17+0x4>
80000b50:	0ff01eb7          	lui	t4,0xff01
80000b54:	ff0e8e93          	add	t4,t4,-16 # ff00ff0 <_entry_offset+0xff00ff0>
80000b58:	01100e13          	li	t3,17
80000b5c:	1dd19463          	bne	gp,t4,80000d24 <fail>

80000b60 <test_18>:
80000b60:	00000213          	li	tp,0
80000b64:	0f0f1137          	lui	sp,0xf0f1
80000b68:	f0f10113          	add	sp,sp,-241 # f0f0f0f <_entry_offset+0xf0f0f0f>
80000b6c:	ff010fb7          	lui	t6,0xff010
80000b70:	f00f8f93          	add	t6,t6,-256 # ff00ff00 <_end+0x7effcf00>
80000b74:	002fc1b3          	xor	gp,t6,sp
80000b78:	00120213          	add	tp,tp,1 # 1 <_entry_offset+0x1>
80000b7c:	00200293          	li	t0,2
80000b80:	fe5212e3          	bne	tp,t0,80000b64 <test_18+0x4>
80000b84:	f00ffeb7          	lui	t4,0xf00ff
80000b88:	00fe8e93          	add	t4,t4,15 # f00ff00f <_end+0x700ec00f>
80000b8c:	01200e13          	li	t3,18
80000b90:	19d19a63          	bne	gp,t4,80000d24 <fail>

80000b94 <test_19>:
80000b94:	00000213          	li	tp,0
80000b98:	f0f0f137          	lui	sp,0xf0f0f
80000b9c:	0f010113          	add	sp,sp,240 # f0f0f0f0 <_end+0x70efc0f0>
80000ba0:	0ff01fb7          	lui	t6,0xff01
80000ba4:	ff0f8f93          	add	t6,t6,-16 # ff00ff0 <_entry_offset+0xff00ff0>
80000ba8:	00000013          	nop
80000bac:	002fc1b3          	xor	gp,t6,sp
80000bb0:	00120213          	add	tp,tp,1 # 1 <_entry_offset+0x1>
80000bb4:	00200293          	li	t0,2
80000bb8:	fe5210e3          	bne	tp,t0,80000b98 <test_19+0x4>
80000bbc:	ff010eb7          	lui	t4,0xff010
80000bc0:	f00e8e93          	add	t4,t4,-256 # ff00ff00 <_end+0x7effcf00>
80000bc4:	01300e13          	li	t3,19
80000bc8:	15d19e63          	bne	gp,t4,80000d24 <fail>

80000bcc <test_20>:
80000bcc:	00000213          	li	tp,0
80000bd0:	0f0f1137          	lui	sp,0xf0f1
80000bd4:	f0f10113          	add	sp,sp,-241 # f0f0f0f <_entry_offset+0xf0f0f0f>
80000bd8:	00ff0fb7          	lui	t6,0xff0
80000bdc:	0fff8f93          	add	t6,t6,255 # ff00ff <_entry_offset+0xff00ff>
80000be0:	00000013          	nop
80000be4:	00000013          	nop
80000be8:	002fc1b3          	xor	gp,t6,sp
80000bec:	00120213          	add	tp,tp,1 # 1 <_entry_offset+0x1>
80000bf0:	00200293          	li	t0,2
80000bf4:	fc521ee3          	bne	tp,t0,80000bd0 <test_20+0x4>
80000bf8:	0ff01eb7          	lui	t4,0xff01
80000bfc:	ff0e8e93          	add	t4,t4,-16 # ff00ff0 <_entry_offset+0xff00ff0>
80000c00:	01400e13          	li	t3,20
80000c04:	13d19063          	bne	gp,t4,80000d24 <fail>

80000c08 <test_21>:
80000c08:	00000213          	li	tp,0
80000c0c:	0f0f1137          	lui	sp,0xf0f1
80000c10:	f0f10113          	add	sp,sp,-241 # f0f0f0f <_entry_offset+0xf0f0f0f>
80000c14:	00000013          	nop
80000c18:	ff010fb7          	lui	t6,0xff010
80000c1c:	f00f8f93          	add	t6,t6,-256 # ff00ff00 <_end+0x7effcf00>
80000c20:	002fc1b3          	xor	gp,t6,sp
80000c24:	00120213          	add	tp,tp,1 # 1 <_entry_offset+0x1>
80000c28:	00200293          	li	t0,2
80000c2c:	fe5210e3          	bne	tp,t0,80000c0c <test_21+0x4>
80000c30:	f00ffeb7          	lui	t4,0xf00ff
80000c34:	00fe8e93          	add	t4,t4,15 # f00ff00f <_end+0x700ec00f>
80000c38:	01500e13          	li	t3,21
80000c3c:	0fd19463          	bne	gp,t4,80000d24 <fail>

80000c40 <test_22>:
80000c40:	00000213          	li	tp,0
80000c44:	f0f0f137          	lui	sp,0xf0f0f
80000c48:	0f010113          	add	sp,sp,240 # f0f0f0f0 <_end+0x70efc0f0>
80000c4c:	00000013          	nop
80000c50:	0ff01fb7          	lui	t6,0xff01
80000c54:	ff0f8f93          	add	t6,t6,-16 # ff00ff0 <_entry_offset+0xff00ff0>
80000c58:	00000013          	nop
80000c5c:	002fc1b3          	xor	gp,t6,sp
80000c60:	00120213          	add	tp,tp,1 # 1 <_entry_offset+0x1>
80000c64:	00200293          	li	t0,2
80000c68:	fc521ee3          	bne	tp,t0,80000c44 <test_22+0x4>
80000c6c:	ff010eb7          	lui	t4,0xff010
80000c70:	f00e8e93          	add	t4,t4,-256 # ff00ff00 <_end+0x7effcf00>
80000c74:	01600e13          	li	t3,22
80000c78:	0bd19663          	bne	gp,t4,80000d24 <fail>

80000c7c <test_23>:
80000c7c:	00000213          	li	tp,0
80000c80:	0f0f1137          	lui	sp,0xf0f1
80000c84:	f0f10113          	add	sp,sp,-241 # f0f0f0f <_entry_offset+0xf0f0f0f>
80000c88:	00000013          	nop
80000c8c:	00000013          	nop
80000c90:	00ff0fb7          	lui	t6,0xff0
80000c94:	0fff8f93          	add	t6,t6,255 # ff00ff <_entry_offset+0xff00ff>
80000c98:	002fc1b3          	xor	gp,t6,sp
80000c9c:	00120213          	add	tp,tp,1 # 1 <_entry_offset+0x1>
80000ca0:	00200293          	li	t0,2
80000ca4:	fc521ee3          	bne	tp,t0,80000c80 <test_23+0x4>
80000ca8:	0ff01eb7          	lui	t4,0xff01
80000cac:	ff0e8e93          	add	t4,t4,-16 # ff00ff0 <_entry_offset+0xff00ff0>
80000cb0:	01700e13          	li	t3,23
80000cb4:	07d19863          	bne	gp,t4,80000d24 <fail>

80000cb8 <test_24>:
80000cb8:	ff010fb7          	lui	t6,0xff010
80000cbc:	f00f8f93          	add	t6,t6,-256 # ff00ff00 <_end+0x7effcf00>
80000cc0:	01f04133          	xor	sp,zero,t6
80000cc4:	ff010eb7          	lui	t4,0xff010
80000cc8:	f00e8e93          	add	t4,t4,-256 # ff00ff00 <_end+0x7effcf00>
80000ccc:	01800e13          	li	t3,24
80000cd0:	05d11a63          	bne	sp,t4,80000d24 <fail>

80000cd4 <test_25>:
80000cd4:	00ff0fb7          	lui	t6,0xff0
80000cd8:	0fff8f93          	add	t6,t6,255 # ff00ff <_entry_offset+0xff00ff>
80000cdc:	000fc133          	xor	sp,t6,zero
80000ce0:	00ff0eb7          	lui	t4,0xff0
80000ce4:	0ffe8e93          	add	t4,t4,255 # ff00ff <_entry_offset+0xff00ff>
80000ce8:	01900e13          	li	t3,25
80000cec:	03d11c63          	bne	sp,t4,80000d24 <fail>

80000cf0 <test_26>:
80000cf0:	00004fb3          	xor	t6,zero,zero
80000cf4:	00000e93          	li	t4,0
80000cf8:	01a00e13          	li	t3,26
80000cfc:	03df9463          	bne	t6,t4,80000d24 <fail>

80000d00 <test_27>:
80000d00:	11111fb7          	lui	t6,0x11111
80000d04:	111f8f93          	add	t6,t6,273 # 11111111 <_entry_offset+0x11111111>
80000d08:	22222137          	lui	sp,0x22222
80000d0c:	22210113          	add	sp,sp,546 # 22222222 <_entry_offset+0x22222222>
80000d10:	002fc033          	xor	zero,t6,sp
80000d14:	00000e93          	li	t4,0
80000d18:	01b00e13          	li	t3,27
80000d1c:	01d01463          	bne	zero,t4,80000d24 <fail>
80000d20:	0100006f          	j	80000d30 <pass>

80000d24 <fail>:
80000d24:	fff00513          	li	a0,-1
80000d28:	00100073          	ebreak
80000d2c:	ff9ff06f          	j	80000d24 <fail>

80000d30 <pass>:
80000d30:	00000513          	li	a0,0
80000d34:	00008067          	ret

80000d38 <lh>:
80000d38:	0000af97          	auipc	t6,0xa
80000d3c:	e2cf8f93          	add	t6,t6,-468 # 8000ab64 <tdat>
80000d40:	000f9183          	lh	gp,0(t6)
80000d44:	0ff00e93          	li	t4,255
80000d48:	00200e13          	li	t3,2
80000d4c:	25d19c63          	bne	gp,t4,80000fa4 <fail>

80000d50 <test_3>:
80000d50:	0000af97          	auipc	t6,0xa
80000d54:	e14f8f93          	add	t6,t6,-492 # 8000ab64 <tdat>
80000d58:	002f9183          	lh	gp,2(t6)
80000d5c:	f0000e93          	li	t4,-256
80000d60:	00300e13          	li	t3,3
80000d64:	25d19063          	bne	gp,t4,80000fa4 <fail>

80000d68 <test_4>:
80000d68:	0000af97          	auipc	t6,0xa
80000d6c:	dfcf8f93          	add	t6,t6,-516 # 8000ab64 <tdat>
80000d70:	004f9183          	lh	gp,4(t6)
80000d74:	00001eb7          	lui	t4,0x1
80000d78:	ff0e8e93          	add	t4,t4,-16 # ff0 <_entry_offset+0xff0>
80000d7c:	00400e13          	li	t3,4
80000d80:	23d19263          	bne	gp,t4,80000fa4 <fail>

80000d84 <test_5>:
80000d84:	0000af97          	auipc	t6,0xa
80000d88:	de0f8f93          	add	t6,t6,-544 # 8000ab64 <tdat>
80000d8c:	006f9183          	lh	gp,6(t6)
80000d90:	fffffeb7          	lui	t4,0xfffff
80000d94:	00fe8e93          	add	t4,t4,15 # fffff00f <_end+0x7ffec00f>
80000d98:	00500e13          	li	t3,5
80000d9c:	21d19463          	bne	gp,t4,80000fa4 <fail>

80000da0 <test_6>:
80000da0:	0000af97          	auipc	t6,0xa
80000da4:	dcaf8f93          	add	t6,t6,-566 # 8000ab6a <tdat4>
80000da8:	ffaf9183          	lh	gp,-6(t6)
80000dac:	0ff00e93          	li	t4,255
80000db0:	00600e13          	li	t3,6
80000db4:	1fd19863          	bne	gp,t4,80000fa4 <fail>

80000db8 <test_7>:
80000db8:	0000af97          	auipc	t6,0xa
80000dbc:	db2f8f93          	add	t6,t6,-590 # 8000ab6a <tdat4>
80000dc0:	ffcf9183          	lh	gp,-4(t6)
80000dc4:	f0000e93          	li	t4,-256
80000dc8:	00700e13          	li	t3,7
80000dcc:	1dd19c63          	bne	gp,t4,80000fa4 <fail>

80000dd0 <test_8>:
80000dd0:	0000af97          	auipc	t6,0xa
80000dd4:	d9af8f93          	add	t6,t6,-614 # 8000ab6a <tdat4>
80000dd8:	ffef9183          	lh	gp,-2(t6)
80000ddc:	00001eb7          	lui	t4,0x1
80000de0:	ff0e8e93          	add	t4,t4,-16 # ff0 <_entry_offset+0xff0>
80000de4:	00800e13          	li	t3,8
80000de8:	1bd19e63          	bne	gp,t4,80000fa4 <fail>

80000dec <test_9>:
80000dec:	0000af97          	auipc	t6,0xa
80000df0:	d7ef8f93          	add	t6,t6,-642 # 8000ab6a <tdat4>
80000df4:	000f9183          	lh	gp,0(t6)
80000df8:	fffffeb7          	lui	t4,0xfffff
80000dfc:	00fe8e93          	add	t4,t4,15 # fffff00f <_end+0x7ffec00f>
80000e00:	00900e13          	li	t3,9
80000e04:	1bd19063          	bne	gp,t4,80000fa4 <fail>

80000e08 <test_10>:
80000e08:	0000af97          	auipc	t6,0xa
80000e0c:	d5cf8f93          	add	t6,t6,-676 # 8000ab64 <tdat>
80000e10:	fe0f8f93          	add	t6,t6,-32
80000e14:	020f9183          	lh	gp,32(t6)
80000e18:	0ff00e93          	li	t4,255
80000e1c:	00a00e13          	li	t3,10
80000e20:	19d19263          	bne	gp,t4,80000fa4 <fail>

80000e24 <test_11>:
80000e24:	0000af97          	auipc	t6,0xa
80000e28:	d40f8f93          	add	t6,t6,-704 # 8000ab64 <tdat>
80000e2c:	ffbf8f93          	add	t6,t6,-5
80000e30:	007f9183          	lh	gp,7(t6)
80000e34:	f0000e93          	li	t4,-256
80000e38:	00b00e13          	li	t3,11
80000e3c:	17d19463          	bne	gp,t4,80000fa4 <fail>

80000e40 <test_12>:
80000e40:	00c00e13          	li	t3,12
80000e44:	00000213          	li	tp,0
80000e48:	0000af97          	auipc	t6,0xa
80000e4c:	d1ef8f93          	add	t6,t6,-738 # 8000ab66 <tdat2>
80000e50:	002f9183          	lh	gp,2(t6)
80000e54:	00018313          	mv	t1,gp
80000e58:	00001eb7          	lui	t4,0x1
80000e5c:	ff0e8e93          	add	t4,t4,-16 # ff0 <_entry_offset+0xff0>
80000e60:	15d31263          	bne	t1,t4,80000fa4 <fail>
80000e64:	00120213          	add	tp,tp,1 # 1 <_entry_offset+0x1>
80000e68:	00200293          	li	t0,2
80000e6c:	fc521ee3          	bne	tp,t0,80000e48 <test_12+0x8>

80000e70 <test_13>:
80000e70:	00d00e13          	li	t3,13
80000e74:	00000213          	li	tp,0
80000e78:	0000af97          	auipc	t6,0xa
80000e7c:	cf0f8f93          	add	t6,t6,-784 # 8000ab68 <tdat3>
80000e80:	002f9183          	lh	gp,2(t6)
80000e84:	00000013          	nop
80000e88:	00018313          	mv	t1,gp
80000e8c:	fffffeb7          	lui	t4,0xfffff
80000e90:	00fe8e93          	add	t4,t4,15 # fffff00f <_end+0x7ffec00f>
80000e94:	11d31863          	bne	t1,t4,80000fa4 <fail>
80000e98:	00120213          	add	tp,tp,1 # 1 <_entry_offset+0x1>
80000e9c:	00200293          	li	t0,2
80000ea0:	fc521ce3          	bne	tp,t0,80000e78 <test_13+0x8>

80000ea4 <test_14>:
80000ea4:	00e00e13          	li	t3,14
80000ea8:	00000213          	li	tp,0
80000eac:	0000af97          	auipc	t6,0xa
80000eb0:	cb8f8f93          	add	t6,t6,-840 # 8000ab64 <tdat>
80000eb4:	002f9183          	lh	gp,2(t6)
80000eb8:	00000013          	nop
80000ebc:	00000013          	nop
80000ec0:	00018313          	mv	t1,gp
80000ec4:	f0000e93          	li	t4,-256
80000ec8:	0dd31e63          	bne	t1,t4,80000fa4 <fail>
80000ecc:	00120213          	add	tp,tp,1 # 1 <_entry_offset+0x1>
80000ed0:	00200293          	li	t0,2
80000ed4:	fc521ce3          	bne	tp,t0,80000eac <test_14+0x8>

80000ed8 <test_15>:
80000ed8:	00f00e13          	li	t3,15
80000edc:	00000213          	li	tp,0
80000ee0:	0000af97          	auipc	t6,0xa
80000ee4:	c86f8f93          	add	t6,t6,-890 # 8000ab66 <tdat2>
80000ee8:	002f9183          	lh	gp,2(t6)
80000eec:	00001eb7          	lui	t4,0x1
80000ef0:	ff0e8e93          	add	t4,t4,-16 # ff0 <_entry_offset+0xff0>
80000ef4:	0bd19863          	bne	gp,t4,80000fa4 <fail>
80000ef8:	00120213          	add	tp,tp,1 # 1 <_entry_offset+0x1>
80000efc:	00200293          	li	t0,2
80000f00:	fe5210e3          	bne	tp,t0,80000ee0 <test_15+0x8>

80000f04 <test_16>:
80000f04:	01000e13          	li	t3,16
80000f08:	00000213          	li	tp,0
80000f0c:	0000af97          	auipc	t6,0xa
80000f10:	c5cf8f93          	add	t6,t6,-932 # 8000ab68 <tdat3>
80000f14:	00000013          	nop
80000f18:	002f9183          	lh	gp,2(t6)
80000f1c:	fffffeb7          	lui	t4,0xfffff
80000f20:	00fe8e93          	add	t4,t4,15 # fffff00f <_end+0x7ffec00f>
80000f24:	09d19063          	bne	gp,t4,80000fa4 <fail>
80000f28:	00120213          	add	tp,tp,1 # 1 <_entry_offset+0x1>
80000f2c:	00200293          	li	t0,2
80000f30:	fc521ee3          	bne	tp,t0,80000f0c <test_16+0x8>

80000f34 <test_17>:
80000f34:	01100e13          	li	t3,17
80000f38:	00000213          	li	tp,0
80000f3c:	0000af97          	auipc	t6,0xa
80000f40:	c28f8f93          	add	t6,t6,-984 # 8000ab64 <tdat>
80000f44:	00000013          	nop
80000f48:	00000013          	nop
80000f4c:	002f9183          	lh	gp,2(t6)
80000f50:	f0000e93          	li	t4,-256
80000f54:	05d19863          	bne	gp,t4,80000fa4 <fail>
80000f58:	00120213          	add	tp,tp,1 # 1 <_entry_offset+0x1>
80000f5c:	00200293          	li	t0,2
80000f60:	fc521ee3          	bne	tp,t0,80000f3c <test_17+0x8>

80000f64 <test_18>:
80000f64:	0000a197          	auipc	gp,0xa
80000f68:	c0018193          	add	gp,gp,-1024 # 8000ab64 <tdat>
80000f6c:	00019103          	lh	sp,0(gp)
80000f70:	00200113          	li	sp,2
80000f74:	00200e93          	li	t4,2
80000f78:	01200e13          	li	t3,18
80000f7c:	03d11463          	bne	sp,t4,80000fa4 <fail>

80000f80 <test_19>:
80000f80:	0000a197          	auipc	gp,0xa
80000f84:	be418193          	add	gp,gp,-1052 # 8000ab64 <tdat>
80000f88:	00019103          	lh	sp,0(gp)
80000f8c:	00000013          	nop
80000f90:	00200113          	li	sp,2
80000f94:	00200e93          	li	t4,2
80000f98:	01300e13          	li	t3,19
80000f9c:	01d11463          	bne	sp,t4,80000fa4 <fail>
80000fa0:	0100006f          	j	80000fb0 <pass>

80000fa4 <fail>:
80000fa4:	fff00513          	li	a0,-1
80000fa8:	00100073          	ebreak
80000fac:	ff9ff06f          	j	80000fa4 <fail>

80000fb0 <pass>:
80000fb0:	00000513          	li	a0,0
80000fb4:	00008067          	ret

80000fb8 <lw>:
80000fb8:	0000af97          	auipc	t6,0xa
80000fbc:	bb4f8f93          	add	t6,t6,-1100 # 8000ab6c <tdat>
80000fc0:	000fa183          	lw	gp,0(t6)
80000fc4:	00ff0eb7          	lui	t4,0xff0
80000fc8:	0ffe8e93          	add	t4,t4,255 # ff00ff <_entry_offset+0xff00ff>
80000fcc:	00200e13          	li	t3,2
80000fd0:	27d19a63          	bne	gp,t4,80001244 <fail>

80000fd4 <test_3>:
80000fd4:	0000af97          	auipc	t6,0xa
80000fd8:	b98f8f93          	add	t6,t6,-1128 # 8000ab6c <tdat>
80000fdc:	004fa183          	lw	gp,4(t6)
80000fe0:	ff010eb7          	lui	t4,0xff010
80000fe4:	f00e8e93          	add	t4,t4,-256 # ff00ff00 <_end+0x7effcf00>
80000fe8:	00300e13          	li	t3,3
80000fec:	25d19c63          	bne	gp,t4,80001244 <fail>

80000ff0 <test_4>:
80000ff0:	0000af97          	auipc	t6,0xa
80000ff4:	b7cf8f93          	add	t6,t6,-1156 # 8000ab6c <tdat>
80000ff8:	008fa183          	lw	gp,8(t6)
80000ffc:	0ff01eb7          	lui	t4,0xff01
80001000:	ff0e8e93          	add	t4,t4,-16 # ff00ff0 <_entry_offset+0xff00ff0>
80001004:	00400e13          	li	t3,4
80001008:	23d19e63          	bne	gp,t4,80001244 <fail>

8000100c <test_5>:
8000100c:	0000af97          	auipc	t6,0xa
80001010:	b60f8f93          	add	t6,t6,-1184 # 8000ab6c <tdat>
80001014:	00cfa183          	lw	gp,12(t6)
80001018:	f00ffeb7          	lui	t4,0xf00ff
8000101c:	00fe8e93          	add	t4,t4,15 # f00ff00f <_end+0x700ec00f>
80001020:	00500e13          	li	t3,5
80001024:	23d19063          	bne	gp,t4,80001244 <fail>

80001028 <test_6>:
80001028:	0000af97          	auipc	t6,0xa
8000102c:	b50f8f93          	add	t6,t6,-1200 # 8000ab78 <tdat4>
80001030:	ff4fa183          	lw	gp,-12(t6)
80001034:	00ff0eb7          	lui	t4,0xff0
80001038:	0ffe8e93          	add	t4,t4,255 # ff00ff <_entry_offset+0xff00ff>
8000103c:	00600e13          	li	t3,6
80001040:	21d19263          	bne	gp,t4,80001244 <fail>

80001044 <test_7>:
80001044:	0000af97          	auipc	t6,0xa
80001048:	b34f8f93          	add	t6,t6,-1228 # 8000ab78 <tdat4>
8000104c:	ff8fa183          	lw	gp,-8(t6)
80001050:	ff010eb7          	lui	t4,0xff010
80001054:	f00e8e93          	add	t4,t4,-256 # ff00ff00 <_end+0x7effcf00>
80001058:	00700e13          	li	t3,7
8000105c:	1fd19463          	bne	gp,t4,80001244 <fail>

80001060 <test_8>:
80001060:	0000af97          	auipc	t6,0xa
80001064:	b18f8f93          	add	t6,t6,-1256 # 8000ab78 <tdat4>
80001068:	ffcfa183          	lw	gp,-4(t6)
8000106c:	0ff01eb7          	lui	t4,0xff01
80001070:	ff0e8e93          	add	t4,t4,-16 # ff00ff0 <_entry_offset+0xff00ff0>
80001074:	00800e13          	li	t3,8
80001078:	1dd19663          	bne	gp,t4,80001244 <fail>

8000107c <test_9>:
8000107c:	0000af97          	auipc	t6,0xa
80001080:	afcf8f93          	add	t6,t6,-1284 # 8000ab78 <tdat4>
80001084:	000fa183          	lw	gp,0(t6)
80001088:	f00ffeb7          	lui	t4,0xf00ff
8000108c:	00fe8e93          	add	t4,t4,15 # f00ff00f <_end+0x700ec00f>
80001090:	00900e13          	li	t3,9
80001094:	1bd19863          	bne	gp,t4,80001244 <fail>

80001098 <test_10>:
80001098:	0000af97          	auipc	t6,0xa
8000109c:	ad4f8f93          	add	t6,t6,-1324 # 8000ab6c <tdat>
800010a0:	fe0f8f93          	add	t6,t6,-32
800010a4:	020fa183          	lw	gp,32(t6)
800010a8:	00ff0eb7          	lui	t4,0xff0
800010ac:	0ffe8e93          	add	t4,t4,255 # ff00ff <_entry_offset+0xff00ff>
800010b0:	00a00e13          	li	t3,10
800010b4:	19d19863          	bne	gp,t4,80001244 <fail>

800010b8 <test_11>:
800010b8:	0000af97          	auipc	t6,0xa
800010bc:	ab4f8f93          	add	t6,t6,-1356 # 8000ab6c <tdat>
800010c0:	ffdf8f93          	add	t6,t6,-3
800010c4:	007fa183          	lw	gp,7(t6)
800010c8:	ff010eb7          	lui	t4,0xff010
800010cc:	f00e8e93          	add	t4,t4,-256 # ff00ff00 <_end+0x7effcf00>
800010d0:	00b00e13          	li	t3,11
800010d4:	17d19863          	bne	gp,t4,80001244 <fail>

800010d8 <test_12>:
800010d8:	00c00e13          	li	t3,12
800010dc:	00000213          	li	tp,0
800010e0:	0000af97          	auipc	t6,0xa
800010e4:	a90f8f93          	add	t6,t6,-1392 # 8000ab70 <tdat2>
800010e8:	004fa183          	lw	gp,4(t6)
800010ec:	00018313          	mv	t1,gp
800010f0:	0ff01eb7          	lui	t4,0xff01
800010f4:	ff0e8e93          	add	t4,t4,-16 # ff00ff0 <_entry_offset+0xff00ff0>
800010f8:	15d31663          	bne	t1,t4,80001244 <fail>
800010fc:	00120213          	add	tp,tp,1 # 1 <_entry_offset+0x1>
80001100:	00200293          	li	t0,2
80001104:	fc521ee3          	bne	tp,t0,800010e0 <test_12+0x8>

80001108 <test_13>:
80001108:	00d00e13          	li	t3,13
8000110c:	00000213          	li	tp,0
80001110:	0000af97          	auipc	t6,0xa
80001114:	a64f8f93          	add	t6,t6,-1436 # 8000ab74 <tdat3>
80001118:	004fa183          	lw	gp,4(t6)
8000111c:	00000013          	nop
80001120:	00018313          	mv	t1,gp
80001124:	f00ffeb7          	lui	t4,0xf00ff
80001128:	00fe8e93          	add	t4,t4,15 # f00ff00f <_end+0x700ec00f>
8000112c:	11d31c63          	bne	t1,t4,80001244 <fail>
80001130:	00120213          	add	tp,tp,1 # 1 <_entry_offset+0x1>
80001134:	00200293          	li	t0,2
80001138:	fc521ce3          	bne	tp,t0,80001110 <test_13+0x8>

8000113c <test_14>:
8000113c:	00e00e13          	li	t3,14
80001140:	00000213          	li	tp,0
80001144:	0000af97          	auipc	t6,0xa
80001148:	a28f8f93          	add	t6,t6,-1496 # 8000ab6c <tdat>
8000114c:	004fa183          	lw	gp,4(t6)
80001150:	00000013          	nop
80001154:	00000013          	nop
80001158:	00018313          	mv	t1,gp
8000115c:	ff010eb7          	lui	t4,0xff010
80001160:	f00e8e93          	add	t4,t4,-256 # ff00ff00 <_end+0x7effcf00>
80001164:	0fd31063          	bne	t1,t4,80001244 <fail>
80001168:	00120213          	add	tp,tp,1 # 1 <_entry_offset+0x1>
8000116c:	00200293          	li	t0,2
80001170:	fc521ae3          	bne	tp,t0,80001144 <test_14+0x8>

80001174 <test_15>:
80001174:	00f00e13          	li	t3,15
80001178:	00000213          	li	tp,0
8000117c:	0000af97          	auipc	t6,0xa
80001180:	9f4f8f93          	add	t6,t6,-1548 # 8000ab70 <tdat2>
80001184:	004fa183          	lw	gp,4(t6)
80001188:	0ff01eb7          	lui	t4,0xff01
8000118c:	ff0e8e93          	add	t4,t4,-16 # ff00ff0 <_entry_offset+0xff00ff0>
80001190:	0bd19a63          	bne	gp,t4,80001244 <fail>
80001194:	00120213          	add	tp,tp,1 # 1 <_entry_offset+0x1>
80001198:	00200293          	li	t0,2
8000119c:	fe5210e3          	bne	tp,t0,8000117c <test_15+0x8>

800011a0 <test_16>:
800011a0:	01000e13          	li	t3,16
800011a4:	00000213          	li	tp,0
800011a8:	0000af97          	auipc	t6,0xa
800011ac:	9ccf8f93          	add	t6,t6,-1588 # 8000ab74 <tdat3>
800011b0:	00000013          	nop
800011b4:	004fa183          	lw	gp,4(t6)
800011b8:	f00ffeb7          	lui	t4,0xf00ff
800011bc:	00fe8e93          	add	t4,t4,15 # f00ff00f <_end+0x700ec00f>
800011c0:	09d19263          	bne	gp,t4,80001244 <fail>
800011c4:	00120213          	add	tp,tp,1 # 1 <_entry_offset+0x1>
800011c8:	00200293          	li	t0,2
800011cc:	fc521ee3          	bne	tp,t0,800011a8 <test_16+0x8>

800011d0 <test_17>:
800011d0:	01100e13          	li	t3,17
800011d4:	00000213          	li	tp,0
800011d8:	0000af97          	auipc	t6,0xa
800011dc:	994f8f93          	add	t6,t6,-1644 # 8000ab6c <tdat>
800011e0:	00000013          	nop
800011e4:	00000013          	nop
800011e8:	004fa183          	lw	gp,4(t6)
800011ec:	ff010eb7          	lui	t4,0xff010
800011f0:	f00e8e93          	add	t4,t4,-256 # ff00ff00 <_end+0x7effcf00>
800011f4:	05d19863          	bne	gp,t4,80001244 <fail>
800011f8:	00120213          	add	tp,tp,1 # 1 <_entry_offset+0x1>
800011fc:	00200293          	li	t0,2
80001200:	fc521ce3          	bne	tp,t0,800011d8 <test_17+0x8>

80001204 <test_18>:
80001204:	0000a197          	auipc	gp,0xa
80001208:	96818193          	add	gp,gp,-1688 # 8000ab6c <tdat>
8000120c:	0001a103          	lw	sp,0(gp)
80001210:	00200113          	li	sp,2
80001214:	00200e93          	li	t4,2
80001218:	01200e13          	li	t3,18
8000121c:	03d11463          	bne	sp,t4,80001244 <fail>

80001220 <test_19>:
80001220:	0000a197          	auipc	gp,0xa
80001224:	94c18193          	add	gp,gp,-1716 # 8000ab6c <tdat>
80001228:	0001a103          	lw	sp,0(gp)
8000122c:	00000013          	nop
80001230:	00200113          	li	sp,2
80001234:	00200e93          	li	t4,2
80001238:	01300e13          	li	t3,19
8000123c:	01d11463          	bne	sp,t4,80001244 <fail>
80001240:	0100006f          	j	80001250 <pass>

80001244 <fail>:
80001244:	fff00513          	li	a0,-1
80001248:	00100073          	ebreak
8000124c:	ff9ff06f          	j	80001244 <fail>

80001250 <pass>:
80001250:	00000513          	li	a0,0
80001254:	00008067          	ret

80001258 <simple>:
80001258:	00000513          	li	a0,0
8000125c:	00008067          	ret

80001260 <sh>:
80001260:	0000af97          	auipc	t6,0xa
80001264:	91cf8f93          	add	t6,t6,-1764 # 8000ab7c <tdat>
80001268:	0aa00113          	li	sp,170
8000126c:	002f9023          	sh	sp,0(t6)
80001270:	000f9183          	lh	gp,0(t6)
80001274:	0aa00e93          	li	t4,170
80001278:	00200e13          	li	t3,2
8000127c:	45d19e63          	bne	gp,t4,800016d8 <fail>

80001280 <test_3>:
80001280:	0000af97          	auipc	t6,0xa
80001284:	8fcf8f93          	add	t6,t6,-1796 # 8000ab7c <tdat>
80001288:	ffffb137          	lui	sp,0xffffb
8000128c:	a0010113          	add	sp,sp,-1536 # ffffaa00 <_end+0x7ffe7a00>
80001290:	002f9123          	sh	sp,2(t6)
80001294:	002f9183          	lh	gp,2(t6)
80001298:	ffffbeb7          	lui	t4,0xffffb
8000129c:	a00e8e93          	add	t4,t4,-1536 # ffffaa00 <_end+0x7ffe7a00>
800012a0:	00300e13          	li	t3,3
800012a4:	43d19a63          	bne	gp,t4,800016d8 <fail>

800012a8 <test_4>:
800012a8:	0000af97          	auipc	t6,0xa
800012ac:	8d4f8f93          	add	t6,t6,-1836 # 8000ab7c <tdat>
800012b0:	beef1137          	lui	sp,0xbeef1
800012b4:	aa010113          	add	sp,sp,-1376 # beef0aa0 <_end+0x3eeddaa0>
800012b8:	002f9223          	sh	sp,4(t6)
800012bc:	004fa183          	lw	gp,4(t6)
800012c0:	beef1eb7          	lui	t4,0xbeef1
800012c4:	aa0e8e93          	add	t4,t4,-1376 # beef0aa0 <_end+0x3eeddaa0>
800012c8:	00400e13          	li	t3,4
800012cc:	41d19663          	bne	gp,t4,800016d8 <fail>

800012d0 <test_5>:
800012d0:	0000af97          	auipc	t6,0xa
800012d4:	8acf8f93          	add	t6,t6,-1876 # 8000ab7c <tdat>
800012d8:	ffffa137          	lui	sp,0xffffa
800012dc:	00a10113          	add	sp,sp,10 # ffffa00a <_end+0x7ffe700a>
800012e0:	002f9323          	sh	sp,6(t6)
800012e4:	006f9183          	lh	gp,6(t6)
800012e8:	ffffaeb7          	lui	t4,0xffffa
800012ec:	00ae8e93          	add	t4,t4,10 # ffffa00a <_end+0x7ffe700a>
800012f0:	00500e13          	li	t3,5
800012f4:	3fd19263          	bne	gp,t4,800016d8 <fail>

800012f8 <test_6>:
800012f8:	0000af97          	auipc	t6,0xa
800012fc:	892f8f93          	add	t6,t6,-1902 # 8000ab8a <tdat8>
80001300:	0aa00113          	li	sp,170
80001304:	fe2f9d23          	sh	sp,-6(t6)
80001308:	ffaf9183          	lh	gp,-6(t6)
8000130c:	0aa00e93          	li	t4,170
80001310:	00600e13          	li	t3,6
80001314:	3dd19263          	bne	gp,t4,800016d8 <fail>

80001318 <test_7>:
80001318:	0000af97          	auipc	t6,0xa
8000131c:	872f8f93          	add	t6,t6,-1934 # 8000ab8a <tdat8>
80001320:	ffffb137          	lui	sp,0xffffb
80001324:	a0010113          	add	sp,sp,-1536 # ffffaa00 <_end+0x7ffe7a00>
80001328:	fe2f9e23          	sh	sp,-4(t6)
8000132c:	ffcf9183          	lh	gp,-4(t6)
80001330:	ffffbeb7          	lui	t4,0xffffb
80001334:	a00e8e93          	add	t4,t4,-1536 # ffffaa00 <_end+0x7ffe7a00>
80001338:	00700e13          	li	t3,7
8000133c:	39d19e63          	bne	gp,t4,800016d8 <fail>

80001340 <test_8>:
80001340:	0000af97          	auipc	t6,0xa
80001344:	84af8f93          	add	t6,t6,-1974 # 8000ab8a <tdat8>
80001348:	00001137          	lui	sp,0x1
8000134c:	aa010113          	add	sp,sp,-1376 # aa0 <_entry_offset+0xaa0>
80001350:	fe2f9f23          	sh	sp,-2(t6)
80001354:	ffef9183          	lh	gp,-2(t6)
80001358:	00001eb7          	lui	t4,0x1
8000135c:	aa0e8e93          	add	t4,t4,-1376 # aa0 <_entry_offset+0xaa0>
80001360:	00800e13          	li	t3,8
80001364:	37d19a63          	bne	gp,t4,800016d8 <fail>

80001368 <test_9>:
80001368:	0000af97          	auipc	t6,0xa
8000136c:	822f8f93          	add	t6,t6,-2014 # 8000ab8a <tdat8>
80001370:	ffffa137          	lui	sp,0xffffa
80001374:	00a10113          	add	sp,sp,10 # ffffa00a <_end+0x7ffe700a>
80001378:	002f9023          	sh	sp,0(t6)
8000137c:	000f9183          	lh	gp,0(t6)
80001380:	ffffaeb7          	lui	t4,0xffffa
80001384:	00ae8e93          	add	t4,t4,10 # ffffa00a <_end+0x7ffe700a>
80001388:	00900e13          	li	t3,9
8000138c:	35d19663          	bne	gp,t4,800016d8 <fail>

80001390 <test_10>:
80001390:	00009f97          	auipc	t6,0x9
80001394:	7fcf8f93          	add	t6,t6,2044 # 8000ab8c <tdat9>
80001398:	12345137          	lui	sp,0x12345
8000139c:	67810113          	add	sp,sp,1656 # 12345678 <_entry_offset+0x12345678>
800013a0:	fe0f8213          	add	tp,t6,-32
800013a4:	02221023          	sh	sp,32(tp) # 20 <_entry_offset+0x20>
800013a8:	000f9183          	lh	gp,0(t6)
800013ac:	00005eb7          	lui	t4,0x5
800013b0:	678e8e93          	add	t4,t4,1656 # 5678 <_entry_offset+0x5678>
800013b4:	00a00e13          	li	t3,10
800013b8:	33d19063          	bne	gp,t4,800016d8 <fail>

800013bc <test_11>:
800013bc:	00009f97          	auipc	t6,0x9
800013c0:	7d0f8f93          	add	t6,t6,2000 # 8000ab8c <tdat9>
800013c4:	00003137          	lui	sp,0x3
800013c8:	09810113          	add	sp,sp,152 # 3098 <_entry_offset+0x3098>
800013cc:	ffbf8f93          	add	t6,t6,-5
800013d0:	002f93a3          	sh	sp,7(t6)
800013d4:	00009217          	auipc	tp,0x9
800013d8:	7ba20213          	add	tp,tp,1978 # 8000ab8e <tdat10>
800013dc:	00021183          	lh	gp,0(tp) # 0 <_entry_offset>
800013e0:	00003eb7          	lui	t4,0x3
800013e4:	098e8e93          	add	t4,t4,152 # 3098 <_entry_offset+0x3098>
800013e8:	00b00e13          	li	t3,11
800013ec:	2fd19663          	bne	gp,t4,800016d8 <fail>

800013f0 <test_12>:
800013f0:	00c00e13          	li	t3,12
800013f4:	00000213          	li	tp,0
800013f8:	ffffdfb7          	lui	t6,0xffffd
800013fc:	cddf8f93          	add	t6,t6,-803 # ffffccdd <_end+0x7ffe9cdd>
80001400:	00009117          	auipc	sp,0x9
80001404:	77c10113          	add	sp,sp,1916 # 8000ab7c <tdat>
80001408:	01f11023          	sh	t6,0(sp)
8000140c:	00011183          	lh	gp,0(sp)
80001410:	ffffdeb7          	lui	t4,0xffffd
80001414:	cdde8e93          	add	t4,t4,-803 # ffffccdd <_end+0x7ffe9cdd>
80001418:	2dd19063          	bne	gp,t4,800016d8 <fail>
8000141c:	00120213          	add	tp,tp,1 # 1 <_entry_offset+0x1>
80001420:	00200293          	li	t0,2
80001424:	fc521ae3          	bne	tp,t0,800013f8 <test_12+0x8>

80001428 <test_13>:
80001428:	00d00e13          	li	t3,13
8000142c:	00000213          	li	tp,0
80001430:	ffffcfb7          	lui	t6,0xffffc
80001434:	ccdf8f93          	add	t6,t6,-819 # ffffbccd <_end+0x7ffe8ccd>
80001438:	00009117          	auipc	sp,0x9
8000143c:	74410113          	add	sp,sp,1860 # 8000ab7c <tdat>
80001440:	00000013          	nop
80001444:	01f11123          	sh	t6,2(sp)
80001448:	00211183          	lh	gp,2(sp)
8000144c:	ffffceb7          	lui	t4,0xffffc
80001450:	ccde8e93          	add	t4,t4,-819 # ffffbccd <_end+0x7ffe8ccd>
80001454:	29d19263          	bne	gp,t4,800016d8 <fail>
80001458:	00120213          	add	tp,tp,1 # 1 <_entry_offset+0x1>
8000145c:	00200293          	li	t0,2
80001460:	fc5218e3          	bne	tp,t0,80001430 <test_13+0x8>

80001464 <test_14>:
80001464:	00e00e13          	li	t3,14
80001468:	00000213          	li	tp,0
8000146c:	ffffcfb7          	lui	t6,0xffffc
80001470:	bccf8f93          	add	t6,t6,-1076 # ffffbbcc <_end+0x7ffe8bcc>
80001474:	00009117          	auipc	sp,0x9
80001478:	70810113          	add	sp,sp,1800 # 8000ab7c <tdat>
8000147c:	00000013          	nop
80001480:	00000013          	nop
80001484:	01f11223          	sh	t6,4(sp)
80001488:	00411183          	lh	gp,4(sp)
8000148c:	ffffceb7          	lui	t4,0xffffc
80001490:	bcce8e93          	add	t4,t4,-1076 # ffffbbcc <_end+0x7ffe8bcc>
80001494:	25d19263          	bne	gp,t4,800016d8 <fail>
80001498:	00120213          	add	tp,tp,1 # 1 <_entry_offset+0x1>
8000149c:	00200293          	li	t0,2
800014a0:	fc5216e3          	bne	tp,t0,8000146c <test_14+0x8>

800014a4 <test_15>:
800014a4:	00f00e13          	li	t3,15
800014a8:	00000213          	li	tp,0
800014ac:	ffffbfb7          	lui	t6,0xffffb
800014b0:	bbcf8f93          	add	t6,t6,-1092 # ffffabbc <_end+0x7ffe7bbc>
800014b4:	00000013          	nop
800014b8:	00009117          	auipc	sp,0x9
800014bc:	6c410113          	add	sp,sp,1732 # 8000ab7c <tdat>
800014c0:	01f11323          	sh	t6,6(sp)
800014c4:	00611183          	lh	gp,6(sp)
800014c8:	ffffbeb7          	lui	t4,0xffffb
800014cc:	bbce8e93          	add	t4,t4,-1092 # ffffabbc <_end+0x7ffe7bbc>
800014d0:	21d19463          	bne	gp,t4,800016d8 <fail>
800014d4:	00120213          	add	tp,tp,1 # 1 <_entry_offset+0x1>
800014d8:	00200293          	li	t0,2
800014dc:	fc5218e3          	bne	tp,t0,800014ac <test_15+0x8>

800014e0 <test_16>:
800014e0:	01000e13          	li	t3,16
800014e4:	00000213          	li	tp,0
800014e8:	ffffbfb7          	lui	t6,0xffffb
800014ec:	abbf8f93          	add	t6,t6,-1349 # ffffaabb <_end+0x7ffe7abb>
800014f0:	00000013          	nop
800014f4:	00009117          	auipc	sp,0x9
800014f8:	68810113          	add	sp,sp,1672 # 8000ab7c <tdat>
800014fc:	00000013          	nop
80001500:	01f11423          	sh	t6,8(sp)
80001504:	00811183          	lh	gp,8(sp)
80001508:	ffffbeb7          	lui	t4,0xffffb
8000150c:	abbe8e93          	add	t4,t4,-1349 # ffffaabb <_end+0x7ffe7abb>
80001510:	1dd19463          	bne	gp,t4,800016d8 <fail>
80001514:	00120213          	add	tp,tp,1 # 1 <_entry_offset+0x1>
80001518:	00200293          	li	t0,2
8000151c:	fc5216e3          	bne	tp,t0,800014e8 <test_16+0x8>

80001520 <test_17>:
80001520:	01100e13          	li	t3,17
80001524:	00000213          	li	tp,0
80001528:	ffffefb7          	lui	t6,0xffffe
8000152c:	aabf8f93          	add	t6,t6,-1365 # ffffdaab <_end+0x7ffeaaab>
80001530:	00000013          	nop
80001534:	00000013          	nop
80001538:	00009117          	auipc	sp,0x9
8000153c:	64410113          	add	sp,sp,1604 # 8000ab7c <tdat>
80001540:	01f11523          	sh	t6,10(sp)
80001544:	00a11183          	lh	gp,10(sp)
80001548:	ffffeeb7          	lui	t4,0xffffe
8000154c:	aabe8e93          	add	t4,t4,-1365 # ffffdaab <_end+0x7ffeaaab>
80001550:	19d19463          	bne	gp,t4,800016d8 <fail>
80001554:	00120213          	add	tp,tp,1 # 1 <_entry_offset+0x1>
80001558:	00200293          	li	t0,2
8000155c:	fc5216e3          	bne	tp,t0,80001528 <test_17+0x8>

80001560 <test_18>:
80001560:	01200e13          	li	t3,18
80001564:	00000213          	li	tp,0
80001568:	00009117          	auipc	sp,0x9
8000156c:	61410113          	add	sp,sp,1556 # 8000ab7c <tdat>
80001570:	00002fb7          	lui	t6,0x2
80001574:	233f8f93          	add	t6,t6,563 # 2233 <_entry_offset+0x2233>
80001578:	01f11023          	sh	t6,0(sp)
8000157c:	00011183          	lh	gp,0(sp)
80001580:	00002eb7          	lui	t4,0x2
80001584:	233e8e93          	add	t4,t4,563 # 2233 <_entry_offset+0x2233>
80001588:	15d19863          	bne	gp,t4,800016d8 <fail>
8000158c:	00120213          	add	tp,tp,1 # 1 <_entry_offset+0x1>
80001590:	00200293          	li	t0,2
80001594:	fc521ae3          	bne	tp,t0,80001568 <test_18+0x8>

80001598 <test_19>:
80001598:	01300e13          	li	t3,19
8000159c:	00000213          	li	tp,0
800015a0:	00009117          	auipc	sp,0x9
800015a4:	5dc10113          	add	sp,sp,1500 # 8000ab7c <tdat>
800015a8:	00001fb7          	lui	t6,0x1
800015ac:	223f8f93          	add	t6,t6,547 # 1223 <_entry_offset+0x1223>
800015b0:	00000013          	nop
800015b4:	01f11123          	sh	t6,2(sp)
800015b8:	00211183          	lh	gp,2(sp)
800015bc:	00001eb7          	lui	t4,0x1
800015c0:	223e8e93          	add	t4,t4,547 # 1223 <_entry_offset+0x1223>
800015c4:	11d19a63          	bne	gp,t4,800016d8 <fail>
800015c8:	00120213          	add	tp,tp,1 # 1 <_entry_offset+0x1>
800015cc:	00200293          	li	t0,2
800015d0:	fc5218e3          	bne	tp,t0,800015a0 <test_19+0x8>

800015d4 <test_20>:
800015d4:	01400e13          	li	t3,20
800015d8:	00000213          	li	tp,0
800015dc:	00009117          	auipc	sp,0x9
800015e0:	5a010113          	add	sp,sp,1440 # 8000ab7c <tdat>
800015e4:	00001fb7          	lui	t6,0x1
800015e8:	122f8f93          	add	t6,t6,290 # 1122 <_entry_offset+0x1122>
800015ec:	00000013          	nop
800015f0:	00000013          	nop
800015f4:	01f11223          	sh	t6,4(sp)
800015f8:	00411183          	lh	gp,4(sp)
800015fc:	00001eb7          	lui	t4,0x1
80001600:	122e8e93          	add	t4,t4,290 # 1122 <_entry_offset+0x1122>
80001604:	0dd19a63          	bne	gp,t4,800016d8 <fail>
80001608:	00120213          	add	tp,tp,1 # 1 <_entry_offset+0x1>
8000160c:	00200293          	li	t0,2
80001610:	fc5216e3          	bne	tp,t0,800015dc <test_20+0x8>

80001614 <test_21>:
80001614:	01500e13          	li	t3,21
80001618:	00000213          	li	tp,0
8000161c:	00009117          	auipc	sp,0x9
80001620:	56010113          	add	sp,sp,1376 # 8000ab7c <tdat>
80001624:	00000013          	nop
80001628:	11200f93          	li	t6,274
8000162c:	01f11323          	sh	t6,6(sp)
80001630:	00611183          	lh	gp,6(sp)
80001634:	11200e93          	li	t4,274
80001638:	0bd19063          	bne	gp,t4,800016d8 <fail>
8000163c:	00120213          	add	tp,tp,1 # 1 <_entry_offset+0x1>
80001640:	00200293          	li	t0,2
80001644:	fc521ce3          	bne	tp,t0,8000161c <test_21+0x8>

80001648 <test_22>:
80001648:	01600e13          	li	t3,22
8000164c:	00000213          	li	tp,0
80001650:	00009117          	auipc	sp,0x9
80001654:	52c10113          	add	sp,sp,1324 # 8000ab7c <tdat>
80001658:	00000013          	nop
8000165c:	01100f93          	li	t6,17
80001660:	00000013          	nop
80001664:	01f11423          	sh	t6,8(sp)
80001668:	00811183          	lh	gp,8(sp)
8000166c:	01100e93          	li	t4,17
80001670:	07d19463          	bne	gp,t4,800016d8 <fail>
80001674:	00120213          	add	tp,tp,1 # 1 <_entry_offset+0x1>
80001678:	00200293          	li	t0,2
8000167c:	fc521ae3          	bne	tp,t0,80001650 <test_22+0x8>

80001680 <test_23>:
80001680:	01700e13          	li	t3,23
80001684:	00000213          	li	tp,0
80001688:	00009117          	auipc	sp,0x9
8000168c:	4f410113          	add	sp,sp,1268 # 8000ab7c <tdat>
80001690:	00000013          	nop
80001694:	00000013          	nop
80001698:	00003fb7          	lui	t6,0x3
8000169c:	001f8f93          	add	t6,t6,1 # 3001 <_entry_offset+0x3001>
800016a0:	01f11523          	sh	t6,10(sp)
800016a4:	00a11183          	lh	gp,10(sp)
800016a8:	00003eb7          	lui	t4,0x3
800016ac:	001e8e93          	add	t4,t4,1 # 3001 <_entry_offset+0x3001>
800016b0:	03d19463          	bne	gp,t4,800016d8 <fail>
800016b4:	00120213          	add	tp,tp,1 # 1 <_entry_offset+0x1>
800016b8:	00200293          	li	t0,2
800016bc:	fc5216e3          	bne	tp,t0,80001688 <test_23+0x8>
800016c0:	0000c537          	lui	a0,0xc
800016c4:	eef50513          	add	a0,a0,-273 # beef <_entry_offset+0xbeef>
800016c8:	00009597          	auipc	a1,0x9
800016cc:	4b458593          	add	a1,a1,1204 # 8000ab7c <tdat>
800016d0:	00a59323          	sh	a0,6(a1)
800016d4:	0100006f          	j	800016e4 <pass>

800016d8 <fail>:
800016d8:	fff00513          	li	a0,-1
800016dc:	00100073          	ebreak
800016e0:	ff9ff06f          	j	800016d8 <fail>

800016e4 <pass>:
800016e4:	00000513          	li	a0,0
800016e8:	00008067          	ret

800016ec <mul>:
800016ec:	00008fb7          	lui	t6,0x8
800016f0:	e00f8f93          	add	t6,t6,-512 # 7e00 <_entry_offset+0x7e00>
800016f4:	b6db7137          	lui	sp,0xb6db7
800016f8:	db710113          	add	sp,sp,-585 # b6db6db7 <_end+0x36da3db7>
800016fc:	022f81b3          	mul	gp,t6,sp
80001700:	00001eb7          	lui	t4,0x1
80001704:	200e8e93          	add	t4,t4,512 # 1200 <_entry_offset+0x1200>
80001708:	02000e13          	li	t3,32
8000170c:	4bd19463          	bne	gp,t4,80001bb4 <fail>

80001710 <test_33>:
80001710:	00008fb7          	lui	t6,0x8
80001714:	fc0f8f93          	add	t6,t6,-64 # 7fc0 <_entry_offset+0x7fc0>
80001718:	b6db7137          	lui	sp,0xb6db7
8000171c:	db710113          	add	sp,sp,-585 # b6db6db7 <_end+0x36da3db7>
80001720:	022f81b3          	mul	gp,t6,sp
80001724:	00001eb7          	lui	t4,0x1
80001728:	240e8e93          	add	t4,t4,576 # 1240 <_entry_offset+0x1240>
8000172c:	02100e13          	li	t3,33
80001730:	49d19263          	bne	gp,t4,80001bb4 <fail>

80001734 <test_2>:
80001734:	00000f93          	li	t6,0
80001738:	00000113          	li	sp,0
8000173c:	022f81b3          	mul	gp,t6,sp
80001740:	00000e93          	li	t4,0
80001744:	00200e13          	li	t3,2
80001748:	47d19663          	bne	gp,t4,80001bb4 <fail>

8000174c <test_3>:
8000174c:	00100f93          	li	t6,1
80001750:	00100113          	li	sp,1
80001754:	022f81b3          	mul	gp,t6,sp
80001758:	00100e93          	li	t4,1
8000175c:	00300e13          	li	t3,3
80001760:	45d19a63          	bne	gp,t4,80001bb4 <fail>

80001764 <test_4>:
80001764:	00300f93          	li	t6,3
80001768:	00700113          	li	sp,7
8000176c:	022f81b3          	mul	gp,t6,sp
80001770:	01500e93          	li	t4,21
80001774:	00400e13          	li	t3,4
80001778:	43d19e63          	bne	gp,t4,80001bb4 <fail>

8000177c <test_5>:
8000177c:	00000f93          	li	t6,0
80001780:	ffff8137          	lui	sp,0xffff8
80001784:	022f81b3          	mul	gp,t6,sp
80001788:	00000e93          	li	t4,0
8000178c:	00500e13          	li	t3,5
80001790:	43d19263          	bne	gp,t4,80001bb4 <fail>

80001794 <test_6>:
80001794:	80000fb7          	lui	t6,0x80000
80001798:	00000113          	li	sp,0
8000179c:	022f81b3          	mul	gp,t6,sp
800017a0:	00000e93          	li	t4,0
800017a4:	00600e13          	li	t3,6
800017a8:	41d19663          	bne	gp,t4,80001bb4 <fail>

800017ac <test_7>:
800017ac:	80000fb7          	lui	t6,0x80000
800017b0:	ffff8137          	lui	sp,0xffff8
800017b4:	022f81b3          	mul	gp,t6,sp
800017b8:	00000e93          	li	t4,0
800017bc:	00700e13          	li	t3,7
800017c0:	3fd19a63          	bne	gp,t4,80001bb4 <fail>

800017c4 <test_30>:
800017c4:	aaaabfb7          	lui	t6,0xaaaab
800017c8:	aabf8f93          	add	t6,t6,-1365 # aaaaaaab <_end+0x2aa97aab>
800017cc:	00030137          	lui	sp,0x30
800017d0:	e7d10113          	add	sp,sp,-387 # 2fe7d <_entry_offset+0x2fe7d>
800017d4:	022f81b3          	mul	gp,t6,sp
800017d8:	00010eb7          	lui	t4,0x10
800017dc:	f7fe8e93          	add	t4,t4,-129 # ff7f <_entry_offset+0xff7f>
800017e0:	01e00e13          	li	t3,30
800017e4:	3dd19863          	bne	gp,t4,80001bb4 <fail>

800017e8 <test_31>:
800017e8:	00030fb7          	lui	t6,0x30
800017ec:	e7df8f93          	add	t6,t6,-387 # 2fe7d <_entry_offset+0x2fe7d>
800017f0:	aaaab137          	lui	sp,0xaaaab
800017f4:	aab10113          	add	sp,sp,-1365 # aaaaaaab <_end+0x2aa97aab>
800017f8:	022f81b3          	mul	gp,t6,sp
800017fc:	00010eb7          	lui	t4,0x10
80001800:	f7fe8e93          	add	t4,t4,-129 # ff7f <_entry_offset+0xff7f>
80001804:	01f00e13          	li	t3,31
80001808:	3bd19663          	bne	gp,t4,80001bb4 <fail>

8000180c <test_34>:
8000180c:	ff000fb7          	lui	t6,0xff000
80001810:	ff000137          	lui	sp,0xff000
80001814:	022f81b3          	mul	gp,t6,sp
80001818:	00000e93          	li	t4,0
8000181c:	02200e13          	li	t3,34
80001820:	39d19a63          	bne	gp,t4,80001bb4 <fail>

80001824 <test_35>:
80001824:	fff00f93          	li	t6,-1
80001828:	fff00113          	li	sp,-1
8000182c:	022f81b3          	mul	gp,t6,sp
80001830:	00100e93          	li	t4,1
80001834:	02300e13          	li	t3,35
80001838:	37d19e63          	bne	gp,t4,80001bb4 <fail>

8000183c <test_36>:
8000183c:	fff00f93          	li	t6,-1
80001840:	00100113          	li	sp,1
80001844:	022f81b3          	mul	gp,t6,sp
80001848:	fff00e93          	li	t4,-1
8000184c:	02400e13          	li	t3,36
80001850:	37d19263          	bne	gp,t4,80001bb4 <fail>

80001854 <test_37>:
80001854:	00100f93          	li	t6,1
80001858:	fff00113          	li	sp,-1
8000185c:	022f81b3          	mul	gp,t6,sp
80001860:	fff00e93          	li	t4,-1
80001864:	02500e13          	li	t3,37
80001868:	35d19663          	bne	gp,t4,80001bb4 <fail>

8000186c <test_8>:
8000186c:	00d00f93          	li	t6,13
80001870:	00b00113          	li	sp,11
80001874:	022f8fb3          	mul	t6,t6,sp
80001878:	08f00e93          	li	t4,143
8000187c:	00800e13          	li	t3,8
80001880:	33df9a63          	bne	t6,t4,80001bb4 <fail>

80001884 <test_9>:
80001884:	00e00f93          	li	t6,14
80001888:	00b00113          	li	sp,11
8000188c:	022f8133          	mul	sp,t6,sp
80001890:	09a00e93          	li	t4,154
80001894:	00900e13          	li	t3,9
80001898:	31d11e63          	bne	sp,t4,80001bb4 <fail>

8000189c <test_10>:
8000189c:	00d00f93          	li	t6,13
800018a0:	03ff8fb3          	mul	t6,t6,t6
800018a4:	0a900e93          	li	t4,169
800018a8:	00a00e13          	li	t3,10
800018ac:	31df9463          	bne	t6,t4,80001bb4 <fail>

800018b0 <test_11>:
800018b0:	00000213          	li	tp,0
800018b4:	00d00f93          	li	t6,13
800018b8:	00b00113          	li	sp,11
800018bc:	022f81b3          	mul	gp,t6,sp
800018c0:	00018313          	mv	t1,gp
800018c4:	00120213          	add	tp,tp,1 # 1 <_entry_offset+0x1>
800018c8:	00200293          	li	t0,2
800018cc:	fe5214e3          	bne	tp,t0,800018b4 <test_11+0x4>
800018d0:	08f00e93          	li	t4,143
800018d4:	00b00e13          	li	t3,11
800018d8:	2dd31e63          	bne	t1,t4,80001bb4 <fail>

800018dc <test_12>:
800018dc:	00000213          	li	tp,0
800018e0:	00e00f93          	li	t6,14
800018e4:	00b00113          	li	sp,11
800018e8:	022f81b3          	mul	gp,t6,sp
800018ec:	00000013          	nop
800018f0:	00018313          	mv	t1,gp
800018f4:	00120213          	add	tp,tp,1 # 1 <_entry_offset+0x1>
800018f8:	00200293          	li	t0,2
800018fc:	fe5212e3          	bne	tp,t0,800018e0 <test_12+0x4>
80001900:	09a00e93          	li	t4,154
80001904:	00c00e13          	li	t3,12
80001908:	2bd31663          	bne	t1,t4,80001bb4 <fail>

8000190c <test_13>:
8000190c:	00000213          	li	tp,0
80001910:	00f00f93          	li	t6,15
80001914:	00b00113          	li	sp,11
80001918:	022f81b3          	mul	gp,t6,sp
8000191c:	00000013          	nop
80001920:	00000013          	nop
80001924:	00018313          	mv	t1,gp
80001928:	00120213          	add	tp,tp,1 # 1 <_entry_offset+0x1>
8000192c:	00200293          	li	t0,2
80001930:	fe5210e3          	bne	tp,t0,80001910 <test_13+0x4>
80001934:	0a500e93          	li	t4,165
80001938:	00d00e13          	li	t3,13
8000193c:	27d31c63          	bne	t1,t4,80001bb4 <fail>

80001940 <test_14>:
80001940:	00000213          	li	tp,0
80001944:	00d00f93          	li	t6,13
80001948:	00b00113          	li	sp,11
8000194c:	022f81b3          	mul	gp,t6,sp
80001950:	00120213          	add	tp,tp,1 # 1 <_entry_offset+0x1>
80001954:	00200293          	li	t0,2
80001958:	fe5216e3          	bne	tp,t0,80001944 <test_14+0x4>
8000195c:	08f00e93          	li	t4,143
80001960:	00e00e13          	li	t3,14
80001964:	25d19863          	bne	gp,t4,80001bb4 <fail>

80001968 <test_15>:
80001968:	00000213          	li	tp,0
8000196c:	00e00f93          	li	t6,14
80001970:	00b00113          	li	sp,11
80001974:	00000013          	nop
80001978:	022f81b3          	mul	gp,t6,sp
8000197c:	00120213          	add	tp,tp,1 # 1 <_entry_offset+0x1>
80001980:	00200293          	li	t0,2
80001984:	fe5214e3          	bne	tp,t0,8000196c <test_15+0x4>
80001988:	09a00e93          	li	t4,154
8000198c:	00f00e13          	li	t3,15
80001990:	23d19263          	bne	gp,t4,80001bb4 <fail>

80001994 <test_16>:
80001994:	00000213          	li	tp,0
80001998:	00f00f93          	li	t6,15
8000199c:	00b00113          	li	sp,11
800019a0:	00000013          	nop
800019a4:	00000013          	nop
800019a8:	022f81b3          	mul	gp,t6,sp
800019ac:	00120213          	add	tp,tp,1 # 1 <_entry_offset+0x1>
800019b0:	00200293          	li	t0,2
800019b4:	fe5212e3          	bne	tp,t0,80001998 <test_16+0x4>
800019b8:	0a500e93          	li	t4,165
800019bc:	01000e13          	li	t3,16
800019c0:	1fd19a63          	bne	gp,t4,80001bb4 <fail>

800019c4 <test_17>:
800019c4:	00000213          	li	tp,0
800019c8:	00d00f93          	li	t6,13
800019cc:	00000013          	nop
800019d0:	00b00113          	li	sp,11
800019d4:	022f81b3          	mul	gp,t6,sp
800019d8:	00120213          	add	tp,tp,1 # 1 <_entry_offset+0x1>
800019dc:	00200293          	li	t0,2
800019e0:	fe5214e3          	bne	tp,t0,800019c8 <test_17+0x4>
800019e4:	08f00e93          	li	t4,143
800019e8:	01100e13          	li	t3,17
800019ec:	1dd19463          	bne	gp,t4,80001bb4 <fail>

800019f0 <test_18>:
800019f0:	00000213          	li	tp,0
800019f4:	00e00f93          	li	t6,14
800019f8:	00000013          	nop
800019fc:	00b00113          	li	sp,11
80001a00:	00000013          	nop
80001a04:	022f81b3          	mul	gp,t6,sp
80001a08:	00120213          	add	tp,tp,1 # 1 <_entry_offset+0x1>
80001a0c:	00200293          	li	t0,2
80001a10:	fe5212e3          	bne	tp,t0,800019f4 <test_18+0x4>
80001a14:	09a00e93          	li	t4,154
80001a18:	01200e13          	li	t3,18
80001a1c:	19d19c63          	bne	gp,t4,80001bb4 <fail>

80001a20 <test_19>:
80001a20:	00000213          	li	tp,0
80001a24:	00f00f93          	li	t6,15
80001a28:	00000013          	nop
80001a2c:	00000013          	nop
80001a30:	00b00113          	li	sp,11
80001a34:	022f81b3          	mul	gp,t6,sp
80001a38:	00120213          	add	tp,tp,1 # 1 <_entry_offset+0x1>
80001a3c:	00200293          	li	t0,2
80001a40:	fe5212e3          	bne	tp,t0,80001a24 <test_19+0x4>
80001a44:	0a500e93          	li	t4,165
80001a48:	01300e13          	li	t3,19
80001a4c:	17d19463          	bne	gp,t4,80001bb4 <fail>

80001a50 <test_20>:
80001a50:	00000213          	li	tp,0
80001a54:	00b00113          	li	sp,11
80001a58:	00d00f93          	li	t6,13
80001a5c:	022f81b3          	mul	gp,t6,sp
80001a60:	00120213          	add	tp,tp,1 # 1 <_entry_offset+0x1>
80001a64:	00200293          	li	t0,2
80001a68:	fe5216e3          	bne	tp,t0,80001a54 <test_20+0x4>
80001a6c:	08f00e93          	li	t4,143
80001a70:	01400e13          	li	t3,20
80001a74:	15d19063          	bne	gp,t4,80001bb4 <fail>

80001a78 <test_21>:
80001a78:	00000213          	li	tp,0
80001a7c:	00b00113          	li	sp,11
80001a80:	00e00f93          	li	t6,14
80001a84:	00000013          	nop
80001a88:	022f81b3          	mul	gp,t6,sp
80001a8c:	00120213          	add	tp,tp,1 # 1 <_entry_offset+0x1>
80001a90:	00200293          	li	t0,2
80001a94:	fe5214e3          	bne	tp,t0,80001a7c <test_21+0x4>
80001a98:	09a00e93          	li	t4,154
80001a9c:	01500e13          	li	t3,21
80001aa0:	11d19a63          	bne	gp,t4,80001bb4 <fail>

80001aa4 <test_22>:
80001aa4:	00000213          	li	tp,0
80001aa8:	00b00113          	li	sp,11
80001aac:	00f00f93          	li	t6,15
80001ab0:	00000013          	nop
80001ab4:	00000013          	nop
80001ab8:	022f81b3          	mul	gp,t6,sp
80001abc:	00120213          	add	tp,tp,1 # 1 <_entry_offset+0x1>
80001ac0:	00200293          	li	t0,2
80001ac4:	fe5212e3          	bne	tp,t0,80001aa8 <test_22+0x4>
80001ac8:	0a500e93          	li	t4,165
80001acc:	01600e13          	li	t3,22
80001ad0:	0fd19263          	bne	gp,t4,80001bb4 <fail>

80001ad4 <test_23>:
80001ad4:	00000213          	li	tp,0
80001ad8:	00b00113          	li	sp,11
80001adc:	00000013          	nop
80001ae0:	00d00f93          	li	t6,13
80001ae4:	022f81b3          	mul	gp,t6,sp
80001ae8:	00120213          	add	tp,tp,1 # 1 <_entry_offset+0x1>
80001aec:	00200293          	li	t0,2
80001af0:	fe5214e3          	bne	tp,t0,80001ad8 <test_23+0x4>
80001af4:	08f00e93          	li	t4,143
80001af8:	01700e13          	li	t3,23
80001afc:	0bd19c63          	bne	gp,t4,80001bb4 <fail>

80001b00 <test_24>:
80001b00:	00000213          	li	tp,0
80001b04:	00b00113          	li	sp,11
80001b08:	00000013          	nop
80001b0c:	00e00f93          	li	t6,14
80001b10:	00000013          	nop
80001b14:	022f81b3          	mul	gp,t6,sp
80001b18:	00120213          	add	tp,tp,1 # 1 <_entry_offset+0x1>
80001b1c:	00200293          	li	t0,2
80001b20:	fe5212e3          	bne	tp,t0,80001b04 <test_24+0x4>
80001b24:	09a00e93          	li	t4,154
80001b28:	01800e13          	li	t3,24
80001b2c:	09d19463          	bne	gp,t4,80001bb4 <fail>

80001b30 <test_25>:
80001b30:	00000213          	li	tp,0
80001b34:	00b00113          	li	sp,11
80001b38:	00000013          	nop
80001b3c:	00000013          	nop
80001b40:	00f00f93          	li	t6,15
80001b44:	022f81b3          	mul	gp,t6,sp
80001b48:	00120213          	add	tp,tp,1 # 1 <_entry_offset+0x1>
80001b4c:	00200293          	li	t0,2
80001b50:	fe5212e3          	bne	tp,t0,80001b34 <test_25+0x4>
80001b54:	0a500e93          	li	t4,165
80001b58:	01900e13          	li	t3,25
80001b5c:	05d19c63          	bne	gp,t4,80001bb4 <fail>

80001b60 <test_26>:
80001b60:	01f00f93          	li	t6,31
80001b64:	03f00133          	mul	sp,zero,t6
80001b68:	00000e93          	li	t4,0
80001b6c:	01a00e13          	li	t3,26
80001b70:	05d11263          	bne	sp,t4,80001bb4 <fail>

80001b74 <test_27>:
80001b74:	02000f93          	li	t6,32
80001b78:	020f8133          	mul	sp,t6,zero
80001b7c:	00000e93          	li	t4,0
80001b80:	01b00e13          	li	t3,27
80001b84:	03d11863          	bne	sp,t4,80001bb4 <fail>

80001b88 <test_28>:
80001b88:	02000fb3          	mul	t6,zero,zero
80001b8c:	00000e93          	li	t4,0
80001b90:	01c00e13          	li	t3,28
80001b94:	03df9063          	bne	t6,t4,80001bb4 <fail>

80001b98 <test_29>:
80001b98:	02100f93          	li	t6,33
80001b9c:	02200113          	li	sp,34
80001ba0:	022f8033          	mul	zero,t6,sp
80001ba4:	00000e93          	li	t4,0
80001ba8:	01d00e13          	li	t3,29
80001bac:	01d01463          	bne	zero,t4,80001bb4 <fail>
80001bb0:	0100006f          	j	80001bc0 <pass>

80001bb4 <fail>:
80001bb4:	fff00513          	li	a0,-1
80001bb8:	00100073          	ebreak
80001bbc:	ff9ff06f          	j	80001bb4 <fail>

80001bc0 <pass>:
80001bc0:	00000513          	li	a0,0
80001bc4:	00008067          	ret

80001bc8 <csrrc>:
80001bc8:	b9dd78b7          	lui	a7,0xb9dd7
80001bcc:	87088893          	add	a7,a7,-1936 # b9dd6870 <_end+0x39dc3870>
80001bd0:	30589073          	csrw	mtvec,a7
80001bd4:	43b878b7          	lui	a7,0x43b87
80001bd8:	a9888893          	add	a7,a7,-1384 # 43b86a98 <_entry_offset+0x43b86a98>
80001bdc:	3058b073          	csrc	mtvec,a7
80001be0:	30502e73          	csrr	t3,mtvec
80001be4:	b8450fb7          	lui	t6,0xb8450
80001be8:	060f8f93          	add	t6,t6,96 # b8450060 <_end+0x3843d060>
80001bec:	6dfe1e63          	bne	t3,t6,800022c8 <fail>

80001bf0 <test_1>:
80001bf0:	0ffce1b7          	lui	gp,0xffce
80001bf4:	88818193          	add	gp,gp,-1912 # ffcd888 <_entry_offset+0xffcd888>
80001bf8:	30519073          	csrw	mtvec,gp
80001bfc:	211321b7          	lui	gp,0x21132
80001c00:	e7818193          	add	gp,gp,-392 # 21131e78 <_entry_offset+0x21131e78>
80001c04:	3051b073          	csrc	mtvec,gp
80001c08:	305027f3          	csrr	a5,mtvec
80001c0c:	0eeccfb7          	lui	t6,0xeecc
80001c10:	080f8f93          	add	t6,t6,128 # eecc080 <_entry_offset+0xeecc080>
80001c14:	6bf79a63          	bne	a5,t6,800022c8 <fail>

80001c18 <test_2>:
80001c18:	0c10b137          	lui	sp,0xc10b
80001c1c:	e8010113          	add	sp,sp,-384 # c10ae80 <_entry_offset+0xc10ae80>
80001c20:	30511073          	csrw	mtvec,sp
80001c24:	6883a137          	lui	sp,0x6883a
80001c28:	7a010113          	add	sp,sp,1952 # 6883a7a0 <_entry_offset+0x6883a7a0>
80001c2c:	30513073          	csrc	mtvec,sp
80001c30:	30502a73          	csrr	s4,mtvec
80001c34:	04101fb7          	lui	t6,0x4101
80001c38:	800f8f93          	add	t6,t6,-2048 # 4100800 <_entry_offset+0x4100800>
80001c3c:	69fa1663          	bne	s4,t6,800022c8 <fail>

80001c40 <test_3>:
80001c40:	8018d337          	lui	t1,0x8018d
80001c44:	9b530313          	add	t1,t1,-1611 # 8018c9b5 <_end+0x1799b5>
80001c48:	30031073          	csrw	mstatus,t1
80001c4c:	00390337          	lui	t1,0x390
80001c50:	f3830313          	add	t1,t1,-200 # 38ff38 <_entry_offset+0x38ff38>
80001c54:	30033073          	csrc	mstatus,t1
80001c58:	30002f73          	csrr	t5,mstatus
80001c5c:	80000fb7          	lui	t6,0x80000
80001c60:	085f8f93          	add	t6,t6,133 # 80000085 <test_6+0x15>
80001c64:	67ff1263          	bne	t5,t6,800022c8 <fail>

80001c68 <test_4>:
80001c68:	800009b7          	lui	s3,0x80000
80001c6c:	00998993          	add	s3,s3,9 # 80000009 <_start+0x9>
80001c70:	34299073          	csrw	mcause,s3
80001c74:	800009b7          	lui	s3,0x80000
80001c78:	00598993          	add	s3,s3,5 # 80000005 <_start+0x5>
80001c7c:	3429b073          	csrc	mcause,s3
80001c80:	342024f3          	csrr	s1,mcause
80001c84:	00800f93          	li	t6,8
80001c88:	65f49063          	bne	s1,t6,800022c8 <fail>

80001c8c <test_5>:
80001c8c:	80000137          	lui	sp,0x80000
80001c90:	00910113          	add	sp,sp,9 # 80000009 <_start+0x9>
80001c94:	34211073          	csrw	mcause,sp
80001c98:	00000113          	li	sp,0
80001c9c:	34213073          	csrc	mcause,sp
80001ca0:	34202af3          	csrr	s5,mcause
80001ca4:	80000fb7          	lui	t6,0x80000
80001ca8:	009f8f93          	add	t6,t6,9 # 80000009 <_start+0x9>
80001cac:	61fa9e63          	bne	s5,t6,800022c8 <fail>

80001cb0 <test_6>:
80001cb0:	00800e93          	li	t4,8
80001cb4:	342e9073          	csrw	mcause,t4
80001cb8:	80000eb7          	lui	t4,0x80000
80001cbc:	005e8e93          	add	t4,t4,5 # 80000005 <_start+0x5>
80001cc0:	342eb073          	csrc	mcause,t4
80001cc4:	34202c73          	csrr	s8,mcause
80001cc8:	00800f93          	li	t6,8
80001ccc:	5ffc1e63          	bne	s8,t6,800022c8 <fail>

80001cd0 <test_7>:
80001cd0:	8033d9b7          	lui	s3,0x8033d
80001cd4:	cde98993          	add	s3,s3,-802 # 8033ccde <_end+0x329cde>
80001cd8:	30099073          	csrw	mstatus,s3
80001cdc:	8011d9b7          	lui	s3,0x8011d
80001ce0:	b0298993          	add	s3,s3,-1278 # 8011cb02 <_end+0x109b02>
80001ce4:	3009b073          	csrc	mstatus,s3
80001ce8:	30002c73          	csrr	s8,mstatus
80001cec:	00220fb7          	lui	t6,0x220
80001cf0:	4dcf8f93          	add	t6,t6,1244 # 2204dc <_entry_offset+0x2204dc>
80001cf4:	5dfc1a63          	bne	s8,t6,800022c8 <fail>

80001cf8 <test_8>:
80001cf8:	5754b7b7          	lui	a5,0x5754b
80001cfc:	44c78793          	add	a5,a5,1100 # 5754b44c <_entry_offset+0x5754b44c>
80001d00:	30579073          	csrw	mtvec,a5
80001d04:	cb0687b7          	lui	a5,0xcb068
80001d08:	df878793          	add	a5,a5,-520 # cb067df8 <_end+0x4b054df8>
80001d0c:	3057b073          	csrc	mtvec,a5
80001d10:	30502373          	csrr	t1,mtvec
80001d14:	14508fb7          	lui	t6,0x14508
80001d18:	004f8f93          	add	t6,t6,4 # 14508004 <_entry_offset+0x14508004>
80001d1c:	5bf31663          	bne	t1,t6,800022c8 <fail>

80001d20 <test_9>:
80001d20:	80000d37          	lui	s10,0x80000
80001d24:	006d0d13          	add	s10,s10,6 # 80000006 <_start+0x6>
80001d28:	342d1073          	csrw	mcause,s10
80001d2c:	80000d37          	lui	s10,0x80000
80001d30:	00bd0d13          	add	s10,s10,11 # 8000000b <_start+0xb>
80001d34:	342d3073          	csrc	mcause,s10
80001d38:	34202873          	csrr	a6,mcause
80001d3c:	00400f93          	li	t6,4
80001d40:	59f81463          	bne	a6,t6,800022c8 <fail>

80001d44 <test_10>:
80001d44:	b9ce0d37          	lui	s10,0xb9ce0
80001d48:	340d0d13          	add	s10,s10,832 # b9ce0340 <_end+0x39ccd340>
80001d4c:	305d1073          	csrw	mtvec,s10
80001d50:	b15ded37          	lui	s10,0xb15de
80001d54:	748d0d13          	add	s10,s10,1864 # b15de748 <_end+0x315cb748>
80001d58:	305d3073          	csrc	mtvec,s10
80001d5c:	30502a73          	csrr	s4,mtvec
80001d60:	08820fb7          	lui	t6,0x8820
80001d64:	57fa1263          	bne	s4,t6,800022c8 <fail>

80001d68 <test_11>:
80001d68:	80000bb7          	lui	s7,0x80000
80001d6c:	001b8b93          	add	s7,s7,1 # 80000001 <_start+0x1>
80001d70:	342b9073          	csrw	mcause,s7
80001d74:	80000bb7          	lui	s7,0x80000
80001d78:	00db8b93          	add	s7,s7,13 # 8000000d <_start+0xd>
80001d7c:	342bb073          	csrc	mcause,s7
80001d80:	34202673          	csrr	a2,mcause
80001d84:	00000f93          	li	t6,0
80001d88:	55f61063          	bne	a2,t6,800022c8 <fail>

80001d8c <test_12>:
80001d8c:	6fa33e37          	lui	t3,0x6fa33
80001d90:	c70e0e13          	add	t3,t3,-912 # 6fa32c70 <_entry_offset+0x6fa32c70>
80001d94:	305e1073          	csrw	mtvec,t3
80001d98:	421b3e37          	lui	t3,0x421b3
80001d9c:	ca8e0e13          	add	t3,t3,-856 # 421b2ca8 <_entry_offset+0x421b2ca8>
80001da0:	305e3073          	csrc	mtvec,t3
80001da4:	305027f3          	csrr	a5,mtvec
80001da8:	2da00fb7          	lui	t6,0x2da00
80001dac:	050f8f93          	add	t6,t6,80 # 2da00050 <_entry_offset+0x2da00050>
80001db0:	51f79c63          	bne	a5,t6,800022c8 <fail>

80001db4 <test_13>:
80001db4:	fb7c0837          	lui	a6,0xfb7c0
80001db8:	70380813          	add	a6,a6,1795 # fb7c0703 <_end+0x7b7ad703>
80001dbc:	34181073          	csrw	mepc,a6
80001dc0:	99985837          	lui	a6,0x99985
80001dc4:	8a080813          	add	a6,a6,-1888 # 999848a0 <_end+0x199718a0>
80001dc8:	34183073          	csrc	mepc,a6
80001dcc:	34102373          	csrr	t1,mepc
80001dd0:	62640fb7          	lui	t6,0x62640
80001dd4:	703f8f93          	add	t6,t6,1795 # 62640703 <_entry_offset+0x62640703>
80001dd8:	4ff31863          	bne	t1,t6,800022c8 <fail>

80001ddc <test_14>:
80001ddc:	3d6f1437          	lui	s0,0x3d6f1
80001de0:	7d040413          	add	s0,s0,2000 # 3d6f17d0 <_entry_offset+0x3d6f17d0>
80001de4:	34141073          	csrw	mepc,s0
80001de8:	28dd7437          	lui	s0,0x28dd7
80001dec:	e6d40413          	add	s0,s0,-403 # 28dd6e6d <_entry_offset+0x28dd6e6d>
80001df0:	34143073          	csrc	mepc,s0
80001df4:	341024f3          	csrr	s1,mepc
80001df8:	15221fb7          	lui	t6,0x15221
80001dfc:	190f8f93          	add	t6,t6,400 # 15221190 <_entry_offset+0x15221190>
80001e00:	4df49463          	bne	s1,t6,800022c8 <fail>

80001e04 <test_15>:
80001e04:	80000937          	lui	s2,0x80000
80001e08:	00790913          	add	s2,s2,7 # 80000007 <_start+0x7>
80001e0c:	34291073          	csrw	mcause,s2
80001e10:	80000937          	lui	s2,0x80000
80001e14:	00f90913          	add	s2,s2,15 # 8000000f <_start+0xf>
80001e18:	34293073          	csrc	mcause,s2
80001e1c:	34202273          	csrr	tp,mcause
80001e20:	00000f93          	li	t6,0
80001e24:	4bf21263          	bne	tp,t6,800022c8 <fail>

80001e28 <test_16>:
80001e28:	00100f13          	li	t5,1
80001e2c:	342f1073          	csrw	mcause,t5
80001e30:	80000f37          	lui	t5,0x80000
80001e34:	00cf0f13          	add	t5,t5,12 # 8000000c <_start+0xc>
80001e38:	342f3073          	csrc	mcause,t5
80001e3c:	34202a73          	csrr	s4,mcause
80001e40:	00100f93          	li	t6,1
80001e44:	49fa1263          	bne	s4,t6,800022c8 <fail>

80001e48 <test_17>:
80001e48:	f3cc7537          	lui	a0,0xf3cc7
80001e4c:	a9450513          	add	a0,a0,-1388 # f3cc6a94 <_end+0x73cb3a94>
80001e50:	30551073          	csrw	mtvec,a0
80001e54:	b7d80537          	lui	a0,0xb7d80
80001e58:	c1450513          	add	a0,a0,-1004 # b7d7fc14 <_end+0x37d6cc14>
80001e5c:	30553073          	csrc	mtvec,a0
80001e60:	30502473          	csrr	s0,mtvec
80001e64:	40080fb7          	lui	t6,0x40080
80001e68:	280f8f93          	add	t6,t6,640 # 40080280 <_entry_offset+0x40080280>
80001e6c:	45f41e63          	bne	s0,t6,800022c8 <fail>

80001e70 <test_18>:
80001e70:	04c4d337          	lui	t1,0x4c4d
80001e74:	2d830313          	add	t1,t1,728 # 4c4d2d8 <_entry_offset+0x4c4d2d8>
80001e78:	30531073          	csrw	mtvec,t1
80001e7c:	37cf7337          	lui	t1,0x37cf7
80001e80:	42030313          	add	t1,t1,1056 # 37cf7420 <_entry_offset+0x37cf7420>
80001e84:	30533073          	csrc	mtvec,t1
80001e88:	30502373          	csrr	t1,mtvec
80001e8c:	00008fb7          	lui	t6,0x8
80001e90:	2d8f8f93          	add	t6,t6,728 # 82d8 <_entry_offset+0x82d8>
80001e94:	43f31a63          	bne	t1,t6,800022c8 <fail>

80001e98 <test_19>:
80001e98:	71b2e337          	lui	t1,0x71b2e
80001e9c:	c1830313          	add	t1,t1,-1000 # 71b2dc18 <_entry_offset+0x71b2dc18>
80001ea0:	30531073          	csrw	mtvec,t1
80001ea4:	2539d337          	lui	t1,0x2539d
80001ea8:	b9430313          	add	t1,t1,-1132 # 2539cb94 <_entry_offset+0x2539cb94>
80001eac:	30533073          	csrc	mtvec,t1
80001eb0:	30502bf3          	csrr	s7,mtvec
80001eb4:	50821fb7          	lui	t6,0x50821
80001eb8:	408f8f93          	add	t6,t6,1032 # 50821408 <_entry_offset+0x50821408>
80001ebc:	41fb9663          	bne	s7,t6,800022c8 <fail>

80001ec0 <test_20>:
80001ec0:	00600513          	li	a0,6
80001ec4:	34251073          	csrw	mcause,a0
80001ec8:	00c00513          	li	a0,12
80001ecc:	34253073          	csrc	mcause,a0
80001ed0:	34202573          	csrr	a0,mcause
80001ed4:	00200f93          	li	t6,2
80001ed8:	3ff51863          	bne	a0,t6,800022c8 <fail>

80001edc <test_21>:
80001edc:	80000337          	lui	t1,0x80000
80001ee0:	00530313          	add	t1,t1,5 # 80000005 <_start+0x5>
80001ee4:	34231073          	csrw	mcause,t1
80001ee8:	80000337          	lui	t1,0x80000
80001eec:	00430313          	add	t1,t1,4 # 80000004 <_start+0x4>
80001ef0:	34233073          	csrc	mcause,t1
80001ef4:	34202373          	csrr	t1,mcause
80001ef8:	00100f93          	li	t6,1
80001efc:	3df31663          	bne	t1,t6,800022c8 <fail>

80001f00 <test_22>:
80001f00:	e78f7137          	lui	sp,0xe78f7
80001f04:	0d010113          	add	sp,sp,208 # e78f70d0 <_end+0x678e40d0>
80001f08:	34111073          	csrw	mepc,sp
80001f0c:	5a38b137          	lui	sp,0x5a38b
80001f10:	25b10113          	add	sp,sp,603 # 5a38b25b <_entry_offset+0x5a38b25b>
80001f14:	34113073          	csrc	mepc,sp
80001f18:	34102173          	csrr	sp,mepc
80001f1c:	a5874fb7          	lui	t6,0xa5874
80001f20:	080f8f93          	add	t6,t6,128 # a5874080 <_end+0x25861080>
80001f24:	3bf11263          	bne	sp,t6,800022c8 <fail>

80001f28 <test_23>:
80001f28:	5088e8b7          	lui	a7,0x5088e
80001f2c:	35088893          	add	a7,a7,848 # 5088e350 <_entry_offset+0x5088e350>
80001f30:	30589073          	csrw	mtvec,a7
80001f34:	86c4a8b7          	lui	a7,0x86c4a
80001f38:	ba888893          	add	a7,a7,-1112 # 86c49ba8 <_end+0x6c36ba8>
80001f3c:	3058b073          	csrc	mtvec,a7
80001f40:	305028f3          	csrr	a7,mtvec
80001f44:	50086fb7          	lui	t6,0x50086
80001f48:	050f8f93          	add	t6,t6,80 # 50086050 <_entry_offset+0x50086050>
80001f4c:	37f89e63          	bne	a7,t6,800022c8 <fail>

80001f50 <test_24>:
80001f50:	c1914db7          	lui	s11,0xc1914
80001f54:	c95d8d93          	add	s11,s11,-875 # c1913c95 <_end+0x41900c95>
80001f58:	341d9073          	csrw	mepc,s11
80001f5c:	04c59db7          	lui	s11,0x4c59
80001f60:	273d8d93          	add	s11,s11,627 # 4c59273 <_entry_offset+0x4c59273>
80001f64:	341db073          	csrc	mepc,s11
80001f68:	34102df3          	csrr	s11,mepc
80001f6c:	c1103fb7          	lui	t6,0xc1103
80001f70:	c84f8f93          	add	t6,t6,-892 # c1102c84 <_end+0x410efc84>
80001f74:	35fd9a63          	bne	s11,t6,800022c8 <fail>

80001f78 <test_25>:
80001f78:	af1cbe37          	lui	t3,0xaf1cb
80001f7c:	64ce0e13          	add	t3,t3,1612 # af1cb64c <_end+0x2f1b864c>
80001f80:	305e1073          	csrw	mtvec,t3
80001f84:	38f78e37          	lui	t3,0x38f78
80001f88:	628e0e13          	add	t3,t3,1576 # 38f78628 <_entry_offset+0x38f78628>
80001f8c:	305e3073          	csrc	mtvec,t3
80001f90:	30502273          	csrr	tp,mtvec
80001f94:	87083fb7          	lui	t6,0x87083
80001f98:	044f8f93          	add	t6,t6,68 # 87083044 <_end+0x7070044>
80001f9c:	33f21663          	bne	tp,t6,800022c8 <fail>

80001fa0 <test_26>:
80001fa0:	80357237          	lui	tp,0x80357
80001fa4:	bba20213          	add	tp,tp,-1094 # 80356bba <_end+0x343bba>
80001fa8:	00000013          	nop
80001fac:	30021073          	csrw	mstatus,tp
80001fb0:	00000013          	nop
80001fb4:	80129237          	lui	tp,0x80129
80001fb8:	9bb20213          	add	tp,tp,-1605 # 801289bb <_end+0x1159bb>
80001fbc:	00000013          	nop
80001fc0:	30023073          	csrc	mstatus,tp
80001fc4:	00000013          	nop
80001fc8:	30002873          	csrr	a6,mstatus
80001fcc:	00000013          	nop
80001fd0:	00256fb7          	lui	t6,0x256
80001fd4:	200f8f93          	add	t6,t6,512 # 256200 <_entry_offset+0x256200>
80001fd8:	2ff81863          	bne	a6,t6,800022c8 <fail>

80001fdc <test_27>:
80001fdc:	0b5f73b7          	lui	t2,0xb5f7
80001fe0:	00638393          	add	t2,t2,6 # b5f7006 <_entry_offset+0xb5f7006>
80001fe4:	00000013          	nop
80001fe8:	00000013          	nop
80001fec:	34139073          	csrw	mepc,t2
80001ff0:	00000013          	nop
80001ff4:	00000013          	nop
80001ff8:	38db73b7          	lui	t2,0x38db7
80001ffc:	70b38393          	add	t2,t2,1803 # 38db770b <_entry_offset+0x38db770b>
80002000:	00000013          	nop
80002004:	00000013          	nop
80002008:	3413b073          	csrc	mepc,t2
8000200c:	00000013          	nop
80002010:	00000013          	nop
80002014:	341025f3          	csrr	a1,mepc
80002018:	00000013          	nop
8000201c:	00000013          	nop
80002020:	03040fb7          	lui	t6,0x3040
80002024:	004f8f93          	add	t6,t6,4 # 3040004 <_entry_offset+0x3040004>
80002028:	2bf59063          	bne	a1,t6,800022c8 <fail>

8000202c <test_28>:
8000202c:	3f8cc8b7          	lui	a7,0x3f8cc
80002030:	d0088893          	add	a7,a7,-768 # 3f8cbd00 <_entry_offset+0x3f8cbd00>
80002034:	00000013          	nop
80002038:	00000013          	nop
8000203c:	00000013          	nop
80002040:	30589073          	csrw	mtvec,a7
80002044:	00000013          	nop
80002048:	00000013          	nop
8000204c:	00000013          	nop
80002050:	024678b7          	lui	a7,0x2467
80002054:	3ac88893          	add	a7,a7,940 # 24673ac <_entry_offset+0x24673ac>
80002058:	00000013          	nop
8000205c:	00000013          	nop
80002060:	00000013          	nop
80002064:	3058b073          	csrc	mtvec,a7
80002068:	00000013          	nop
8000206c:	00000013          	nop
80002070:	00000013          	nop
80002074:	30502673          	csrr	a2,mtvec
80002078:	00000013          	nop
8000207c:	00000013          	nop
80002080:	00000013          	nop
80002084:	3d889fb7          	lui	t6,0x3d889
80002088:	c00f8f93          	add	t6,t6,-1024 # 3d888c00 <_entry_offset+0x3d888c00>
8000208c:	23f61e63          	bne	a2,t6,800022c8 <fail>

80002090 <test_29>:
80002090:	687acc37          	lui	s8,0x687ac
80002094:	aa0c0c13          	add	s8,s8,-1376 # 687abaa0 <_entry_offset+0x687abaa0>
80002098:	00000013          	nop
8000209c:	00000013          	nop
800020a0:	00000013          	nop
800020a4:	00000013          	nop
800020a8:	305c1073          	csrw	mtvec,s8
800020ac:	00000013          	nop
800020b0:	00000013          	nop
800020b4:	00000013          	nop
800020b8:	00000013          	nop
800020bc:	3f4e1c37          	lui	s8,0x3f4e1
800020c0:	c58c0c13          	add	s8,s8,-936 # 3f4e0c58 <_entry_offset+0x3f4e0c58>
800020c4:	00000013          	nop
800020c8:	00000013          	nop
800020cc:	00000013          	nop
800020d0:	00000013          	nop
800020d4:	305c3073          	csrc	mtvec,s8
800020d8:	00000013          	nop
800020dc:	00000013          	nop
800020e0:	00000013          	nop
800020e4:	00000013          	nop
800020e8:	30502673          	csrr	a2,mtvec
800020ec:	00000013          	nop
800020f0:	00000013          	nop
800020f4:	00000013          	nop
800020f8:	00000013          	nop
800020fc:	4030bfb7          	lui	t6,0x4030b
80002100:	2a0f8f93          	add	t6,t6,672 # 4030b2a0 <_entry_offset+0x4030b2a0>
80002104:	1df61263          	bne	a2,t6,800022c8 <fail>

80002108 <test_30>:
80002108:	4f8fd1b7          	lui	gp,0x4f8fd
8000210c:	d6e18193          	add	gp,gp,-658 # 4f8fcd6e <_entry_offset+0x4f8fcd6e>
80002110:	00000013          	nop
80002114:	00000013          	nop
80002118:	00000013          	nop
8000211c:	00000013          	nop
80002120:	00000013          	nop
80002124:	34119073          	csrw	mepc,gp
80002128:	00000013          	nop
8000212c:	00000013          	nop
80002130:	00000013          	nop
80002134:	00000013          	nop
80002138:	00000013          	nop
8000213c:	e338f1b7          	lui	gp,0xe338f
80002140:	57618193          	add	gp,gp,1398 # e338f576 <_end+0x6337c576>
80002144:	00000013          	nop
80002148:	00000013          	nop
8000214c:	00000013          	nop
80002150:	00000013          	nop
80002154:	00000013          	nop
80002158:	3411b073          	csrc	mepc,gp
8000215c:	00000013          	nop
80002160:	00000013          	nop
80002164:	00000013          	nop
80002168:	00000013          	nop
8000216c:	00000013          	nop
80002170:	34102873          	csrr	a6,mepc
80002174:	00000013          	nop
80002178:	00000013          	nop
8000217c:	00000013          	nop
80002180:	00000013          	nop
80002184:	00000013          	nop
80002188:	0c871fb7          	lui	t6,0xc871
8000218c:	808f8f93          	add	t6,t6,-2040 # c870808 <_entry_offset+0xc870808>
80002190:	13f81c63          	bne	a6,t6,800022c8 <fail>

80002194 <test_31>:
80002194:	a02cdf37          	lui	t5,0xa02cd
80002198:	ab6f0f13          	add	t5,t5,-1354 # a02ccab6 <_end+0x202b9ab6>
8000219c:	341f1073          	csrw	mepc,t5
800021a0:	e6a46f37          	lui	t5,0xe6a46
800021a4:	ddaf0f13          	add	t5,t5,-550 # e6a45dda <_end+0x66a32dda>
800021a8:	34103073          	csrc	mepc,zero
800021ac:	341029f3          	csrr	s3,mepc
800021b0:	a02cdfb7          	lui	t6,0xa02cd
800021b4:	ab6f8f93          	add	t6,t6,-1354 # a02ccab6 <_end+0x202b9ab6>
800021b8:	11f99863          	bne	s3,t6,800022c8 <fail>

800021bc <test_32>:
800021bc:	00300d93          	li	s11,3
800021c0:	342d9073          	csrw	mcause,s11
800021c4:	80000db7          	lui	s11,0x80000
800021c8:	004d8d93          	add	s11,s11,4 # 80000004 <_start+0x4>
800021cc:	34203073          	csrc	mcause,zero
800021d0:	342022f3          	csrr	t0,mcause
800021d4:	00300f93          	li	t6,3
800021d8:	0ff29863          	bne	t0,t6,800022c8 <fail>

800021dc <test_33>:
800021dc:	80000a37          	lui	s4,0x80000
800021e0:	003a0a13          	add	s4,s4,3 # 80000003 <_start+0x3>
800021e4:	342a1073          	csrw	mcause,s4
800021e8:	00200a13          	li	s4,2
800021ec:	34203073          	csrc	mcause,zero
800021f0:	342025f3          	csrr	a1,mcause
800021f4:	80000fb7          	lui	t6,0x80000
800021f8:	003f8f93          	add	t6,t6,3 # 80000003 <_start+0x3>
800021fc:	0df59663          	bne	a1,t6,800022c8 <fail>

80002200 <test_34>:
80002200:	9bb4c837          	lui	a6,0x9bb4c
80002204:	47880813          	add	a6,a6,1144 # 9bb4c478 <_end+0x1bb39478>
80002208:	30581073          	csrw	mtvec,a6
8000220c:	b7472837          	lui	a6,0xb7472
80002210:	92480813          	add	a6,a6,-1756 # b7471924 <_end+0x3745e924>
80002214:	30503073          	csrc	mtvec,zero
80002218:	30502573          	csrr	a0,mtvec
8000221c:	9bb4cfb7          	lui	t6,0x9bb4c
80002220:	478f8f93          	add	t6,t6,1144 # 9bb4c478 <_end+0x1bb39478>
80002224:	0bf51263          	bne	a0,t6,800022c8 <fail>

80002228 <test_35>:
80002228:	2693ecb7          	lui	s9,0x2693e
8000222c:	1bbc8c93          	add	s9,s9,443 # 2693e1bb <_entry_offset+0x2693e1bb>
80002230:	341c9073          	csrw	mepc,s9
80002234:	1ef6bcb7          	lui	s9,0x1ef6b
80002238:	829c8c93          	add	s9,s9,-2007 # 1ef6a829 <_entry_offset+0x1ef6a829>
8000223c:	341cb073          	csrc	mepc,s9
80002240:	00000f93          	li	t6,0
80002244:	09f01263          	bne	zero,t6,800022c8 <fail>

80002248 <test_36>:
80002248:	b65727b7          	lui	a5,0xb6572
8000224c:	23278793          	add	a5,a5,562 # b6572232 <_end+0x3655f232>
80002250:	34179073          	csrw	mepc,a5
80002254:	41a8e7b7          	lui	a5,0x41a8e
80002258:	e4e78793          	add	a5,a5,-434 # 41a8de4e <_entry_offset+0x41a8de4e>
8000225c:	3417b073          	csrc	mepc,a5
80002260:	00000f93          	li	t6,0
80002264:	07f01263          	bne	zero,t6,800022c8 <fail>

80002268 <test_37>:
80002268:	c9736db7          	lui	s11,0xc9736
8000226c:	6b8d8d93          	add	s11,s11,1720 # c97366b8 <_end+0x497236b8>
80002270:	305d9073          	csrw	mtvec,s11
80002274:	c2aebdb7          	lui	s11,0xc2aeb
80002278:	64cd8d93          	add	s11,s11,1612 # c2aeb64c <_end+0x42ad864c>
8000227c:	305db073          	csrc	mtvec,s11
80002280:	00000f93          	li	t6,0
80002284:	05f01263          	bne	zero,t6,800022c8 <fail>

80002288 <test_38>:
80002288:	1f6981b7          	lui	gp,0x1f698
8000228c:	a3c18193          	add	gp,gp,-1476 # 1f697a3c <_entry_offset+0x1f697a3c>
80002290:	30519073          	csrw	mtvec,gp
80002294:	2a8851b7          	lui	gp,0x2a885
80002298:	53018193          	add	gp,gp,1328 # 2a885530 <_entry_offset+0x2a885530>
8000229c:	3051b073          	csrc	mtvec,gp
800022a0:	00000f93          	li	t6,0
800022a4:	03f01263          	bne	zero,t6,800022c8 <fail>

800022a8 <test_39>:
800022a8:	00b00c93          	li	s9,11
800022ac:	342c9073          	csrw	mcause,s9
800022b0:	80000cb7          	lui	s9,0x80000
800022b4:	00dc8c93          	add	s9,s9,13 # 8000000d <_start+0xd>
800022b8:	342cb073          	csrc	mcause,s9
800022bc:	00000f93          	li	t6,0
800022c0:	01f01463          	bne	zero,t6,800022c8 <fail>
800022c4:	0100006f          	j	800022d4 <pass>

800022c8 <fail>:
800022c8:	fff00513          	li	a0,-1
800022cc:	00100073          	ebreak
800022d0:	ff9ff06f          	j	800022c8 <fail>

800022d4 <pass>:
800022d4:	00000513          	li	a0,0
800022d8:	00008067          	ret

800022dc <slti>:
800022dc:	00000f93          	li	t6,0
800022e0:	000fa193          	slti	gp,t6,0
800022e4:	00000e93          	li	t4,0
800022e8:	00200e13          	li	t3,2
800022ec:	27d19263          	bne	gp,t4,80002550 <fail>

800022f0 <test_3>:
800022f0:	00100f93          	li	t6,1
800022f4:	001fa193          	slti	gp,t6,1
800022f8:	00000e93          	li	t4,0
800022fc:	00300e13          	li	t3,3
80002300:	25d19863          	bne	gp,t4,80002550 <fail>

80002304 <test_4>:
80002304:	00300f93          	li	t6,3
80002308:	007fa193          	slti	gp,t6,7
8000230c:	00100e93          	li	t4,1
80002310:	00400e13          	li	t3,4
80002314:	23d19e63          	bne	gp,t4,80002550 <fail>

80002318 <test_5>:
80002318:	00700f93          	li	t6,7
8000231c:	003fa193          	slti	gp,t6,3
80002320:	00000e93          	li	t4,0
80002324:	00500e13          	li	t3,5
80002328:	23d19463          	bne	gp,t4,80002550 <fail>

8000232c <test_6>:
8000232c:	00000f93          	li	t6,0
80002330:	800fa193          	slti	gp,t6,-2048
80002334:	00000e93          	li	t4,0
80002338:	00600e13          	li	t3,6
8000233c:	21d19a63          	bne	gp,t4,80002550 <fail>

80002340 <test_7>:
80002340:	80000fb7          	lui	t6,0x80000
80002344:	000fa193          	slti	gp,t6,0
80002348:	00100e93          	li	t4,1
8000234c:	00700e13          	li	t3,7
80002350:	21d19063          	bne	gp,t4,80002550 <fail>

80002354 <test_8>:
80002354:	80000fb7          	lui	t6,0x80000
80002358:	800fa193          	slti	gp,t6,-2048
8000235c:	00100e93          	li	t4,1
80002360:	00800e13          	li	t3,8
80002364:	1fd19663          	bne	gp,t4,80002550 <fail>

80002368 <test_9>:
80002368:	00000f93          	li	t6,0
8000236c:	7fffa193          	slti	gp,t6,2047
80002370:	00100e93          	li	t4,1
80002374:	00900e13          	li	t3,9
80002378:	1dd19c63          	bne	gp,t4,80002550 <fail>

8000237c <test_10>:
8000237c:	80000fb7          	lui	t6,0x80000
80002380:	ffff8f93          	add	t6,t6,-1 # 7fffffff <_entry_offset+0x7fffffff>
80002384:	000fa193          	slti	gp,t6,0
80002388:	00000e93          	li	t4,0
8000238c:	00a00e13          	li	t3,10
80002390:	1dd19063          	bne	gp,t4,80002550 <fail>

80002394 <test_11>:
80002394:	80000fb7          	lui	t6,0x80000
80002398:	ffff8f93          	add	t6,t6,-1 # 7fffffff <_entry_offset+0x7fffffff>
8000239c:	7fffa193          	slti	gp,t6,2047
800023a0:	00000e93          	li	t4,0
800023a4:	00b00e13          	li	t3,11
800023a8:	1bd19463          	bne	gp,t4,80002550 <fail>

800023ac <test_12>:
800023ac:	80000fb7          	lui	t6,0x80000
800023b0:	7fffa193          	slti	gp,t6,2047
800023b4:	00100e93          	li	t4,1
800023b8:	00c00e13          	li	t3,12
800023bc:	19d19a63          	bne	gp,t4,80002550 <fail>

800023c0 <test_13>:
800023c0:	80000fb7          	lui	t6,0x80000
800023c4:	ffff8f93          	add	t6,t6,-1 # 7fffffff <_entry_offset+0x7fffffff>
800023c8:	800fa193          	slti	gp,t6,-2048
800023cc:	00000e93          	li	t4,0
800023d0:	00d00e13          	li	t3,13
800023d4:	17d19e63          	bne	gp,t4,80002550 <fail>

800023d8 <test_14>:
800023d8:	00000f93          	li	t6,0
800023dc:	ffffa193          	slti	gp,t6,-1
800023e0:	00000e93          	li	t4,0
800023e4:	00e00e13          	li	t3,14
800023e8:	17d19463          	bne	gp,t4,80002550 <fail>

800023ec <test_15>:
800023ec:	fff00f93          	li	t6,-1
800023f0:	001fa193          	slti	gp,t6,1
800023f4:	00100e93          	li	t4,1
800023f8:	00f00e13          	li	t3,15
800023fc:	15d19a63          	bne	gp,t4,80002550 <fail>

80002400 <test_16>:
80002400:	fff00f93          	li	t6,-1
80002404:	ffffa193          	slti	gp,t6,-1
80002408:	00000e93          	li	t4,0
8000240c:	01000e13          	li	t3,16
80002410:	15d19063          	bne	gp,t4,80002550 <fail>

80002414 <test_17>:
80002414:	00b00f93          	li	t6,11
80002418:	00dfbf93          	sltiu	t6,t6,13
8000241c:	00100e93          	li	t4,1
80002420:	01100e13          	li	t3,17
80002424:	13df9663          	bne	t6,t4,80002550 <fail>

80002428 <test_18>:
80002428:	00000213          	li	tp,0
8000242c:	00f00f93          	li	t6,15
80002430:	00afa193          	slti	gp,t6,10
80002434:	00018313          	mv	t1,gp
80002438:	00120213          	add	tp,tp,1 # 1 <_entry_offset+0x1>
8000243c:	00200293          	li	t0,2
80002440:	fe5216e3          	bne	tp,t0,8000242c <test_18+0x4>
80002444:	00000e93          	li	t4,0
80002448:	01200e13          	li	t3,18
8000244c:	11d31263          	bne	t1,t4,80002550 <fail>

80002450 <test_19>:
80002450:	00000213          	li	tp,0
80002454:	00a00f93          	li	t6,10
80002458:	010fa193          	slti	gp,t6,16
8000245c:	00000013          	nop
80002460:	00018313          	mv	t1,gp
80002464:	00120213          	add	tp,tp,1 # 1 <_entry_offset+0x1>
80002468:	00200293          	li	t0,2
8000246c:	fe5214e3          	bne	tp,t0,80002454 <test_19+0x4>
80002470:	00100e93          	li	t4,1
80002474:	01300e13          	li	t3,19
80002478:	0dd31c63          	bne	t1,t4,80002550 <fail>

8000247c <test_20>:
8000247c:	00000213          	li	tp,0
80002480:	01000f93          	li	t6,16
80002484:	009fa193          	slti	gp,t6,9
80002488:	00000013          	nop
8000248c:	00000013          	nop
80002490:	00018313          	mv	t1,gp
80002494:	00120213          	add	tp,tp,1 # 1 <_entry_offset+0x1>
80002498:	00200293          	li	t0,2
8000249c:	fe5212e3          	bne	tp,t0,80002480 <test_20+0x4>
800024a0:	00000e93          	li	t4,0
800024a4:	01400e13          	li	t3,20
800024a8:	0bd31463          	bne	t1,t4,80002550 <fail>

800024ac <test_21>:
800024ac:	00000213          	li	tp,0
800024b0:	00b00f93          	li	t6,11
800024b4:	00ffa193          	slti	gp,t6,15
800024b8:	00120213          	add	tp,tp,1 # 1 <_entry_offset+0x1>
800024bc:	00200293          	li	t0,2
800024c0:	fe5218e3          	bne	tp,t0,800024b0 <test_21+0x4>
800024c4:	00100e93          	li	t4,1
800024c8:	01500e13          	li	t3,21
800024cc:	09d19263          	bne	gp,t4,80002550 <fail>

800024d0 <test_22>:
800024d0:	00000213          	li	tp,0
800024d4:	01100f93          	li	t6,17
800024d8:	00000013          	nop
800024dc:	008fa193          	slti	gp,t6,8
800024e0:	00120213          	add	tp,tp,1 # 1 <_entry_offset+0x1>
800024e4:	00200293          	li	t0,2
800024e8:	fe5216e3          	bne	tp,t0,800024d4 <test_22+0x4>
800024ec:	00000e93          	li	t4,0
800024f0:	01600e13          	li	t3,22
800024f4:	05d19e63          	bne	gp,t4,80002550 <fail>

800024f8 <test_23>:
800024f8:	00000213          	li	tp,0
800024fc:	00c00f93          	li	t6,12
80002500:	00000013          	nop
80002504:	00000013          	nop
80002508:	00efa193          	slti	gp,t6,14
8000250c:	00120213          	add	tp,tp,1 # 1 <_entry_offset+0x1>
80002510:	00200293          	li	t0,2
80002514:	fe5214e3          	bne	tp,t0,800024fc <test_23+0x4>
80002518:	00100e93          	li	t4,1
8000251c:	01700e13          	li	t3,23
80002520:	03d19863          	bne	gp,t4,80002550 <fail>

80002524 <test_24>:
80002524:	fff02f93          	slti	t6,zero,-1
80002528:	00000e93          	li	t4,0
8000252c:	01800e13          	li	t3,24
80002530:	03df9063          	bne	t6,t4,80002550 <fail>

80002534 <test_25>:
80002534:	00ff0fb7          	lui	t6,0xff0
80002538:	0fff8f93          	add	t6,t6,255 # ff00ff <_entry_offset+0xff00ff>
8000253c:	ffffa013          	slti	zero,t6,-1
80002540:	00000e93          	li	t4,0
80002544:	01900e13          	li	t3,25
80002548:	01d01463          	bne	zero,t4,80002550 <fail>
8000254c:	0100006f          	j	8000255c <pass>

80002550 <fail>:
80002550:	fff00513          	li	a0,-1
80002554:	00100073          	ebreak
80002558:	ff9ff06f          	j	80002550 <fail>

8000255c <pass>:
8000255c:	00000513          	li	a0,0
80002560:	00008067          	ret

80002564 <sub>:
80002564:	00000f93          	li	t6,0
80002568:	00000113          	li	sp,0
8000256c:	402f81b3          	sub	gp,t6,sp
80002570:	00000e93          	li	t4,0
80002574:	00200e13          	li	t3,2
80002578:	4bd19663          	bne	gp,t4,80002a24 <fail>

8000257c <test_3>:
8000257c:	00100f93          	li	t6,1
80002580:	00100113          	li	sp,1
80002584:	402f81b3          	sub	gp,t6,sp
80002588:	00000e93          	li	t4,0
8000258c:	00300e13          	li	t3,3
80002590:	49d19a63          	bne	gp,t4,80002a24 <fail>

80002594 <test_4>:
80002594:	00300f93          	li	t6,3
80002598:	00700113          	li	sp,7
8000259c:	402f81b3          	sub	gp,t6,sp
800025a0:	ffc00e93          	li	t4,-4
800025a4:	00400e13          	li	t3,4
800025a8:	47d19e63          	bne	gp,t4,80002a24 <fail>

800025ac <test_5>:
800025ac:	00000f93          	li	t6,0
800025b0:	ffff8137          	lui	sp,0xffff8
800025b4:	402f81b3          	sub	gp,t6,sp
800025b8:	00008eb7          	lui	t4,0x8
800025bc:	00500e13          	li	t3,5
800025c0:	47d19263          	bne	gp,t4,80002a24 <fail>

800025c4 <test_6>:
800025c4:	80000fb7          	lui	t6,0x80000
800025c8:	00000113          	li	sp,0
800025cc:	402f81b3          	sub	gp,t6,sp
800025d0:	80000eb7          	lui	t4,0x80000
800025d4:	00600e13          	li	t3,6
800025d8:	45d19663          	bne	gp,t4,80002a24 <fail>

800025dc <test_7>:
800025dc:	80000fb7          	lui	t6,0x80000
800025e0:	ffff8137          	lui	sp,0xffff8
800025e4:	402f81b3          	sub	gp,t6,sp
800025e8:	80008eb7          	lui	t4,0x80008
800025ec:	00700e13          	li	t3,7
800025f0:	43d19a63          	bne	gp,t4,80002a24 <fail>

800025f4 <test_8>:
800025f4:	00000f93          	li	t6,0
800025f8:	00008137          	lui	sp,0x8
800025fc:	fff10113          	add	sp,sp,-1 # 7fff <_entry_offset+0x7fff>
80002600:	402f81b3          	sub	gp,t6,sp
80002604:	ffff8eb7          	lui	t4,0xffff8
80002608:	001e8e93          	add	t4,t4,1 # ffff8001 <_end+0x7ffe5001>
8000260c:	00800e13          	li	t3,8
80002610:	41d19a63          	bne	gp,t4,80002a24 <fail>

80002614 <test_9>:
80002614:	80000fb7          	lui	t6,0x80000
80002618:	ffff8f93          	add	t6,t6,-1 # 7fffffff <_entry_offset+0x7fffffff>
8000261c:	00000113          	li	sp,0
80002620:	402f81b3          	sub	gp,t6,sp
80002624:	80000eb7          	lui	t4,0x80000
80002628:	fffe8e93          	add	t4,t4,-1 # 7fffffff <_entry_offset+0x7fffffff>
8000262c:	00900e13          	li	t3,9
80002630:	3fd19a63          	bne	gp,t4,80002a24 <fail>

80002634 <test_10>:
80002634:	80000fb7          	lui	t6,0x80000
80002638:	ffff8f93          	add	t6,t6,-1 # 7fffffff <_entry_offset+0x7fffffff>
8000263c:	00008137          	lui	sp,0x8
80002640:	fff10113          	add	sp,sp,-1 # 7fff <_entry_offset+0x7fff>
80002644:	402f81b3          	sub	gp,t6,sp
80002648:	7fff8eb7          	lui	t4,0x7fff8
8000264c:	00a00e13          	li	t3,10
80002650:	3dd19a63          	bne	gp,t4,80002a24 <fail>

80002654 <test_11>:
80002654:	80000fb7          	lui	t6,0x80000
80002658:	00008137          	lui	sp,0x8
8000265c:	fff10113          	add	sp,sp,-1 # 7fff <_entry_offset+0x7fff>
80002660:	402f81b3          	sub	gp,t6,sp
80002664:	7fff8eb7          	lui	t4,0x7fff8
80002668:	001e8e93          	add	t4,t4,1 # 7fff8001 <_entry_offset+0x7fff8001>
8000266c:	00b00e13          	li	t3,11
80002670:	3bd19a63          	bne	gp,t4,80002a24 <fail>

80002674 <test_12>:
80002674:	80000fb7          	lui	t6,0x80000
80002678:	ffff8f93          	add	t6,t6,-1 # 7fffffff <_entry_offset+0x7fffffff>
8000267c:	ffff8137          	lui	sp,0xffff8
80002680:	402f81b3          	sub	gp,t6,sp
80002684:	80008eb7          	lui	t4,0x80008
80002688:	fffe8e93          	add	t4,t4,-1 # 80007fff <test_30+0xf>
8000268c:	00c00e13          	li	t3,12
80002690:	39d19a63          	bne	gp,t4,80002a24 <fail>

80002694 <test_13>:
80002694:	00000f93          	li	t6,0
80002698:	fff00113          	li	sp,-1
8000269c:	402f81b3          	sub	gp,t6,sp
800026a0:	00100e93          	li	t4,1
800026a4:	00d00e13          	li	t3,13
800026a8:	37d19e63          	bne	gp,t4,80002a24 <fail>

800026ac <test_14>:
800026ac:	fff00f93          	li	t6,-1
800026b0:	00100113          	li	sp,1
800026b4:	402f81b3          	sub	gp,t6,sp
800026b8:	ffe00e93          	li	t4,-2
800026bc:	00e00e13          	li	t3,14
800026c0:	37d19263          	bne	gp,t4,80002a24 <fail>

800026c4 <test_15>:
800026c4:	fff00f93          	li	t6,-1
800026c8:	fff00113          	li	sp,-1
800026cc:	402f81b3          	sub	gp,t6,sp
800026d0:	00000e93          	li	t4,0
800026d4:	00f00e13          	li	t3,15
800026d8:	35d19663          	bne	gp,t4,80002a24 <fail>

800026dc <test_16>:
800026dc:	00d00f93          	li	t6,13
800026e0:	00b00113          	li	sp,11
800026e4:	402f8fb3          	sub	t6,t6,sp
800026e8:	00200e93          	li	t4,2
800026ec:	01000e13          	li	t3,16
800026f0:	33df9a63          	bne	t6,t4,80002a24 <fail>

800026f4 <test_17>:
800026f4:	00e00f93          	li	t6,14
800026f8:	00b00113          	li	sp,11
800026fc:	402f8133          	sub	sp,t6,sp
80002700:	00300e93          	li	t4,3
80002704:	01100e13          	li	t3,17
80002708:	31d11e63          	bne	sp,t4,80002a24 <fail>

8000270c <test_18>:
8000270c:	00d00f93          	li	t6,13
80002710:	41ff8fb3          	sub	t6,t6,t6
80002714:	00000e93          	li	t4,0
80002718:	01200e13          	li	t3,18
8000271c:	31df9463          	bne	t6,t4,80002a24 <fail>

80002720 <test_19>:
80002720:	00000213          	li	tp,0
80002724:	00d00f93          	li	t6,13
80002728:	00b00113          	li	sp,11
8000272c:	402f81b3          	sub	gp,t6,sp
80002730:	00018313          	mv	t1,gp
80002734:	00120213          	add	tp,tp,1 # 1 <_entry_offset+0x1>
80002738:	00200293          	li	t0,2
8000273c:	fe5214e3          	bne	tp,t0,80002724 <test_19+0x4>
80002740:	00200e93          	li	t4,2
80002744:	01300e13          	li	t3,19
80002748:	2dd31e63          	bne	t1,t4,80002a24 <fail>

8000274c <test_20>:
8000274c:	00000213          	li	tp,0
80002750:	00e00f93          	li	t6,14
80002754:	00b00113          	li	sp,11
80002758:	402f81b3          	sub	gp,t6,sp
8000275c:	00000013          	nop
80002760:	00018313          	mv	t1,gp
80002764:	00120213          	add	tp,tp,1 # 1 <_entry_offset+0x1>
80002768:	00200293          	li	t0,2
8000276c:	fe5212e3          	bne	tp,t0,80002750 <test_20+0x4>
80002770:	00300e93          	li	t4,3
80002774:	01400e13          	li	t3,20
80002778:	2bd31663          	bne	t1,t4,80002a24 <fail>

8000277c <test_21>:
8000277c:	00000213          	li	tp,0
80002780:	00f00f93          	li	t6,15
80002784:	00b00113          	li	sp,11
80002788:	402f81b3          	sub	gp,t6,sp
8000278c:	00000013          	nop
80002790:	00000013          	nop
80002794:	00018313          	mv	t1,gp
80002798:	00120213          	add	tp,tp,1 # 1 <_entry_offset+0x1>
8000279c:	00200293          	li	t0,2
800027a0:	fe5210e3          	bne	tp,t0,80002780 <test_21+0x4>
800027a4:	00400e93          	li	t4,4
800027a8:	01500e13          	li	t3,21
800027ac:	27d31c63          	bne	t1,t4,80002a24 <fail>

800027b0 <test_22>:
800027b0:	00000213          	li	tp,0
800027b4:	00d00f93          	li	t6,13
800027b8:	00b00113          	li	sp,11
800027bc:	402f81b3          	sub	gp,t6,sp
800027c0:	00120213          	add	tp,tp,1 # 1 <_entry_offset+0x1>
800027c4:	00200293          	li	t0,2
800027c8:	fe5216e3          	bne	tp,t0,800027b4 <test_22+0x4>
800027cc:	00200e93          	li	t4,2
800027d0:	01600e13          	li	t3,22
800027d4:	25d19863          	bne	gp,t4,80002a24 <fail>

800027d8 <test_23>:
800027d8:	00000213          	li	tp,0
800027dc:	00e00f93          	li	t6,14
800027e0:	00b00113          	li	sp,11
800027e4:	00000013          	nop
800027e8:	402f81b3          	sub	gp,t6,sp
800027ec:	00120213          	add	tp,tp,1 # 1 <_entry_offset+0x1>
800027f0:	00200293          	li	t0,2
800027f4:	fe5214e3          	bne	tp,t0,800027dc <test_23+0x4>
800027f8:	00300e93          	li	t4,3
800027fc:	01700e13          	li	t3,23
80002800:	23d19263          	bne	gp,t4,80002a24 <fail>

80002804 <test_24>:
80002804:	00000213          	li	tp,0
80002808:	00f00f93          	li	t6,15
8000280c:	00b00113          	li	sp,11
80002810:	00000013          	nop
80002814:	00000013          	nop
80002818:	402f81b3          	sub	gp,t6,sp
8000281c:	00120213          	add	tp,tp,1 # 1 <_entry_offset+0x1>
80002820:	00200293          	li	t0,2
80002824:	fe5212e3          	bne	tp,t0,80002808 <test_24+0x4>
80002828:	00400e93          	li	t4,4
8000282c:	01800e13          	li	t3,24
80002830:	1fd19a63          	bne	gp,t4,80002a24 <fail>

80002834 <test_25>:
80002834:	00000213          	li	tp,0
80002838:	00d00f93          	li	t6,13
8000283c:	00000013          	nop
80002840:	00b00113          	li	sp,11
80002844:	402f81b3          	sub	gp,t6,sp
80002848:	00120213          	add	tp,tp,1 # 1 <_entry_offset+0x1>
8000284c:	00200293          	li	t0,2
80002850:	fe5214e3          	bne	tp,t0,80002838 <test_25+0x4>
80002854:	00200e93          	li	t4,2
80002858:	01900e13          	li	t3,25
8000285c:	1dd19463          	bne	gp,t4,80002a24 <fail>

80002860 <test_26>:
80002860:	00000213          	li	tp,0
80002864:	00e00f93          	li	t6,14
80002868:	00000013          	nop
8000286c:	00b00113          	li	sp,11
80002870:	00000013          	nop
80002874:	402f81b3          	sub	gp,t6,sp
80002878:	00120213          	add	tp,tp,1 # 1 <_entry_offset+0x1>
8000287c:	00200293          	li	t0,2
80002880:	fe5212e3          	bne	tp,t0,80002864 <test_26+0x4>
80002884:	00300e93          	li	t4,3
80002888:	01a00e13          	li	t3,26
8000288c:	19d19c63          	bne	gp,t4,80002a24 <fail>

80002890 <test_27>:
80002890:	00000213          	li	tp,0
80002894:	00f00f93          	li	t6,15
80002898:	00000013          	nop
8000289c:	00000013          	nop
800028a0:	00b00113          	li	sp,11
800028a4:	402f81b3          	sub	gp,t6,sp
800028a8:	00120213          	add	tp,tp,1 # 1 <_entry_offset+0x1>
800028ac:	00200293          	li	t0,2
800028b0:	fe5212e3          	bne	tp,t0,80002894 <test_27+0x4>
800028b4:	00400e93          	li	t4,4
800028b8:	01b00e13          	li	t3,27
800028bc:	17d19463          	bne	gp,t4,80002a24 <fail>

800028c0 <test_28>:
800028c0:	00000213          	li	tp,0
800028c4:	00b00113          	li	sp,11
800028c8:	00d00f93          	li	t6,13
800028cc:	402f81b3          	sub	gp,t6,sp
800028d0:	00120213          	add	tp,tp,1 # 1 <_entry_offset+0x1>
800028d4:	00200293          	li	t0,2
800028d8:	fe5216e3          	bne	tp,t0,800028c4 <test_28+0x4>
800028dc:	00200e93          	li	t4,2
800028e0:	01c00e13          	li	t3,28
800028e4:	15d19063          	bne	gp,t4,80002a24 <fail>

800028e8 <test_29>:
800028e8:	00000213          	li	tp,0
800028ec:	00b00113          	li	sp,11
800028f0:	00e00f93          	li	t6,14
800028f4:	00000013          	nop
800028f8:	402f81b3          	sub	gp,t6,sp
800028fc:	00120213          	add	tp,tp,1 # 1 <_entry_offset+0x1>
80002900:	00200293          	li	t0,2
80002904:	fe5214e3          	bne	tp,t0,800028ec <test_29+0x4>
80002908:	00300e93          	li	t4,3
8000290c:	01d00e13          	li	t3,29
80002910:	11d19a63          	bne	gp,t4,80002a24 <fail>

80002914 <test_30>:
80002914:	00000213          	li	tp,0
80002918:	00b00113          	li	sp,11
8000291c:	00f00f93          	li	t6,15
80002920:	00000013          	nop
80002924:	00000013          	nop
80002928:	402f81b3          	sub	gp,t6,sp
8000292c:	00120213          	add	tp,tp,1 # 1 <_entry_offset+0x1>
80002930:	00200293          	li	t0,2
80002934:	fe5212e3          	bne	tp,t0,80002918 <test_30+0x4>
80002938:	00400e93          	li	t4,4
8000293c:	01e00e13          	li	t3,30
80002940:	0fd19263          	bne	gp,t4,80002a24 <fail>

80002944 <test_31>:
80002944:	00000213          	li	tp,0
80002948:	00b00113          	li	sp,11
8000294c:	00000013          	nop
80002950:	00d00f93          	li	t6,13
80002954:	402f81b3          	sub	gp,t6,sp
80002958:	00120213          	add	tp,tp,1 # 1 <_entry_offset+0x1>
8000295c:	00200293          	li	t0,2
80002960:	fe5214e3          	bne	tp,t0,80002948 <test_31+0x4>
80002964:	00200e93          	li	t4,2
80002968:	01f00e13          	li	t3,31
8000296c:	0bd19c63          	bne	gp,t4,80002a24 <fail>

80002970 <test_32>:
80002970:	00000213          	li	tp,0
80002974:	00b00113          	li	sp,11
80002978:	00000013          	nop
8000297c:	00e00f93          	li	t6,14
80002980:	00000013          	nop
80002984:	402f81b3          	sub	gp,t6,sp
80002988:	00120213          	add	tp,tp,1 # 1 <_entry_offset+0x1>
8000298c:	00200293          	li	t0,2
80002990:	fe5212e3          	bne	tp,t0,80002974 <test_32+0x4>
80002994:	00300e93          	li	t4,3
80002998:	02000e13          	li	t3,32
8000299c:	09d19463          	bne	gp,t4,80002a24 <fail>

800029a0 <test_33>:
800029a0:	00000213          	li	tp,0
800029a4:	00b00113          	li	sp,11
800029a8:	00000013          	nop
800029ac:	00000013          	nop
800029b0:	00f00f93          	li	t6,15
800029b4:	402f81b3          	sub	gp,t6,sp
800029b8:	00120213          	add	tp,tp,1 # 1 <_entry_offset+0x1>
800029bc:	00200293          	li	t0,2
800029c0:	fe5212e3          	bne	tp,t0,800029a4 <test_33+0x4>
800029c4:	00400e93          	li	t4,4
800029c8:	02100e13          	li	t3,33
800029cc:	05d19c63          	bne	gp,t4,80002a24 <fail>

800029d0 <test_34>:
800029d0:	ff100f93          	li	t6,-15
800029d4:	41f00133          	neg	sp,t6
800029d8:	00f00e93          	li	t4,15
800029dc:	02200e13          	li	t3,34
800029e0:	05d11263          	bne	sp,t4,80002a24 <fail>

800029e4 <test_35>:
800029e4:	02000f93          	li	t6,32
800029e8:	400f8133          	sub	sp,t6,zero
800029ec:	02000e93          	li	t4,32
800029f0:	02300e13          	li	t3,35
800029f4:	03d11863          	bne	sp,t4,80002a24 <fail>

800029f8 <test_36>:
800029f8:	40000fb3          	neg	t6,zero
800029fc:	00000e93          	li	t4,0
80002a00:	02400e13          	li	t3,36
80002a04:	03df9063          	bne	t6,t4,80002a24 <fail>

80002a08 <test_37>:
80002a08:	01000f93          	li	t6,16
80002a0c:	01e00113          	li	sp,30
80002a10:	402f8033          	sub	zero,t6,sp
80002a14:	00000e93          	li	t4,0
80002a18:	02500e13          	li	t3,37
80002a1c:	01d01463          	bne	zero,t4,80002a24 <fail>
80002a20:	0100006f          	j	80002a30 <pass>

80002a24 <fail>:
80002a24:	fff00513          	li	a0,-1
80002a28:	00100073          	ebreak
80002a2c:	ff9ff06f          	j	80002a24 <fail>

80002a30 <pass>:
80002a30:	00000513          	li	a0,0
80002a34:	00008067          	ret

80002a38 <bgeu>:
80002a38:	00200e13          	li	t3,2
80002a3c:	00000f93          	li	t6,0
80002a40:	00000113          	li	sp,0
80002a44:	002ff663          	bgeu	t6,sp,80002a50 <bgeu+0x18>
80002a48:	35c01263          	bne	zero,t3,80002d8c <fail>
80002a4c:	01c01663          	bne	zero,t3,80002a58 <test_3>
80002a50:	fe2ffee3          	bgeu	t6,sp,80002a4c <bgeu+0x14>
80002a54:	33c01c63          	bne	zero,t3,80002d8c <fail>

80002a58 <test_3>:
80002a58:	00300e13          	li	t3,3
80002a5c:	00100f93          	li	t6,1
80002a60:	00100113          	li	sp,1
80002a64:	002ff663          	bgeu	t6,sp,80002a70 <test_3+0x18>
80002a68:	33c01263          	bne	zero,t3,80002d8c <fail>
80002a6c:	01c01663          	bne	zero,t3,80002a78 <test_4>
80002a70:	fe2ffee3          	bgeu	t6,sp,80002a6c <test_3+0x14>
80002a74:	31c01c63          	bne	zero,t3,80002d8c <fail>

80002a78 <test_4>:
80002a78:	00400e13          	li	t3,4
80002a7c:	fff00f93          	li	t6,-1
80002a80:	fff00113          	li	sp,-1
80002a84:	002ff663          	bgeu	t6,sp,80002a90 <test_4+0x18>
80002a88:	31c01263          	bne	zero,t3,80002d8c <fail>
80002a8c:	01c01663          	bne	zero,t3,80002a98 <test_5>
80002a90:	fe2ffee3          	bgeu	t6,sp,80002a8c <test_4+0x14>
80002a94:	2fc01c63          	bne	zero,t3,80002d8c <fail>

80002a98 <test_5>:
80002a98:	00500e13          	li	t3,5
80002a9c:	00100f93          	li	t6,1
80002aa0:	00000113          	li	sp,0
80002aa4:	002ff663          	bgeu	t6,sp,80002ab0 <test_5+0x18>
80002aa8:	2fc01263          	bne	zero,t3,80002d8c <fail>
80002aac:	01c01663          	bne	zero,t3,80002ab8 <test_6>
80002ab0:	fe2ffee3          	bgeu	t6,sp,80002aac <test_5+0x14>
80002ab4:	2dc01c63          	bne	zero,t3,80002d8c <fail>

80002ab8 <test_6>:
80002ab8:	00600e13          	li	t3,6
80002abc:	fff00f93          	li	t6,-1
80002ac0:	ffe00113          	li	sp,-2
80002ac4:	002ff663          	bgeu	t6,sp,80002ad0 <test_6+0x18>
80002ac8:	2dc01263          	bne	zero,t3,80002d8c <fail>
80002acc:	01c01663          	bne	zero,t3,80002ad8 <test_7>
80002ad0:	fe2ffee3          	bgeu	t6,sp,80002acc <test_6+0x14>
80002ad4:	2bc01c63          	bne	zero,t3,80002d8c <fail>

80002ad8 <test_7>:
80002ad8:	00700e13          	li	t3,7
80002adc:	fff00f93          	li	t6,-1
80002ae0:	00000113          	li	sp,0
80002ae4:	002ff663          	bgeu	t6,sp,80002af0 <test_7+0x18>
80002ae8:	2bc01263          	bne	zero,t3,80002d8c <fail>
80002aec:	01c01663          	bne	zero,t3,80002af8 <test_8>
80002af0:	fe2ffee3          	bgeu	t6,sp,80002aec <test_7+0x14>
80002af4:	29c01c63          	bne	zero,t3,80002d8c <fail>

80002af8 <test_8>:
80002af8:	00800e13          	li	t3,8
80002afc:	00000f93          	li	t6,0
80002b00:	00100113          	li	sp,1
80002b04:	002ff463          	bgeu	t6,sp,80002b0c <test_8+0x14>
80002b08:	01c01463          	bne	zero,t3,80002b10 <test_8+0x18>
80002b0c:	29c01063          	bne	zero,t3,80002d8c <fail>
80002b10:	fe2ffee3          	bgeu	t6,sp,80002b0c <test_8+0x14>

80002b14 <test_9>:
80002b14:	00900e13          	li	t3,9
80002b18:	ffe00f93          	li	t6,-2
80002b1c:	fff00113          	li	sp,-1
80002b20:	002ff463          	bgeu	t6,sp,80002b28 <test_9+0x14>
80002b24:	01c01463          	bne	zero,t3,80002b2c <test_9+0x18>
80002b28:	27c01263          	bne	zero,t3,80002d8c <fail>
80002b2c:	fe2ffee3          	bgeu	t6,sp,80002b28 <test_9+0x14>

80002b30 <test_10>:
80002b30:	00a00e13          	li	t3,10
80002b34:	00000f93          	li	t6,0
80002b38:	fff00113          	li	sp,-1
80002b3c:	002ff463          	bgeu	t6,sp,80002b44 <test_10+0x14>
80002b40:	01c01463          	bne	zero,t3,80002b48 <test_10+0x18>
80002b44:	25c01463          	bne	zero,t3,80002d8c <fail>
80002b48:	fe2ffee3          	bgeu	t6,sp,80002b44 <test_10+0x14>

80002b4c <test_11>:
80002b4c:	00b00e13          	li	t3,11
80002b50:	80000fb7          	lui	t6,0x80000
80002b54:	ffff8f93          	add	t6,t6,-1 # 7fffffff <_entry_offset+0x7fffffff>
80002b58:	80000137          	lui	sp,0x80000
80002b5c:	002ff463          	bgeu	t6,sp,80002b64 <test_11+0x18>
80002b60:	01c01463          	bne	zero,t3,80002b68 <test_11+0x1c>
80002b64:	23c01463          	bne	zero,t3,80002d8c <fail>
80002b68:	fe2ffee3          	bgeu	t6,sp,80002b64 <test_11+0x18>

80002b6c <test_12>:
80002b6c:	00c00e13          	li	t3,12
80002b70:	00000213          	li	tp,0
80002b74:	f0000fb7          	lui	t6,0xf0000
80002b78:	ffff8f93          	add	t6,t6,-1 # efffffff <_end+0x6ffecfff>
80002b7c:	f0000137          	lui	sp,0xf0000
80002b80:	202ff663          	bgeu	t6,sp,80002d8c <fail>
80002b84:	00120213          	add	tp,tp,1 # 1 <_entry_offset+0x1>
80002b88:	00200293          	li	t0,2
80002b8c:	fe5214e3          	bne	tp,t0,80002b74 <test_12+0x8>

80002b90 <test_13>:
80002b90:	00d00e13          	li	t3,13
80002b94:	00000213          	li	tp,0
80002b98:	f0000fb7          	lui	t6,0xf0000
80002b9c:	ffff8f93          	add	t6,t6,-1 # efffffff <_end+0x6ffecfff>
80002ba0:	f0000137          	lui	sp,0xf0000
80002ba4:	00000013          	nop
80002ba8:	1e2ff263          	bgeu	t6,sp,80002d8c <fail>
80002bac:	00120213          	add	tp,tp,1 # 1 <_entry_offset+0x1>
80002bb0:	00200293          	li	t0,2
80002bb4:	fe5212e3          	bne	tp,t0,80002b98 <test_13+0x8>

80002bb8 <test_14>:
80002bb8:	00e00e13          	li	t3,14
80002bbc:	00000213          	li	tp,0
80002bc0:	f0000fb7          	lui	t6,0xf0000
80002bc4:	ffff8f93          	add	t6,t6,-1 # efffffff <_end+0x6ffecfff>
80002bc8:	f0000137          	lui	sp,0xf0000
80002bcc:	00000013          	nop
80002bd0:	00000013          	nop
80002bd4:	1a2ffc63          	bgeu	t6,sp,80002d8c <fail>
80002bd8:	00120213          	add	tp,tp,1 # 1 <_entry_offset+0x1>
80002bdc:	00200293          	li	t0,2
80002be0:	fe5210e3          	bne	tp,t0,80002bc0 <test_14+0x8>

80002be4 <test_15>:
80002be4:	00f00e13          	li	t3,15
80002be8:	00000213          	li	tp,0
80002bec:	f0000fb7          	lui	t6,0xf0000
80002bf0:	ffff8f93          	add	t6,t6,-1 # efffffff <_end+0x6ffecfff>
80002bf4:	00000013          	nop
80002bf8:	f0000137          	lui	sp,0xf0000
80002bfc:	182ff863          	bgeu	t6,sp,80002d8c <fail>
80002c00:	00120213          	add	tp,tp,1 # 1 <_entry_offset+0x1>
80002c04:	00200293          	li	t0,2
80002c08:	fe5212e3          	bne	tp,t0,80002bec <test_15+0x8>

80002c0c <test_16>:
80002c0c:	01000e13          	li	t3,16
80002c10:	00000213          	li	tp,0
80002c14:	f0000fb7          	lui	t6,0xf0000
80002c18:	ffff8f93          	add	t6,t6,-1 # efffffff <_end+0x6ffecfff>
80002c1c:	00000013          	nop
80002c20:	f0000137          	lui	sp,0xf0000
80002c24:	00000013          	nop
80002c28:	162ff263          	bgeu	t6,sp,80002d8c <fail>
80002c2c:	00120213          	add	tp,tp,1 # 1 <_entry_offset+0x1>
80002c30:	00200293          	li	t0,2
80002c34:	fe5210e3          	bne	tp,t0,80002c14 <test_16+0x8>

80002c38 <test_17>:
80002c38:	01100e13          	li	t3,17
80002c3c:	00000213          	li	tp,0
80002c40:	f0000fb7          	lui	t6,0xf0000
80002c44:	ffff8f93          	add	t6,t6,-1 # efffffff <_end+0x6ffecfff>
80002c48:	00000013          	nop
80002c4c:	00000013          	nop
80002c50:	f0000137          	lui	sp,0xf0000
80002c54:	122ffc63          	bgeu	t6,sp,80002d8c <fail>
80002c58:	00120213          	add	tp,tp,1 # 1 <_entry_offset+0x1>
80002c5c:	00200293          	li	t0,2
80002c60:	fe5210e3          	bne	tp,t0,80002c40 <test_17+0x8>

80002c64 <test_18>:
80002c64:	01200e13          	li	t3,18
80002c68:	00000213          	li	tp,0
80002c6c:	f0000fb7          	lui	t6,0xf0000
80002c70:	ffff8f93          	add	t6,t6,-1 # efffffff <_end+0x6ffecfff>
80002c74:	f0000137          	lui	sp,0xf0000
80002c78:	102ffa63          	bgeu	t6,sp,80002d8c <fail>
80002c7c:	00120213          	add	tp,tp,1 # 1 <_entry_offset+0x1>
80002c80:	00200293          	li	t0,2
80002c84:	fe5214e3          	bne	tp,t0,80002c6c <test_18+0x8>

80002c88 <test_19>:
80002c88:	01300e13          	li	t3,19
80002c8c:	00000213          	li	tp,0
80002c90:	f0000fb7          	lui	t6,0xf0000
80002c94:	ffff8f93          	add	t6,t6,-1 # efffffff <_end+0x6ffecfff>
80002c98:	f0000137          	lui	sp,0xf0000
80002c9c:	00000013          	nop
80002ca0:	0e2ff663          	bgeu	t6,sp,80002d8c <fail>
80002ca4:	00120213          	add	tp,tp,1 # 1 <_entry_offset+0x1>
80002ca8:	00200293          	li	t0,2
80002cac:	fe5212e3          	bne	tp,t0,80002c90 <test_19+0x8>

80002cb0 <test_20>:
80002cb0:	01400e13          	li	t3,20
80002cb4:	00000213          	li	tp,0
80002cb8:	f0000fb7          	lui	t6,0xf0000
80002cbc:	ffff8f93          	add	t6,t6,-1 # efffffff <_end+0x6ffecfff>
80002cc0:	f0000137          	lui	sp,0xf0000
80002cc4:	00000013          	nop
80002cc8:	00000013          	nop
80002ccc:	0c2ff063          	bgeu	t6,sp,80002d8c <fail>
80002cd0:	00120213          	add	tp,tp,1 # 1 <_entry_offset+0x1>
80002cd4:	00200293          	li	t0,2
80002cd8:	fe5210e3          	bne	tp,t0,80002cb8 <test_20+0x8>

80002cdc <test_21>:
80002cdc:	01500e13          	li	t3,21
80002ce0:	00000213          	li	tp,0
80002ce4:	f0000fb7          	lui	t6,0xf0000
80002ce8:	ffff8f93          	add	t6,t6,-1 # efffffff <_end+0x6ffecfff>
80002cec:	00000013          	nop
80002cf0:	f0000137          	lui	sp,0xf0000
80002cf4:	082ffc63          	bgeu	t6,sp,80002d8c <fail>
80002cf8:	00120213          	add	tp,tp,1 # 1 <_entry_offset+0x1>
80002cfc:	00200293          	li	t0,2
80002d00:	fe5212e3          	bne	tp,t0,80002ce4 <test_21+0x8>

80002d04 <test_22>:
80002d04:	01600e13          	li	t3,22
80002d08:	00000213          	li	tp,0
80002d0c:	f0000fb7          	lui	t6,0xf0000
80002d10:	ffff8f93          	add	t6,t6,-1 # efffffff <_end+0x6ffecfff>
80002d14:	00000013          	nop
80002d18:	f0000137          	lui	sp,0xf0000
80002d1c:	00000013          	nop
80002d20:	062ff663          	bgeu	t6,sp,80002d8c <fail>
80002d24:	00120213          	add	tp,tp,1 # 1 <_entry_offset+0x1>
80002d28:	00200293          	li	t0,2
80002d2c:	fe5210e3          	bne	tp,t0,80002d0c <test_22+0x8>

80002d30 <test_23>:
80002d30:	01700e13          	li	t3,23
80002d34:	00000213          	li	tp,0
80002d38:	f0000fb7          	lui	t6,0xf0000
80002d3c:	ffff8f93          	add	t6,t6,-1 # efffffff <_end+0x6ffecfff>
80002d40:	00000013          	nop
80002d44:	00000013          	nop
80002d48:	f0000137          	lui	sp,0xf0000
80002d4c:	042ff063          	bgeu	t6,sp,80002d8c <fail>
80002d50:	00120213          	add	tp,tp,1 # 1 <_entry_offset+0x1>
80002d54:	00200293          	li	t0,2
80002d58:	fe5210e3          	bne	tp,t0,80002d38 <test_23+0x8>

80002d5c <test_24>:
80002d5c:	00100f93          	li	t6,1
80002d60:	000ffa63          	bgeu	t6,zero,80002d74 <test_24+0x18>
80002d64:	001f8f93          	add	t6,t6,1
80002d68:	001f8f93          	add	t6,t6,1
80002d6c:	001f8f93          	add	t6,t6,1
80002d70:	001f8f93          	add	t6,t6,1
80002d74:	001f8f93          	add	t6,t6,1
80002d78:	001f8f93          	add	t6,t6,1
80002d7c:	00300e93          	li	t4,3
80002d80:	01800e13          	li	t3,24
80002d84:	01df9463          	bne	t6,t4,80002d8c <fail>
80002d88:	0100006f          	j	80002d98 <pass>

80002d8c <fail>:
80002d8c:	fff00513          	li	a0,-1
80002d90:	00100073          	ebreak
80002d94:	ff9ff06f          	j	80002d8c <fail>

80002d98 <pass>:
80002d98:	00000513          	li	a0,0
80002d9c:	00008067          	ret

80002da0 <srai>:
80002da0:	00000f93          	li	t6,0
80002da4:	400fd193          	sra	gp,t6,0x0
80002da8:	00000e93          	li	t4,0
80002dac:	00200e13          	li	t3,2
80002db0:	2bd19463          	bne	gp,t4,80003058 <fail>

80002db4 <test_3>:
80002db4:	80000fb7          	lui	t6,0x80000
80002db8:	401fd193          	sra	gp,t6,0x1
80002dbc:	c0000eb7          	lui	t4,0xc0000
80002dc0:	00300e13          	li	t3,3
80002dc4:	29d19a63          	bne	gp,t4,80003058 <fail>

80002dc8 <test_4>:
80002dc8:	80000fb7          	lui	t6,0x80000
80002dcc:	407fd193          	sra	gp,t6,0x7
80002dd0:	ff000eb7          	lui	t4,0xff000
80002dd4:	00400e13          	li	t3,4
80002dd8:	29d19063          	bne	gp,t4,80003058 <fail>

80002ddc <test_5>:
80002ddc:	80000fb7          	lui	t6,0x80000
80002de0:	40efd193          	sra	gp,t6,0xe
80002de4:	fffe0eb7          	lui	t4,0xfffe0
80002de8:	00500e13          	li	t3,5
80002dec:	27d19663          	bne	gp,t4,80003058 <fail>

80002df0 <test_6>:
80002df0:	80000fb7          	lui	t6,0x80000
80002df4:	001f8f93          	add	t6,t6,1 # 80000001 <_start+0x1>
80002df8:	41ffd193          	sra	gp,t6,0x1f
80002dfc:	fff00e93          	li	t4,-1
80002e00:	00600e13          	li	t3,6
80002e04:	25d19a63          	bne	gp,t4,80003058 <fail>

80002e08 <test_7>:
80002e08:	80000fb7          	lui	t6,0x80000
80002e0c:	ffff8f93          	add	t6,t6,-1 # 7fffffff <_entry_offset+0x7fffffff>
80002e10:	400fd193          	sra	gp,t6,0x0
80002e14:	80000eb7          	lui	t4,0x80000
80002e18:	fffe8e93          	add	t4,t4,-1 # 7fffffff <_entry_offset+0x7fffffff>
80002e1c:	00700e13          	li	t3,7
80002e20:	23d19c63          	bne	gp,t4,80003058 <fail>

80002e24 <test_8>:
80002e24:	80000fb7          	lui	t6,0x80000
80002e28:	ffff8f93          	add	t6,t6,-1 # 7fffffff <_entry_offset+0x7fffffff>
80002e2c:	401fd193          	sra	gp,t6,0x1
80002e30:	40000eb7          	lui	t4,0x40000
80002e34:	fffe8e93          	add	t4,t4,-1 # 3fffffff <_entry_offset+0x3fffffff>
80002e38:	00800e13          	li	t3,8
80002e3c:	21d19e63          	bne	gp,t4,80003058 <fail>

80002e40 <test_9>:
80002e40:	80000fb7          	lui	t6,0x80000
80002e44:	ffff8f93          	add	t6,t6,-1 # 7fffffff <_entry_offset+0x7fffffff>
80002e48:	407fd193          	sra	gp,t6,0x7
80002e4c:	01000eb7          	lui	t4,0x1000
80002e50:	fffe8e93          	add	t4,t4,-1 # ffffff <_entry_offset+0xffffff>
80002e54:	00900e13          	li	t3,9
80002e58:	21d19063          	bne	gp,t4,80003058 <fail>

80002e5c <test_10>:
80002e5c:	80000fb7          	lui	t6,0x80000
80002e60:	ffff8f93          	add	t6,t6,-1 # 7fffffff <_entry_offset+0x7fffffff>
80002e64:	40efd193          	sra	gp,t6,0xe
80002e68:	00020eb7          	lui	t4,0x20
80002e6c:	fffe8e93          	add	t4,t4,-1 # 1ffff <_entry_offset+0x1ffff>
80002e70:	00a00e13          	li	t3,10
80002e74:	1fd19263          	bne	gp,t4,80003058 <fail>

80002e78 <test_11>:
80002e78:	80000fb7          	lui	t6,0x80000
80002e7c:	ffff8f93          	add	t6,t6,-1 # 7fffffff <_entry_offset+0x7fffffff>
80002e80:	41ffd193          	sra	gp,t6,0x1f
80002e84:	00000e93          	li	t4,0
80002e88:	00b00e13          	li	t3,11
80002e8c:	1dd19663          	bne	gp,t4,80003058 <fail>

80002e90 <test_12>:
80002e90:	81818fb7          	lui	t6,0x81818
80002e94:	181f8f93          	add	t6,t6,385 # 81818181 <_end+0x1805181>
80002e98:	400fd193          	sra	gp,t6,0x0
80002e9c:	81818eb7          	lui	t4,0x81818
80002ea0:	181e8e93          	add	t4,t4,385 # 81818181 <_end+0x1805181>
80002ea4:	00c00e13          	li	t3,12
80002ea8:	1bd19863          	bne	gp,t4,80003058 <fail>

80002eac <test_13>:
80002eac:	81818fb7          	lui	t6,0x81818
80002eb0:	181f8f93          	add	t6,t6,385 # 81818181 <_end+0x1805181>
80002eb4:	401fd193          	sra	gp,t6,0x1
80002eb8:	c0c0ceb7          	lui	t4,0xc0c0c
80002ebc:	0c0e8e93          	add	t4,t4,192 # c0c0c0c0 <_end+0x40bf90c0>
80002ec0:	00d00e13          	li	t3,13
80002ec4:	19d19a63          	bne	gp,t4,80003058 <fail>

80002ec8 <test_14>:
80002ec8:	81818fb7          	lui	t6,0x81818
80002ecc:	181f8f93          	add	t6,t6,385 # 81818181 <_end+0x1805181>
80002ed0:	407fd193          	sra	gp,t6,0x7
80002ed4:	ff030eb7          	lui	t4,0xff030
80002ed8:	303e8e93          	add	t4,t4,771 # ff030303 <_end+0x7f01d303>
80002edc:	00e00e13          	li	t3,14
80002ee0:	17d19c63          	bne	gp,t4,80003058 <fail>

80002ee4 <test_15>:
80002ee4:	81818fb7          	lui	t6,0x81818
80002ee8:	181f8f93          	add	t6,t6,385 # 81818181 <_end+0x1805181>
80002eec:	40efd193          	sra	gp,t6,0xe
80002ef0:	fffe0eb7          	lui	t4,0xfffe0
80002ef4:	606e8e93          	add	t4,t4,1542 # fffe0606 <_end+0x7ffcd606>
80002ef8:	00f00e13          	li	t3,15
80002efc:	15d19e63          	bne	gp,t4,80003058 <fail>

80002f00 <test_16>:
80002f00:	81818fb7          	lui	t6,0x81818
80002f04:	181f8f93          	add	t6,t6,385 # 81818181 <_end+0x1805181>
80002f08:	41ffd193          	sra	gp,t6,0x1f
80002f0c:	fff00e93          	li	t4,-1
80002f10:	01000e13          	li	t3,16
80002f14:	15d19263          	bne	gp,t4,80003058 <fail>

80002f18 <test_17>:
80002f18:	80000fb7          	lui	t6,0x80000
80002f1c:	407fdf93          	sra	t6,t6,0x7
80002f20:	ff000eb7          	lui	t4,0xff000
80002f24:	01100e13          	li	t3,17
80002f28:	13df9863          	bne	t6,t4,80003058 <fail>

80002f2c <test_18>:
80002f2c:	00000213          	li	tp,0
80002f30:	80000fb7          	lui	t6,0x80000
80002f34:	407fd193          	sra	gp,t6,0x7
80002f38:	00018313          	mv	t1,gp
80002f3c:	00120213          	add	tp,tp,1 # 1 <_entry_offset+0x1>
80002f40:	00200293          	li	t0,2
80002f44:	fe5216e3          	bne	tp,t0,80002f30 <test_18+0x4>
80002f48:	ff000eb7          	lui	t4,0xff000
80002f4c:	01200e13          	li	t3,18
80002f50:	11d31463          	bne	t1,t4,80003058 <fail>

80002f54 <test_19>:
80002f54:	00000213          	li	tp,0
80002f58:	80000fb7          	lui	t6,0x80000
80002f5c:	40efd193          	sra	gp,t6,0xe
80002f60:	00000013          	nop
80002f64:	00018313          	mv	t1,gp
80002f68:	00120213          	add	tp,tp,1 # 1 <_entry_offset+0x1>
80002f6c:	00200293          	li	t0,2
80002f70:	fe5214e3          	bne	tp,t0,80002f58 <test_19+0x4>
80002f74:	fffe0eb7          	lui	t4,0xfffe0
80002f78:	01300e13          	li	t3,19
80002f7c:	0dd31e63          	bne	t1,t4,80003058 <fail>

80002f80 <test_20>:
80002f80:	00000213          	li	tp,0
80002f84:	80000fb7          	lui	t6,0x80000
80002f88:	001f8f93          	add	t6,t6,1 # 80000001 <_start+0x1>
80002f8c:	41ffd193          	sra	gp,t6,0x1f
80002f90:	00000013          	nop
80002f94:	00000013          	nop
80002f98:	00018313          	mv	t1,gp
80002f9c:	00120213          	add	tp,tp,1 # 1 <_entry_offset+0x1>
80002fa0:	00200293          	li	t0,2
80002fa4:	fe5210e3          	bne	tp,t0,80002f84 <test_20+0x4>
80002fa8:	fff00e93          	li	t4,-1
80002fac:	01400e13          	li	t3,20
80002fb0:	0bd31463          	bne	t1,t4,80003058 <fail>

80002fb4 <test_21>:
80002fb4:	00000213          	li	tp,0
80002fb8:	80000fb7          	lui	t6,0x80000
80002fbc:	407fd193          	sra	gp,t6,0x7
80002fc0:	00120213          	add	tp,tp,1 # 1 <_entry_offset+0x1>
80002fc4:	00200293          	li	t0,2
80002fc8:	fe5218e3          	bne	tp,t0,80002fb8 <test_21+0x4>
80002fcc:	ff000eb7          	lui	t4,0xff000
80002fd0:	01500e13          	li	t3,21
80002fd4:	09d19263          	bne	gp,t4,80003058 <fail>

80002fd8 <test_22>:
80002fd8:	00000213          	li	tp,0
80002fdc:	80000fb7          	lui	t6,0x80000
80002fe0:	00000013          	nop
80002fe4:	40efd193          	sra	gp,t6,0xe
80002fe8:	00120213          	add	tp,tp,1 # 1 <_entry_offset+0x1>
80002fec:	00200293          	li	t0,2
80002ff0:	fe5216e3          	bne	tp,t0,80002fdc <test_22+0x4>
80002ff4:	fffe0eb7          	lui	t4,0xfffe0
80002ff8:	01600e13          	li	t3,22
80002ffc:	05d19e63          	bne	gp,t4,80003058 <fail>

80003000 <test_23>:
80003000:	00000213          	li	tp,0
80003004:	80000fb7          	lui	t6,0x80000
80003008:	001f8f93          	add	t6,t6,1 # 80000001 <_start+0x1>
8000300c:	00000013          	nop
80003010:	00000013          	nop
80003014:	41ffd193          	sra	gp,t6,0x1f
80003018:	00120213          	add	tp,tp,1 # 1 <_entry_offset+0x1>
8000301c:	00200293          	li	t0,2
80003020:	fe5212e3          	bne	tp,t0,80003004 <test_23+0x4>
80003024:	fff00e93          	li	t4,-1
80003028:	01700e13          	li	t3,23
8000302c:	03d19663          	bne	gp,t4,80003058 <fail>

80003030 <test_24>:
80003030:	41f05f93          	sra	t6,zero,0x1f
80003034:	00000e93          	li	t4,0
80003038:	01800e13          	li	t3,24
8000303c:	01df9e63          	bne	t6,t4,80003058 <fail>

80003040 <test_25>:
80003040:	02100f93          	li	t6,33
80003044:	414fd013          	sra	zero,t6,0x14
80003048:	00000e93          	li	t4,0
8000304c:	01900e13          	li	t3,25
80003050:	01d01463          	bne	zero,t4,80003058 <fail>
80003054:	0100006f          	j	80003064 <pass>

80003058 <fail>:
80003058:	fff00513          	li	a0,-1
8000305c:	00100073          	ebreak
80003060:	ff9ff06f          	j	80003058 <fail>

80003064 <pass>:
80003064:	00000513          	li	a0,0
80003068:	00008067          	ret
8000306c:	0000                	.2byte	0x0
	...

80003070 <auipc>:
80003070:	00002517          	auipc	a0,0x2
80003074:	71c50513          	add	a0,a0,1820 # 8000578c <test_21+0x14>
80003078:	004005ef          	jal	a1,8000307c <auipc+0xc>
8000307c:	40b50533          	sub	a0,a0,a1
80003080:	00002eb7          	lui	t4,0x2
80003084:	710e8e93          	add	t4,t4,1808 # 2710 <_entry_offset+0x2710>
80003088:	00200e13          	li	t3,2
8000308c:	03d51463          	bne	a0,t4,800030b4 <fail>

80003090 <test_3>:
80003090:	ffffe517          	auipc	a0,0xffffe
80003094:	8fc50513          	add	a0,a0,-1796 # 8000098c <test_10>
80003098:	004005ef          	jal	a1,8000309c <test_3+0xc>
8000309c:	40b50533          	sub	a0,a0,a1
800030a0:	ffffeeb7          	lui	t4,0xffffe
800030a4:	8f0e8e93          	add	t4,t4,-1808 # ffffd8f0 <_end+0x7ffea8f0>
800030a8:	00300e13          	li	t3,3
800030ac:	01d51463          	bne	a0,t4,800030b4 <fail>
800030b0:	0100006f          	j	800030c0 <pass>

800030b4 <fail>:
800030b4:	fff00513          	li	a0,-1
800030b8:	00100073          	ebreak
800030bc:	ff9ff06f          	j	800030b4 <fail>

800030c0 <pass>:
800030c0:	00000513          	li	a0,0
800030c4:	00008067          	ret

800030c8 <xori>:
800030c8:	00ff1fb7          	lui	t6,0xff1
800030cc:	f00f8f93          	add	t6,t6,-256 # ff0f00 <_entry_offset+0xff0f00>
800030d0:	f0ffc193          	xor	gp,t6,-241
800030d4:	ff00feb7          	lui	t4,0xff00f
800030d8:	00fe8e93          	add	t4,t4,15 # ff00f00f <_end+0x7effc00f>
800030dc:	00200e13          	li	t3,2
800030e0:	1dd19663          	bne	gp,t4,800032ac <fail>

800030e4 <test_3>:
800030e4:	0ff01fb7          	lui	t6,0xff01
800030e8:	ff0f8f93          	add	t6,t6,-16 # ff00ff0 <_entry_offset+0xff00ff0>
800030ec:	0f0fc193          	xor	gp,t6,240
800030f0:	0ff01eb7          	lui	t4,0xff01
800030f4:	f00e8e93          	add	t4,t4,-256 # ff00f00 <_entry_offset+0xff00f00>
800030f8:	00300e13          	li	t3,3
800030fc:	1bd19863          	bne	gp,t4,800032ac <fail>

80003100 <test_4>:
80003100:	00ff1fb7          	lui	t6,0xff1
80003104:	8fff8f93          	add	t6,t6,-1793 # ff08ff <_entry_offset+0xff08ff>
80003108:	70ffc193          	xor	gp,t6,1807
8000310c:	00ff1eb7          	lui	t4,0xff1
80003110:	ff0e8e93          	add	t4,t4,-16 # ff0ff0 <_entry_offset+0xff0ff0>
80003114:	00400e13          	li	t3,4
80003118:	19d19a63          	bne	gp,t4,800032ac <fail>

8000311c <test_5>:
8000311c:	f00fffb7          	lui	t6,0xf00ff
80003120:	00ff8f93          	add	t6,t6,15 # f00ff00f <_end+0x700ec00f>
80003124:	0f0fc193          	xor	gp,t6,240
80003128:	f00ffeb7          	lui	t4,0xf00ff
8000312c:	0ffe8e93          	add	t4,t4,255 # f00ff0ff <_end+0x700ec0ff>
80003130:	00500e13          	li	t3,5
80003134:	17d19c63          	bne	gp,t4,800032ac <fail>

80003138 <test_6>:
80003138:	ff00ffb7          	lui	t6,0xff00f
8000313c:	700f8f93          	add	t6,t6,1792 # ff00f700 <_end+0x7effc700>
80003140:	70ffcf93          	xor	t6,t6,1807
80003144:	ff00feb7          	lui	t4,0xff00f
80003148:	00fe8e93          	add	t4,t4,15 # ff00f00f <_end+0x7effc00f>
8000314c:	00600e13          	li	t3,6
80003150:	15df9e63          	bne	t6,t4,800032ac <fail>

80003154 <test_7>:
80003154:	00000213          	li	tp,0
80003158:	0ff01fb7          	lui	t6,0xff01
8000315c:	ff0f8f93          	add	t6,t6,-16 # ff00ff0 <_entry_offset+0xff00ff0>
80003160:	0f0fc193          	xor	gp,t6,240
80003164:	00018313          	mv	t1,gp
80003168:	00120213          	add	tp,tp,1 # 1 <_entry_offset+0x1>
8000316c:	00200293          	li	t0,2
80003170:	fe5214e3          	bne	tp,t0,80003158 <test_7+0x4>
80003174:	0ff01eb7          	lui	t4,0xff01
80003178:	f00e8e93          	add	t4,t4,-256 # ff00f00 <_entry_offset+0xff00f00>
8000317c:	00700e13          	li	t3,7
80003180:	13d31663          	bne	t1,t4,800032ac <fail>

80003184 <test_8>:
80003184:	00000213          	li	tp,0
80003188:	00ff1fb7          	lui	t6,0xff1
8000318c:	8fff8f93          	add	t6,t6,-1793 # ff08ff <_entry_offset+0xff08ff>
80003190:	70ffc193          	xor	gp,t6,1807
80003194:	00000013          	nop
80003198:	00018313          	mv	t1,gp
8000319c:	00120213          	add	tp,tp,1 # 1 <_entry_offset+0x1>
800031a0:	00200293          	li	t0,2
800031a4:	fe5212e3          	bne	tp,t0,80003188 <test_8+0x4>
800031a8:	00ff1eb7          	lui	t4,0xff1
800031ac:	ff0e8e93          	add	t4,t4,-16 # ff0ff0 <_entry_offset+0xff0ff0>
800031b0:	00800e13          	li	t3,8
800031b4:	0fd31c63          	bne	t1,t4,800032ac <fail>

800031b8 <test_9>:
800031b8:	00000213          	li	tp,0
800031bc:	f00fffb7          	lui	t6,0xf00ff
800031c0:	00ff8f93          	add	t6,t6,15 # f00ff00f <_end+0x700ec00f>
800031c4:	0f0fc193          	xor	gp,t6,240
800031c8:	00000013          	nop
800031cc:	00000013          	nop
800031d0:	00018313          	mv	t1,gp
800031d4:	00120213          	add	tp,tp,1 # 1 <_entry_offset+0x1>
800031d8:	00200293          	li	t0,2
800031dc:	fe5210e3          	bne	tp,t0,800031bc <test_9+0x4>
800031e0:	f00ffeb7          	lui	t4,0xf00ff
800031e4:	0ffe8e93          	add	t4,t4,255 # f00ff0ff <_end+0x700ec0ff>
800031e8:	00900e13          	li	t3,9
800031ec:	0dd31063          	bne	t1,t4,800032ac <fail>

800031f0 <test_10>:
800031f0:	00000213          	li	tp,0
800031f4:	0ff01fb7          	lui	t6,0xff01
800031f8:	ff0f8f93          	add	t6,t6,-16 # ff00ff0 <_entry_offset+0xff00ff0>
800031fc:	0f0fc193          	xor	gp,t6,240
80003200:	00120213          	add	tp,tp,1 # 1 <_entry_offset+0x1>
80003204:	00200293          	li	t0,2
80003208:	fe5216e3          	bne	tp,t0,800031f4 <test_10+0x4>
8000320c:	0ff01eb7          	lui	t4,0xff01
80003210:	f00e8e93          	add	t4,t4,-256 # ff00f00 <_entry_offset+0xff00f00>
80003214:	00a00e13          	li	t3,10
80003218:	09d19a63          	bne	gp,t4,800032ac <fail>

8000321c <test_11>:
8000321c:	00000213          	li	tp,0
80003220:	00ff1fb7          	lui	t6,0xff1
80003224:	ffff8f93          	add	t6,t6,-1 # ff0fff <_entry_offset+0xff0fff>
80003228:	00000013          	nop
8000322c:	00ffc193          	xor	gp,t6,15
80003230:	00120213          	add	tp,tp,1 # 1 <_entry_offset+0x1>
80003234:	00200293          	li	t0,2
80003238:	fe5214e3          	bne	tp,t0,80003220 <test_11+0x4>
8000323c:	00ff1eb7          	lui	t4,0xff1
80003240:	ff0e8e93          	add	t4,t4,-16 # ff0ff0 <_entry_offset+0xff0ff0>
80003244:	00b00e13          	li	t3,11
80003248:	07d19263          	bne	gp,t4,800032ac <fail>

8000324c <test_12>:
8000324c:	00000213          	li	tp,0
80003250:	f00fffb7          	lui	t6,0xf00ff
80003254:	00ff8f93          	add	t6,t6,15 # f00ff00f <_end+0x700ec00f>
80003258:	00000013          	nop
8000325c:	00000013          	nop
80003260:	0f0fc193          	xor	gp,t6,240
80003264:	00120213          	add	tp,tp,1 # 1 <_entry_offset+0x1>
80003268:	00200293          	li	t0,2
8000326c:	fe5212e3          	bne	tp,t0,80003250 <test_12+0x4>
80003270:	f00ffeb7          	lui	t4,0xf00ff
80003274:	0ffe8e93          	add	t4,t4,255 # f00ff0ff <_end+0x700ec0ff>
80003278:	00c00e13          	li	t3,12
8000327c:	03d19863          	bne	gp,t4,800032ac <fail>

80003280 <test_13>:
80003280:	0f004f93          	xor	t6,zero,240
80003284:	0f000e93          	li	t4,240
80003288:	00d00e13          	li	t3,13
8000328c:	03df9063          	bne	t6,t4,800032ac <fail>

80003290 <test_14>:
80003290:	00ff0fb7          	lui	t6,0xff0
80003294:	0fff8f93          	add	t6,t6,255 # ff00ff <_entry_offset+0xff00ff>
80003298:	70ffc013          	xor	zero,t6,1807
8000329c:	00000e93          	li	t4,0
800032a0:	00e00e13          	li	t3,14
800032a4:	01d01463          	bne	zero,t4,800032ac <fail>
800032a8:	0100006f          	j	800032b8 <pass>

800032ac <fail>:
800032ac:	fff00513          	li	a0,-1
800032b0:	00100073          	ebreak
800032b4:	ff9ff06f          	j	800032ac <fail>

800032b8 <pass>:
800032b8:	00000513          	li	a0,0
800032bc:	00008067          	ret

800032c0 <csrrw>:
800032c0:	003ba737          	lui	a4,0x3ba
800032c4:	a5970713          	add	a4,a4,-1447 # 3b9a59 <_entry_offset+0x3b9a59>
800032c8:	30071073          	csrw	mstatus,a4
800032cc:	00253737          	lui	a4,0x253
800032d0:	03370713          	add	a4,a4,51 # 253033 <_entry_offset+0x253033>
800032d4:	30071073          	csrw	mstatus,a4
800032d8:	30002973          	csrr	s2,mstatus
800032dc:	00253fb7          	lui	t6,0x253
800032e0:	033f8f93          	add	t6,t6,51 # 253033 <_entry_offset+0x253033>
800032e4:	6df91c63          	bne	s2,t6,800039bc <fail>

800032e8 <test_1>:
800032e8:	800001b7          	lui	gp,0x80000
800032ec:	00e18193          	add	gp,gp,14 # 8000000e <_start+0xe>
800032f0:	34219073          	csrw	mcause,gp
800032f4:	800001b7          	lui	gp,0x80000
800032f8:	00818193          	add	gp,gp,8 # 80000008 <_start+0x8>
800032fc:	34219073          	csrw	mcause,gp
80003300:	34202773          	csrr	a4,mcause
80003304:	80000fb7          	lui	t6,0x80000
80003308:	008f8f93          	add	t6,t6,8 # 80000008 <_start+0x8>
8000330c:	6bf71863          	bne	a4,t6,800039bc <fail>

80003310 <test_2>:
80003310:	00400293          	li	t0,4
80003314:	34229073          	csrw	mcause,t0
80003318:	00200293          	li	t0,2
8000331c:	34229073          	csrw	mcause,t0
80003320:	342027f3          	csrr	a5,mcause
80003324:	00200f93          	li	t6,2
80003328:	69f79a63          	bne	a5,t6,800039bc <fail>

8000332c <test_3>:
8000332c:	00900613          	li	a2,9
80003330:	34261073          	csrw	mcause,a2
80003334:	80000637          	lui	a2,0x80000
80003338:	00f60613          	add	a2,a2,15 # 8000000f <_start+0xf>
8000333c:	34261073          	csrw	mcause,a2
80003340:	34202e73          	csrr	t3,mcause
80003344:	80000fb7          	lui	t6,0x80000
80003348:	00ff8f93          	add	t6,t6,15 # 8000000f <_start+0xf>
8000334c:	67fe1863          	bne	t3,t6,800039bc <fail>

80003350 <test_4>:
80003350:	8023f837          	lui	a6,0x8023f
80003354:	43380813          	add	a6,a6,1075 # 8023f433 <_end+0x22c433>
80003358:	30081073          	csrw	mstatus,a6
8000335c:	80012837          	lui	a6,0x80012
80003360:	4e680813          	add	a6,a6,1254 # 800124e6 <_stack_top+0x74e6>
80003364:	30081073          	csrw	mstatus,a6
80003368:	300024f3          	csrr	s1,mstatus
8000336c:	80012fb7          	lui	t6,0x80012
80003370:	4e6f8f93          	add	t6,t6,1254 # 800124e6 <_stack_top+0x74e6>
80003374:	65f49463          	bne	s1,t6,800039bc <fail>

80003378 <test_5>:
80003378:	590b7437          	lui	s0,0x590b7
8000337c:	2e040413          	add	s0,s0,736 # 590b72e0 <_entry_offset+0x590b72e0>
80003380:	34141073          	csrw	mepc,s0
80003384:	916c7437          	lui	s0,0x916c7
80003388:	a0d40413          	add	s0,s0,-1523 # 916c6a0d <_end+0x116b3a0d>
8000338c:	34141073          	csrw	mepc,s0
80003390:	34102a73          	csrr	s4,mepc
80003394:	916c7fb7          	lui	t6,0x916c7
80003398:	a0df8f93          	add	t6,t6,-1523 # 916c6a0d <_end+0x116b3a0d>
8000339c:	63fa1063          	bne	s4,t6,800039bc <fail>

800033a0 <test_6>:
800033a0:	08f8a6b7          	lui	a3,0x8f8a
800033a4:	9c868693          	add	a3,a3,-1592 # 8f899c8 <_entry_offset+0x8f899c8>
800033a8:	30569073          	csrw	mtvec,a3
800033ac:	341146b7          	lui	a3,0x34114
800033b0:	ae868693          	add	a3,a3,-1304 # 34113ae8 <_entry_offset+0x34113ae8>
800033b4:	30569073          	csrw	mtvec,a3
800033b8:	30502873          	csrr	a6,mtvec
800033bc:	34114fb7          	lui	t6,0x34114
800033c0:	ae8f8f93          	add	t6,t6,-1304 # 34113ae8 <_entry_offset+0x34113ae8>
800033c4:	5ff81c63          	bne	a6,t6,800039bc <fail>

800033c8 <test_7>:
800033c8:	c26beeb7          	lui	t4,0xc26be
800033cc:	ae4e8e93          	add	t4,t4,-1308 # c26bdae4 <_end+0x426aaae4>
800033d0:	305e9073          	csrw	mtvec,t4
800033d4:	0baefeb7          	lui	t4,0xbaef
800033d8:	998e8e93          	add	t4,t4,-1640 # baee998 <_entry_offset+0xbaee998>
800033dc:	305e9073          	csrw	mtvec,t4
800033e0:	30502a73          	csrr	s4,mtvec
800033e4:	0baeffb7          	lui	t6,0xbaef
800033e8:	998f8f93          	add	t6,t6,-1640 # baee998 <_entry_offset+0xbaee998>
800033ec:	5dfa1863          	bne	s4,t6,800039bc <fail>

800033f0 <test_8>:
800033f0:	e5c75ab7          	lui	s5,0xe5c75
800033f4:	420a8a93          	add	s5,s5,1056 # e5c75420 <_end+0x65c62420>
800033f8:	305a9073          	csrw	mtvec,s5
800033fc:	393feab7          	lui	s5,0x393fe
80003400:	6e4a8a93          	add	s5,s5,1764 # 393fe6e4 <_entry_offset+0x393fe6e4>
80003404:	305a9073          	csrw	mtvec,s5
80003408:	30502573          	csrr	a0,mtvec
8000340c:	393fefb7          	lui	t6,0x393fe
80003410:	6e4f8f93          	add	t6,t6,1764 # 393fe6e4 <_entry_offset+0x393fe6e4>
80003414:	5bf51463          	bne	a0,t6,800039bc <fail>

80003418 <test_9>:
80003418:	00308bb7          	lui	s7,0x308
8000341c:	763b8b93          	add	s7,s7,1891 # 308763 <_entry_offset+0x308763>
80003420:	300b9073          	csrw	mstatus,s7
80003424:	8035bbb7          	lui	s7,0x8035b
80003428:	d99b8b93          	add	s7,s7,-615 # 8035ad99 <_end+0x347d99>
8000342c:	300b9073          	csrw	mstatus,s7
80003430:	30002473          	csrr	s0,mstatus
80003434:	8035bfb7          	lui	t6,0x8035b
80003438:	d99f8f93          	add	t6,t6,-615 # 8035ad99 <_end+0x347d99>
8000343c:	59f41063          	bne	s0,t6,800039bc <fail>

80003440 <test_10>:
80003440:	916ff9b7          	lui	s3,0x916ff
80003444:	b9898993          	add	s3,s3,-1128 # 916feb98 <_end+0x116ebb98>
80003448:	30599073          	csrw	mtvec,s3
8000344c:	cb3259b7          	lui	s3,0xcb325
80003450:	73498993          	add	s3,s3,1844 # cb325734 <_end+0x4b312734>
80003454:	30599073          	csrw	mtvec,s3
80003458:	30502cf3          	csrr	s9,mtvec
8000345c:	cb325fb7          	lui	t6,0xcb325
80003460:	734f8f93          	add	t6,t6,1844 # cb325734 <_end+0x4b312734>
80003464:	55fc9c63          	bne	s9,t6,800039bc <fail>

80003468 <test_11>:
80003468:	801b54b7          	lui	s1,0x801b5
8000346c:	00b48493          	add	s1,s1,11 # 801b500b <_end+0x1a200b>
80003470:	30049073          	csrw	mstatus,s1
80003474:	8010b4b7          	lui	s1,0x8010b
80003478:	03e48493          	add	s1,s1,62 # 8010b03e <_end+0xf803e>
8000347c:	30049073          	csrw	mstatus,s1
80003480:	30002a73          	csrr	s4,mstatus
80003484:	8010bfb7          	lui	t6,0x8010b
80003488:	03ef8f93          	add	t6,t6,62 # 8010b03e <_end+0xf803e>
8000348c:	53fa1863          	bne	s4,t6,800039bc <fail>

80003490 <test_12>:
80003490:	003a1cb7          	lui	s9,0x3a1
80003494:	801c8c93          	add	s9,s9,-2047 # 3a0801 <_entry_offset+0x3a0801>
80003498:	300c9073          	csrw	mstatus,s9
8000349c:	800cbcb7          	lui	s9,0x800cb
800034a0:	597c8c93          	add	s9,s9,1431 # 800cb597 <_end+0xb8597>
800034a4:	300c9073          	csrw	mstatus,s9
800034a8:	30002af3          	csrr	s5,mstatus
800034ac:	800cbfb7          	lui	t6,0x800cb
800034b0:	597f8f93          	add	t6,t6,1431 # 800cb597 <_end+0xb8597>
800034b4:	51fa9463          	bne	s5,t6,800039bc <fail>

800034b8 <test_13>:
800034b8:	80000bb7          	lui	s7,0x80000
800034bc:	00fb8b93          	add	s7,s7,15 # 8000000f <_start+0xf>
800034c0:	342b9073          	csrw	mcause,s7
800034c4:	00200b93          	li	s7,2
800034c8:	342b9073          	csrw	mcause,s7
800034cc:	342022f3          	csrr	t0,mcause
800034d0:	00200f93          	li	t6,2
800034d4:	4ff29463          	bne	t0,t6,800039bc <fail>

800034d8 <test_14>:
800034d8:	cf7ef7b7          	lui	a5,0xcf7ef
800034dc:	83c78793          	add	a5,a5,-1988 # cf7ee83c <_end+0x4f7db83c>
800034e0:	30579073          	csrw	mtvec,a5
800034e4:	30ffb7b7          	lui	a5,0x30ffb
800034e8:	7a478793          	add	a5,a5,1956 # 30ffb7a4 <_entry_offset+0x30ffb7a4>
800034ec:	30579073          	csrw	mtvec,a5
800034f0:	30502b73          	csrr	s6,mtvec
800034f4:	30ffbfb7          	lui	t6,0x30ffb
800034f8:	7a4f8f93          	add	t6,t6,1956 # 30ffb7a4 <_entry_offset+0x30ffb7a4>
800034fc:	4dfb1063          	bne	s6,t6,800039bc <fail>

80003500 <test_15>:
80003500:	e814c937          	lui	s2,0xe814c
80003504:	b5c90913          	add	s2,s2,-1188 # e814bb5c <_end+0x68138b5c>
80003508:	30591073          	csrw	mtvec,s2
8000350c:	2d989937          	lui	s2,0x2d989
80003510:	84490913          	add	s2,s2,-1980 # 2d988844 <_entry_offset+0x2d988844>
80003514:	30591073          	csrw	mtvec,s2
80003518:	30502f73          	csrr	t5,mtvec
8000351c:	2d989fb7          	lui	t6,0x2d989
80003520:	844f8f93          	add	t6,t6,-1980 # 2d988844 <_entry_offset+0x2d988844>
80003524:	49ff1c63          	bne	t5,t6,800039bc <fail>

80003528 <test_16>:
80003528:	1be29b37          	lui	s6,0x1be29
8000352c:	dd8b0b13          	add	s6,s6,-552 # 1be28dd8 <_entry_offset+0x1be28dd8>
80003530:	305b1073          	csrw	mtvec,s6
80003534:	d63cbb37          	lui	s6,0xd63cb
80003538:	920b0b13          	add	s6,s6,-1760 # d63ca920 <_end+0x563b7920>
8000353c:	305b1073          	csrw	mtvec,s6
80003540:	305021f3          	csrr	gp,mtvec
80003544:	d63cbfb7          	lui	t6,0xd63cb
80003548:	920f8f93          	add	t6,t6,-1760 # d63ca920 <_end+0x563b7920>
8000354c:	47f19863          	bne	gp,t6,800039bc <fail>

80003550 <test_17>:
80003550:	00024db7          	lui	s11,0x24
80003554:	dbad8d93          	add	s11,s11,-582 # 23dba <_entry_offset+0x23dba>
80003558:	300d9073          	csrw	mstatus,s11
8000355c:	80127db7          	lui	s11,0x80127
80003560:	3e2d8d93          	add	s11,s11,994 # 801273e2 <_end+0x1143e2>
80003564:	300d9073          	csrw	mstatus,s11
80003568:	30002a73          	csrr	s4,mstatus
8000356c:	80127fb7          	lui	t6,0x80127
80003570:	3e2f8f93          	add	t6,t6,994 # 801273e2 <_end+0x1143e2>
80003574:	45fa1463          	bne	s4,t6,800039bc <fail>

80003578 <test_18>:
80003578:	2e9b57b7          	lui	a5,0x2e9b5
8000357c:	b2078793          	add	a5,a5,-1248 # 2e9b4b20 <_entry_offset+0x2e9b4b20>
80003580:	34179073          	csrw	mepc,a5
80003584:	106f27b7          	lui	a5,0x106f2
80003588:	34a78793          	add	a5,a5,842 # 106f234a <_entry_offset+0x106f234a>
8000358c:	34179073          	csrw	mepc,a5
80003590:	34102e73          	csrr	t3,mepc
80003594:	106f2fb7          	lui	t6,0x106f2
80003598:	34af8f93          	add	t6,t6,842 # 106f234a <_entry_offset+0x106f234a>
8000359c:	43fe1063          	bne	t3,t6,800039bc <fail>

800035a0 <test_19>:
800035a0:	965d5437          	lui	s0,0x965d5
800035a4:	d9440413          	add	s0,s0,-620 # 965d4d94 <_end+0x165c1d94>
800035a8:	30541073          	csrw	mtvec,s0
800035ac:	c0b68437          	lui	s0,0xc0b68
800035b0:	b2040413          	add	s0,s0,-1248 # c0b67b20 <_end+0x40b54b20>
800035b4:	30541073          	csrw	mtvec,s0
800035b8:	305028f3          	csrr	a7,mtvec
800035bc:	c0b68fb7          	lui	t6,0xc0b68
800035c0:	b20f8f93          	add	t6,t6,-1248 # c0b67b20 <_end+0x40b54b20>
800035c4:	3ff89c63          	bne	a7,t6,800039bc <fail>

800035c8 <test_20>:
800035c8:	00800993          	li	s3,8
800035cc:	34299073          	csrw	mcause,s3
800035d0:	00d00993          	li	s3,13
800035d4:	34299073          	csrw	mcause,s3
800035d8:	342029f3          	csrr	s3,mcause
800035dc:	00d00f93          	li	t6,13
800035e0:	3df99e63          	bne	s3,t6,800039bc <fail>

800035e4 <test_21>:
800035e4:	b6f1ceb7          	lui	t4,0xb6f1c
800035e8:	9a0e8e93          	add	t4,t4,-1632 # b6f1b9a0 <_end+0x36f089a0>
800035ec:	305e9073          	csrw	mtvec,t4
800035f0:	32987eb7          	lui	t4,0x32987
800035f4:	104e8e93          	add	t4,t4,260 # 32987104 <_entry_offset+0x32987104>
800035f8:	305e9073          	csrw	mtvec,t4
800035fc:	30502ef3          	csrr	t4,mtvec
80003600:	32987fb7          	lui	t6,0x32987
80003604:	104f8f93          	add	t6,t6,260 # 32987104 <_entry_offset+0x32987104>
80003608:	3bfe9a63          	bne	t4,t6,800039bc <fail>

8000360c <test_22>:
8000360c:	800007b7          	lui	a5,0x80000
80003610:	00578793          	add	a5,a5,5 # 80000005 <_start+0x5>
80003614:	34279073          	csrw	mcause,a5
80003618:	800007b7          	lui	a5,0x80000
8000361c:	00778793          	add	a5,a5,7 # 80000007 <_start+0x7>
80003620:	34279073          	csrw	mcause,a5
80003624:	342027f3          	csrr	a5,mcause
80003628:	80000fb7          	lui	t6,0x80000
8000362c:	007f8f93          	add	t6,t6,7 # 80000007 <_start+0x7>
80003630:	39f79663          	bne	a5,t6,800039bc <fail>

80003634 <test_23>:
80003634:	80377ab7          	lui	s5,0x80377
80003638:	b78a8a93          	add	s5,s5,-1160 # 80376b78 <_end+0x363b78>
8000363c:	300a9073          	csrw	mstatus,s5
80003640:	80382ab7          	lui	s5,0x80382
80003644:	50fa8a93          	add	s5,s5,1295 # 8038250f <_end+0x36f50f>
80003648:	300a9073          	csrw	mstatus,s5
8000364c:	30002af3          	csrr	s5,mstatus
80003650:	80382fb7          	lui	t6,0x80382
80003654:	50ff8f93          	add	t6,t6,1295 # 8038250f <_end+0x36f50f>
80003658:	37fa9263          	bne	s5,t6,800039bc <fail>

8000365c <test_24>:
8000365c:	800508b7          	lui	a7,0x80050
80003660:	b0b88893          	add	a7,a7,-1269 # 8004fb0b <_end+0x3cb0b>
80003664:	30089073          	csrw	mstatus,a7
80003668:	801a08b7          	lui	a7,0x801a0
8000366c:	e6688893          	add	a7,a7,-410 # 8019fe66 <_end+0x18ce66>
80003670:	30089073          	csrw	mstatus,a7
80003674:	300028f3          	csrr	a7,mstatus
80003678:	801a0fb7          	lui	t6,0x801a0
8000367c:	e66f8f93          	add	t6,t6,-410 # 8019fe66 <_end+0x18ce66>
80003680:	33f89e63          	bne	a7,t6,800039bc <fail>

80003684 <test_25>:
80003684:	00400413          	li	s0,4
80003688:	34241073          	csrw	mcause,s0
8000368c:	00300413          	li	s0,3
80003690:	34241073          	csrw	mcause,s0
80003694:	34202d73          	csrr	s10,mcause
80003698:	00300f93          	li	t6,3
8000369c:	33fd1063          	bne	s10,t6,800039bc <fail>

800036a0 <test_26>:
800036a0:	89429637          	lui	a2,0x89429
800036a4:	c1860613          	add	a2,a2,-1000 # 89428c18 <_end+0x9415c18>
800036a8:	00000013          	nop
800036ac:	30561073          	csrw	mtvec,a2
800036b0:	00000013          	nop
800036b4:	5b2ab637          	lui	a2,0x5b2ab
800036b8:	5b860613          	add	a2,a2,1464 # 5b2ab5b8 <_entry_offset+0x5b2ab5b8>
800036bc:	00000013          	nop
800036c0:	30561073          	csrw	mtvec,a2
800036c4:	00000013          	nop
800036c8:	30502b73          	csrr	s6,mtvec
800036cc:	00000013          	nop
800036d0:	5b2abfb7          	lui	t6,0x5b2ab
800036d4:	5b8f8f93          	add	t6,t6,1464 # 5b2ab5b8 <_entry_offset+0x5b2ab5b8>
800036d8:	2ffb1263          	bne	s6,t6,800039bc <fail>

800036dc <test_27>:
800036dc:	a497d6b7          	lui	a3,0xa497d
800036e0:	bba68693          	add	a3,a3,-1094 # a497cbba <_end+0x24969bba>
800036e4:	00000013          	nop
800036e8:	00000013          	nop
800036ec:	34169073          	csrw	mepc,a3
800036f0:	00000013          	nop
800036f4:	00000013          	nop
800036f8:	6b38c6b7          	lui	a3,0x6b38c
800036fc:	d1868693          	add	a3,a3,-744 # 6b38bd18 <_entry_offset+0x6b38bd18>
80003700:	00000013          	nop
80003704:	00000013          	nop
80003708:	34169073          	csrw	mepc,a3
8000370c:	00000013          	nop
80003710:	00000013          	nop
80003714:	34102af3          	csrr	s5,mepc
80003718:	00000013          	nop
8000371c:	00000013          	nop
80003720:	6b38cfb7          	lui	t6,0x6b38c
80003724:	d18f8f93          	add	t6,t6,-744 # 6b38bd18 <_entry_offset+0x6b38bd18>
80003728:	29fa9a63          	bne	s5,t6,800039bc <fail>

8000372c <test_28>:
8000372c:	00800713          	li	a4,8
80003730:	00000013          	nop
80003734:	00000013          	nop
80003738:	00000013          	nop
8000373c:	34271073          	csrw	mcause,a4
80003740:	00000013          	nop
80003744:	00000013          	nop
80003748:	00000013          	nop
8000374c:	80000737          	lui	a4,0x80000
80003750:	00b70713          	add	a4,a4,11 # 8000000b <_start+0xb>
80003754:	00000013          	nop
80003758:	00000013          	nop
8000375c:	00000013          	nop
80003760:	34271073          	csrw	mcause,a4
80003764:	00000013          	nop
80003768:	00000013          	nop
8000376c:	00000013          	nop
80003770:	34202ef3          	csrr	t4,mcause
80003774:	00000013          	nop
80003778:	00000013          	nop
8000377c:	00000013          	nop
80003780:	80000fb7          	lui	t6,0x80000
80003784:	00bf8f93          	add	t6,t6,11 # 8000000b <_start+0xb>
80003788:	23fe9a63          	bne	t4,t6,800039bc <fail>

8000378c <test_29>:
8000378c:	95608cb7          	lui	s9,0x95608
80003790:	e60c8c93          	add	s9,s9,-416 # 95607e60 <_end+0x155f4e60>
80003794:	00000013          	nop
80003798:	00000013          	nop
8000379c:	00000013          	nop
800037a0:	00000013          	nop
800037a4:	341c9073          	csrw	mepc,s9
800037a8:	00000013          	nop
800037ac:	00000013          	nop
800037b0:	00000013          	nop
800037b4:	00000013          	nop
800037b8:	bd8d3cb7          	lui	s9,0xbd8d3
800037bc:	ba9c8c93          	add	s9,s9,-1111 # bd8d2ba9 <_end+0x3d8bfba9>
800037c0:	00000013          	nop
800037c4:	00000013          	nop
800037c8:	00000013          	nop
800037cc:	00000013          	nop
800037d0:	341c9073          	csrw	mepc,s9
800037d4:	00000013          	nop
800037d8:	00000013          	nop
800037dc:	00000013          	nop
800037e0:	00000013          	nop
800037e4:	341028f3          	csrr	a7,mepc
800037e8:	00000013          	nop
800037ec:	00000013          	nop
800037f0:	00000013          	nop
800037f4:	00000013          	nop
800037f8:	bd8d3fb7          	lui	t6,0xbd8d3
800037fc:	ba9f8f93          	add	t6,t6,-1111 # bd8d2ba9 <_end+0x3d8bfba9>
80003800:	1bf89e63          	bne	a7,t6,800039bc <fail>

80003804 <test_30>:
80003804:	1b63bbb7          	lui	s7,0x1b63b
80003808:	ba8b8b93          	add	s7,s7,-1112 # 1b63aba8 <_entry_offset+0x1b63aba8>
8000380c:	00000013          	nop
80003810:	00000013          	nop
80003814:	00000013          	nop
80003818:	00000013          	nop
8000381c:	00000013          	nop
80003820:	305b9073          	csrw	mtvec,s7
80003824:	00000013          	nop
80003828:	00000013          	nop
8000382c:	00000013          	nop
80003830:	00000013          	nop
80003834:	00000013          	nop
80003838:	da65bbb7          	lui	s7,0xda65b
8000383c:	af0b8b93          	add	s7,s7,-1296 # da65aaf0 <_end+0x5a647af0>
80003840:	00000013          	nop
80003844:	00000013          	nop
80003848:	00000013          	nop
8000384c:	00000013          	nop
80003850:	00000013          	nop
80003854:	305b9073          	csrw	mtvec,s7
80003858:	00000013          	nop
8000385c:	00000013          	nop
80003860:	00000013          	nop
80003864:	00000013          	nop
80003868:	00000013          	nop
8000386c:	30502ef3          	csrr	t4,mtvec
80003870:	00000013          	nop
80003874:	00000013          	nop
80003878:	00000013          	nop
8000387c:	00000013          	nop
80003880:	00000013          	nop
80003884:	da65bfb7          	lui	t6,0xda65b
80003888:	af0f8f93          	add	t6,t6,-1296 # da65aaf0 <_end+0x5a647af0>
8000388c:	13fe9863          	bne	t4,t6,800039bc <fail>

80003890 <test_31>:
80003890:	9f945b37          	lui	s6,0x9f945
80003894:	fe4b0b13          	add	s6,s6,-28 # 9f944fe4 <_end+0x1f931fe4>
80003898:	305b1073          	csrw	mtvec,s6
8000389c:	33c18b37          	lui	s6,0x33c18
800038a0:	e74b0b13          	add	s6,s6,-396 # 33c17e74 <_entry_offset+0x33c17e74>
800038a4:	30501073          	csrw	mtvec,zero
800038a8:	30502bf3          	csrr	s7,mtvec
800038ac:	00000f93          	li	t6,0
800038b0:	11fb9663          	bne	s7,t6,800039bc <fail>

800038b4 <test_32>:
800038b4:	31d744b7          	lui	s1,0x31d74
800038b8:	1bc48493          	add	s1,s1,444 # 31d741bc <_entry_offset+0x31d741bc>
800038bc:	30549073          	csrw	mtvec,s1
800038c0:	fcc844b7          	lui	s1,0xfcc84
800038c4:	4c048493          	add	s1,s1,1216 # fcc844c0 <_end+0x7cc714c0>
800038c8:	30501073          	csrw	mtvec,zero
800038cc:	305029f3          	csrr	s3,mtvec
800038d0:	00000f93          	li	t6,0
800038d4:	0ff99463          	bne	s3,t6,800039bc <fail>

800038d8 <test_33>:
800038d8:	00395237          	lui	tp,0x395
800038dc:	c4e20213          	add	tp,tp,-946 # 394c4e <_entry_offset+0x394c4e>
800038e0:	30021073          	csrw	mstatus,tp
800038e4:	00221237          	lui	tp,0x221
800038e8:	c3320213          	add	tp,tp,-973 # 220c33 <_entry_offset+0x220c33>
800038ec:	30001073          	csrw	mstatus,zero
800038f0:	30002a73          	csrr	s4,mstatus
800038f4:	00000f93          	li	t6,0
800038f8:	0dfa1263          	bne	s4,t6,800039bc <fail>

800038fc <test_34>:
800038fc:	e8513ab7          	lui	s5,0xe8513
80003900:	743a8a93          	add	s5,s5,1859 # e8513743 <_end+0x68500743>
80003904:	341a9073          	csrw	mepc,s5
80003908:	eb9d4ab7          	lui	s5,0xeb9d4
8000390c:	8ada8a93          	add	s5,s5,-1875 # eb9d38ad <_end+0x6b9c08ad>
80003910:	34101073          	csrw	mepc,zero
80003914:	34102df3          	csrr	s11,mepc
80003918:	00000f93          	li	t6,0
8000391c:	0bfd9063          	bne	s11,t6,800039bc <fail>

80003920 <test_35>:
80003920:	379cd537          	lui	a0,0x379cd
80003924:	fcb50513          	add	a0,a0,-53 # 379ccfcb <_entry_offset+0x379ccfcb>
80003928:	34151073          	csrw	mepc,a0
8000392c:	c92a7537          	lui	a0,0xc92a7
80003930:	da050513          	add	a0,a0,-608 # c92a6da0 <_end+0x49293da0>
80003934:	34151073          	csrw	mepc,a0
80003938:	00000f93          	li	t6,0
8000393c:	09f01063          	bne	zero,t6,800039bc <fail>

80003940 <test_36>:
80003940:	00e00993          	li	s3,14
80003944:	34299073          	csrw	mcause,s3
80003948:	00700993          	li	s3,7
8000394c:	34299073          	csrw	mcause,s3
80003950:	00000f93          	li	t6,0
80003954:	07f01463          	bne	zero,t6,800039bc <fail>

80003958 <test_37>:
80003958:	801b89b7          	lui	s3,0x801b8
8000395c:	7a298993          	add	s3,s3,1954 # 801b87a2 <_end+0x1a57a2>
80003960:	30099073          	csrw	mstatus,s3
80003964:	003129b7          	lui	s3,0x312
80003968:	d6298993          	add	s3,s3,-670 # 311d62 <_entry_offset+0x311d62>
8000396c:	30099073          	csrw	mstatus,s3
80003970:	00000f93          	li	t6,0
80003974:	05f01463          	bne	zero,t6,800039bc <fail>

80003978 <test_38>:
80003978:	2bc7e137          	lui	sp,0x2bc7e
8000397c:	b0010113          	add	sp,sp,-1280 # 2bc7db00 <_entry_offset+0x2bc7db00>
80003980:	30511073          	csrw	mtvec,sp
80003984:	156b6137          	lui	sp,0x156b6
80003988:	90810113          	add	sp,sp,-1784 # 156b5908 <_entry_offset+0x156b5908>
8000398c:	30511073          	csrw	mtvec,sp
80003990:	00000f93          	li	t6,0
80003994:	03f01463          	bne	zero,t6,800039bc <fail>

80003998 <test_39>:
80003998:	800008b7          	lui	a7,0x80000
8000399c:	00988893          	add	a7,a7,9 # 80000009 <_start+0x9>
800039a0:	34289073          	csrw	mcause,a7
800039a4:	800008b7          	lui	a7,0x80000
800039a8:	00988893          	add	a7,a7,9 # 80000009 <_start+0x9>
800039ac:	34289073          	csrw	mcause,a7
800039b0:	00000f93          	li	t6,0
800039b4:	01f01463          	bne	zero,t6,800039bc <fail>
800039b8:	0100006f          	j	800039c8 <pass>

800039bc <fail>:
800039bc:	fff00513          	li	a0,-1
800039c0:	00100073          	ebreak
800039c4:	ff9ff06f          	j	800039bc <fail>

800039c8 <pass>:
800039c8:	00000513          	li	a0,0
800039cc:	00008067          	ret

800039d0 <bltu>:
800039d0:	00200e13          	li	t3,2
800039d4:	00000f93          	li	t6,0
800039d8:	00100113          	li	sp,1
800039dc:	002fe663          	bltu	t6,sp,800039e8 <bltu+0x18>
800039e0:	2fc01263          	bne	zero,t3,80003cc4 <fail>
800039e4:	01c01663          	bne	zero,t3,800039f0 <test_3>
800039e8:	fe2feee3          	bltu	t6,sp,800039e4 <bltu+0x14>
800039ec:	2dc01c63          	bne	zero,t3,80003cc4 <fail>

800039f0 <test_3>:
800039f0:	00300e13          	li	t3,3
800039f4:	ffe00f93          	li	t6,-2
800039f8:	fff00113          	li	sp,-1
800039fc:	002fe663          	bltu	t6,sp,80003a08 <test_3+0x18>
80003a00:	2dc01263          	bne	zero,t3,80003cc4 <fail>
80003a04:	01c01663          	bne	zero,t3,80003a10 <test_4>
80003a08:	fe2feee3          	bltu	t6,sp,80003a04 <test_3+0x14>
80003a0c:	2bc01c63          	bne	zero,t3,80003cc4 <fail>

80003a10 <test_4>:
80003a10:	00400e13          	li	t3,4
80003a14:	00000f93          	li	t6,0
80003a18:	fff00113          	li	sp,-1
80003a1c:	002fe663          	bltu	t6,sp,80003a28 <test_4+0x18>
80003a20:	2bc01263          	bne	zero,t3,80003cc4 <fail>
80003a24:	01c01663          	bne	zero,t3,80003a30 <test_5>
80003a28:	fe2feee3          	bltu	t6,sp,80003a24 <test_4+0x14>
80003a2c:	29c01c63          	bne	zero,t3,80003cc4 <fail>

80003a30 <test_5>:
80003a30:	00500e13          	li	t3,5
80003a34:	00100f93          	li	t6,1
80003a38:	00000113          	li	sp,0
80003a3c:	002fe463          	bltu	t6,sp,80003a44 <test_5+0x14>
80003a40:	01c01463          	bne	zero,t3,80003a48 <test_5+0x18>
80003a44:	29c01063          	bne	zero,t3,80003cc4 <fail>
80003a48:	fe2feee3          	bltu	t6,sp,80003a44 <test_5+0x14>

80003a4c <test_6>:
80003a4c:	00600e13          	li	t3,6
80003a50:	fff00f93          	li	t6,-1
80003a54:	ffe00113          	li	sp,-2
80003a58:	002fe463          	bltu	t6,sp,80003a60 <test_6+0x14>
80003a5c:	01c01463          	bne	zero,t3,80003a64 <test_6+0x18>
80003a60:	27c01263          	bne	zero,t3,80003cc4 <fail>
80003a64:	fe2feee3          	bltu	t6,sp,80003a60 <test_6+0x14>

80003a68 <test_7>:
80003a68:	00700e13          	li	t3,7
80003a6c:	fff00f93          	li	t6,-1
80003a70:	00000113          	li	sp,0
80003a74:	002fe463          	bltu	t6,sp,80003a7c <test_7+0x14>
80003a78:	01c01463          	bne	zero,t3,80003a80 <test_7+0x18>
80003a7c:	25c01463          	bne	zero,t3,80003cc4 <fail>
80003a80:	fe2feee3          	bltu	t6,sp,80003a7c <test_7+0x14>

80003a84 <test_8>:
80003a84:	00800e13          	li	t3,8
80003a88:	80000fb7          	lui	t6,0x80000
80003a8c:	80000137          	lui	sp,0x80000
80003a90:	fff10113          	add	sp,sp,-1 # 7fffffff <_entry_offset+0x7fffffff>
80003a94:	002fe463          	bltu	t6,sp,80003a9c <test_8+0x18>
80003a98:	01c01463          	bne	zero,t3,80003aa0 <test_8+0x1c>
80003a9c:	23c01463          	bne	zero,t3,80003cc4 <fail>
80003aa0:	fe2feee3          	bltu	t6,sp,80003a9c <test_8+0x18>

80003aa4 <test_9>:
80003aa4:	00900e13          	li	t3,9
80003aa8:	00000213          	li	tp,0
80003aac:	f0000fb7          	lui	t6,0xf0000
80003ab0:	f0000137          	lui	sp,0xf0000
80003ab4:	fff10113          	add	sp,sp,-1 # efffffff <_end+0x6ffecfff>
80003ab8:	202fe663          	bltu	t6,sp,80003cc4 <fail>
80003abc:	00120213          	add	tp,tp,1 # 1 <_entry_offset+0x1>
80003ac0:	00200293          	li	t0,2
80003ac4:	fe5214e3          	bne	tp,t0,80003aac <test_9+0x8>

80003ac8 <test_10>:
80003ac8:	00a00e13          	li	t3,10
80003acc:	00000213          	li	tp,0
80003ad0:	f0000fb7          	lui	t6,0xf0000
80003ad4:	f0000137          	lui	sp,0xf0000
80003ad8:	fff10113          	add	sp,sp,-1 # efffffff <_end+0x6ffecfff>
80003adc:	00000013          	nop
80003ae0:	1e2fe263          	bltu	t6,sp,80003cc4 <fail>
80003ae4:	00120213          	add	tp,tp,1 # 1 <_entry_offset+0x1>
80003ae8:	00200293          	li	t0,2
80003aec:	fe5212e3          	bne	tp,t0,80003ad0 <test_10+0x8>

80003af0 <test_11>:
80003af0:	00b00e13          	li	t3,11
80003af4:	00000213          	li	tp,0
80003af8:	f0000fb7          	lui	t6,0xf0000
80003afc:	f0000137          	lui	sp,0xf0000
80003b00:	fff10113          	add	sp,sp,-1 # efffffff <_end+0x6ffecfff>
80003b04:	00000013          	nop
80003b08:	00000013          	nop
80003b0c:	1a2fec63          	bltu	t6,sp,80003cc4 <fail>
80003b10:	00120213          	add	tp,tp,1 # 1 <_entry_offset+0x1>
80003b14:	00200293          	li	t0,2
80003b18:	fe5210e3          	bne	tp,t0,80003af8 <test_11+0x8>

80003b1c <test_12>:
80003b1c:	00c00e13          	li	t3,12
80003b20:	00000213          	li	tp,0
80003b24:	f0000fb7          	lui	t6,0xf0000
80003b28:	00000013          	nop
80003b2c:	f0000137          	lui	sp,0xf0000
80003b30:	fff10113          	add	sp,sp,-1 # efffffff <_end+0x6ffecfff>
80003b34:	182fe863          	bltu	t6,sp,80003cc4 <fail>
80003b38:	00120213          	add	tp,tp,1 # 1 <_entry_offset+0x1>
80003b3c:	00200293          	li	t0,2
80003b40:	fe5212e3          	bne	tp,t0,80003b24 <test_12+0x8>

80003b44 <test_13>:
80003b44:	00d00e13          	li	t3,13
80003b48:	00000213          	li	tp,0
80003b4c:	f0000fb7          	lui	t6,0xf0000
80003b50:	00000013          	nop
80003b54:	f0000137          	lui	sp,0xf0000
80003b58:	fff10113          	add	sp,sp,-1 # efffffff <_end+0x6ffecfff>
80003b5c:	00000013          	nop
80003b60:	162fe263          	bltu	t6,sp,80003cc4 <fail>
80003b64:	00120213          	add	tp,tp,1 # 1 <_entry_offset+0x1>
80003b68:	00200293          	li	t0,2
80003b6c:	fe5210e3          	bne	tp,t0,80003b4c <test_13+0x8>

80003b70 <test_14>:
80003b70:	00e00e13          	li	t3,14
80003b74:	00000213          	li	tp,0
80003b78:	f0000fb7          	lui	t6,0xf0000
80003b7c:	00000013          	nop
80003b80:	00000013          	nop
80003b84:	f0000137          	lui	sp,0xf0000
80003b88:	fff10113          	add	sp,sp,-1 # efffffff <_end+0x6ffecfff>
80003b8c:	122fec63          	bltu	t6,sp,80003cc4 <fail>
80003b90:	00120213          	add	tp,tp,1 # 1 <_entry_offset+0x1>
80003b94:	00200293          	li	t0,2
80003b98:	fe5210e3          	bne	tp,t0,80003b78 <test_14+0x8>

80003b9c <test_15>:
80003b9c:	00f00e13          	li	t3,15
80003ba0:	00000213          	li	tp,0
80003ba4:	f0000fb7          	lui	t6,0xf0000
80003ba8:	f0000137          	lui	sp,0xf0000
80003bac:	fff10113          	add	sp,sp,-1 # efffffff <_end+0x6ffecfff>
80003bb0:	102fea63          	bltu	t6,sp,80003cc4 <fail>
80003bb4:	00120213          	add	tp,tp,1 # 1 <_entry_offset+0x1>
80003bb8:	00200293          	li	t0,2
80003bbc:	fe5214e3          	bne	tp,t0,80003ba4 <test_15+0x8>

80003bc0 <test_16>:
80003bc0:	01000e13          	li	t3,16
80003bc4:	00000213          	li	tp,0
80003bc8:	f0000fb7          	lui	t6,0xf0000
80003bcc:	f0000137          	lui	sp,0xf0000
80003bd0:	fff10113          	add	sp,sp,-1 # efffffff <_end+0x6ffecfff>
80003bd4:	00000013          	nop
80003bd8:	0e2fe663          	bltu	t6,sp,80003cc4 <fail>
80003bdc:	00120213          	add	tp,tp,1 # 1 <_entry_offset+0x1>
80003be0:	00200293          	li	t0,2
80003be4:	fe5212e3          	bne	tp,t0,80003bc8 <test_16+0x8>

80003be8 <test_17>:
80003be8:	01100e13          	li	t3,17
80003bec:	00000213          	li	tp,0
80003bf0:	f0000fb7          	lui	t6,0xf0000
80003bf4:	f0000137          	lui	sp,0xf0000
80003bf8:	fff10113          	add	sp,sp,-1 # efffffff <_end+0x6ffecfff>
80003bfc:	00000013          	nop
80003c00:	00000013          	nop
80003c04:	0c2fe063          	bltu	t6,sp,80003cc4 <fail>
80003c08:	00120213          	add	tp,tp,1 # 1 <_entry_offset+0x1>
80003c0c:	00200293          	li	t0,2
80003c10:	fe5210e3          	bne	tp,t0,80003bf0 <test_17+0x8>

80003c14 <test_18>:
80003c14:	01200e13          	li	t3,18
80003c18:	00000213          	li	tp,0
80003c1c:	f0000fb7          	lui	t6,0xf0000
80003c20:	00000013          	nop
80003c24:	f0000137          	lui	sp,0xf0000
80003c28:	fff10113          	add	sp,sp,-1 # efffffff <_end+0x6ffecfff>
80003c2c:	082fec63          	bltu	t6,sp,80003cc4 <fail>
80003c30:	00120213          	add	tp,tp,1 # 1 <_entry_offset+0x1>
80003c34:	00200293          	li	t0,2
80003c38:	fe5212e3          	bne	tp,t0,80003c1c <test_18+0x8>

80003c3c <test_19>:
80003c3c:	01300e13          	li	t3,19
80003c40:	00000213          	li	tp,0
80003c44:	f0000fb7          	lui	t6,0xf0000
80003c48:	00000013          	nop
80003c4c:	f0000137          	lui	sp,0xf0000
80003c50:	fff10113          	add	sp,sp,-1 # efffffff <_end+0x6ffecfff>
80003c54:	00000013          	nop
80003c58:	062fe663          	bltu	t6,sp,80003cc4 <fail>
80003c5c:	00120213          	add	tp,tp,1 # 1 <_entry_offset+0x1>
80003c60:	00200293          	li	t0,2
80003c64:	fe5210e3          	bne	tp,t0,80003c44 <test_19+0x8>

80003c68 <test_20>:
80003c68:	01400e13          	li	t3,20
80003c6c:	00000213          	li	tp,0
80003c70:	f0000fb7          	lui	t6,0xf0000
80003c74:	00000013          	nop
80003c78:	00000013          	nop
80003c7c:	f0000137          	lui	sp,0xf0000
80003c80:	fff10113          	add	sp,sp,-1 # efffffff <_end+0x6ffecfff>
80003c84:	042fe063          	bltu	t6,sp,80003cc4 <fail>
80003c88:	00120213          	add	tp,tp,1 # 1 <_entry_offset+0x1>
80003c8c:	00200293          	li	t0,2
80003c90:	fe5210e3          	bne	tp,t0,80003c70 <test_20+0x8>

80003c94 <test_21>:
80003c94:	00100f93          	li	t6,1
80003c98:	01f06a63          	bltu	zero,t6,80003cac <test_21+0x18>
80003c9c:	001f8f93          	add	t6,t6,1 # f0000001 <_end+0x6ffed001>
80003ca0:	001f8f93          	add	t6,t6,1
80003ca4:	001f8f93          	add	t6,t6,1
80003ca8:	001f8f93          	add	t6,t6,1
80003cac:	001f8f93          	add	t6,t6,1
80003cb0:	001f8f93          	add	t6,t6,1
80003cb4:	00300e93          	li	t4,3
80003cb8:	01500e13          	li	t3,21
80003cbc:	01df9463          	bne	t6,t4,80003cc4 <fail>
80003cc0:	0100006f          	j	80003cd0 <pass>

80003cc4 <fail>:
80003cc4:	fff00513          	li	a0,-1
80003cc8:	00100073          	ebreak
80003ccc:	ff9ff06f          	j	80003cc4 <fail>

80003cd0 <pass>:
80003cd0:	00000513          	li	a0,0
80003cd4:	00008067          	ret

80003cd8 <lhu>:
80003cd8:	00007f97          	auipc	t6,0x7
80003cdc:	eb8f8f93          	add	t6,t6,-328 # 8000ab90 <tdat>
80003ce0:	000fd183          	lhu	gp,0(t6)
80003ce4:	0ff00e93          	li	t4,255
80003ce8:	00200e13          	li	t3,2
80003cec:	27d19663          	bne	gp,t4,80003f58 <fail>

80003cf0 <test_3>:
80003cf0:	00007f97          	auipc	t6,0x7
80003cf4:	ea0f8f93          	add	t6,t6,-352 # 8000ab90 <tdat>
80003cf8:	002fd183          	lhu	gp,2(t6)
80003cfc:	00010eb7          	lui	t4,0x10
80003d00:	f00e8e93          	add	t4,t4,-256 # ff00 <_entry_offset+0xff00>
80003d04:	00300e13          	li	t3,3
80003d08:	25d19863          	bne	gp,t4,80003f58 <fail>

80003d0c <test_4>:
80003d0c:	00007f97          	auipc	t6,0x7
80003d10:	e84f8f93          	add	t6,t6,-380 # 8000ab90 <tdat>
80003d14:	004fd183          	lhu	gp,4(t6)
80003d18:	00001eb7          	lui	t4,0x1
80003d1c:	ff0e8e93          	add	t4,t4,-16 # ff0 <_entry_offset+0xff0>
80003d20:	00400e13          	li	t3,4
80003d24:	23d19a63          	bne	gp,t4,80003f58 <fail>

80003d28 <test_5>:
80003d28:	00007f97          	auipc	t6,0x7
80003d2c:	e68f8f93          	add	t6,t6,-408 # 8000ab90 <tdat>
80003d30:	006fd183          	lhu	gp,6(t6)
80003d34:	0000feb7          	lui	t4,0xf
80003d38:	00fe8e93          	add	t4,t4,15 # f00f <_entry_offset+0xf00f>
80003d3c:	00500e13          	li	t3,5
80003d40:	21d19c63          	bne	gp,t4,80003f58 <fail>

80003d44 <test_6>:
80003d44:	00007f97          	auipc	t6,0x7
80003d48:	e52f8f93          	add	t6,t6,-430 # 8000ab96 <tdat4>
80003d4c:	ffafd183          	lhu	gp,-6(t6)
80003d50:	0ff00e93          	li	t4,255
80003d54:	00600e13          	li	t3,6
80003d58:	21d19063          	bne	gp,t4,80003f58 <fail>

80003d5c <test_7>:
80003d5c:	00007f97          	auipc	t6,0x7
80003d60:	e3af8f93          	add	t6,t6,-454 # 8000ab96 <tdat4>
80003d64:	ffcfd183          	lhu	gp,-4(t6)
80003d68:	00010eb7          	lui	t4,0x10
80003d6c:	f00e8e93          	add	t4,t4,-256 # ff00 <_entry_offset+0xff00>
80003d70:	00700e13          	li	t3,7
80003d74:	1fd19263          	bne	gp,t4,80003f58 <fail>

80003d78 <test_8>:
80003d78:	00007f97          	auipc	t6,0x7
80003d7c:	e1ef8f93          	add	t6,t6,-482 # 8000ab96 <tdat4>
80003d80:	ffefd183          	lhu	gp,-2(t6)
80003d84:	00001eb7          	lui	t4,0x1
80003d88:	ff0e8e93          	add	t4,t4,-16 # ff0 <_entry_offset+0xff0>
80003d8c:	00800e13          	li	t3,8
80003d90:	1dd19463          	bne	gp,t4,80003f58 <fail>

80003d94 <test_9>:
80003d94:	00007f97          	auipc	t6,0x7
80003d98:	e02f8f93          	add	t6,t6,-510 # 8000ab96 <tdat4>
80003d9c:	000fd183          	lhu	gp,0(t6)
80003da0:	0000feb7          	lui	t4,0xf
80003da4:	00fe8e93          	add	t4,t4,15 # f00f <_entry_offset+0xf00f>
80003da8:	00900e13          	li	t3,9
80003dac:	1bd19663          	bne	gp,t4,80003f58 <fail>

80003db0 <test_10>:
80003db0:	00007f97          	auipc	t6,0x7
80003db4:	de0f8f93          	add	t6,t6,-544 # 8000ab90 <tdat>
80003db8:	fe0f8f93          	add	t6,t6,-32
80003dbc:	020fd183          	lhu	gp,32(t6)
80003dc0:	0ff00e93          	li	t4,255
80003dc4:	00a00e13          	li	t3,10
80003dc8:	19d19863          	bne	gp,t4,80003f58 <fail>

80003dcc <test_11>:
80003dcc:	00007f97          	auipc	t6,0x7
80003dd0:	dc4f8f93          	add	t6,t6,-572 # 8000ab90 <tdat>
80003dd4:	ffbf8f93          	add	t6,t6,-5
80003dd8:	007fd183          	lhu	gp,7(t6)
80003ddc:	00010eb7          	lui	t4,0x10
80003de0:	f00e8e93          	add	t4,t4,-256 # ff00 <_entry_offset+0xff00>
80003de4:	00b00e13          	li	t3,11
80003de8:	17d19863          	bne	gp,t4,80003f58 <fail>

80003dec <test_12>:
80003dec:	00c00e13          	li	t3,12
80003df0:	00000213          	li	tp,0
80003df4:	00007f97          	auipc	t6,0x7
80003df8:	d9ef8f93          	add	t6,t6,-610 # 8000ab92 <tdat2>
80003dfc:	002fd183          	lhu	gp,2(t6)
80003e00:	00018313          	mv	t1,gp
80003e04:	00001eb7          	lui	t4,0x1
80003e08:	ff0e8e93          	add	t4,t4,-16 # ff0 <_entry_offset+0xff0>
80003e0c:	15d31663          	bne	t1,t4,80003f58 <fail>
80003e10:	00120213          	add	tp,tp,1 # 1 <_entry_offset+0x1>
80003e14:	00200293          	li	t0,2
80003e18:	fc521ee3          	bne	tp,t0,80003df4 <test_12+0x8>

80003e1c <test_13>:
80003e1c:	00d00e13          	li	t3,13
80003e20:	00000213          	li	tp,0
80003e24:	00007f97          	auipc	t6,0x7
80003e28:	d70f8f93          	add	t6,t6,-656 # 8000ab94 <tdat3>
80003e2c:	002fd183          	lhu	gp,2(t6)
80003e30:	00000013          	nop
80003e34:	00018313          	mv	t1,gp
80003e38:	0000feb7          	lui	t4,0xf
80003e3c:	00fe8e93          	add	t4,t4,15 # f00f <_entry_offset+0xf00f>
80003e40:	11d31c63          	bne	t1,t4,80003f58 <fail>
80003e44:	00120213          	add	tp,tp,1 # 1 <_entry_offset+0x1>
80003e48:	00200293          	li	t0,2
80003e4c:	fc521ce3          	bne	tp,t0,80003e24 <test_13+0x8>

80003e50 <test_14>:
80003e50:	00e00e13          	li	t3,14
80003e54:	00000213          	li	tp,0
80003e58:	00007f97          	auipc	t6,0x7
80003e5c:	d38f8f93          	add	t6,t6,-712 # 8000ab90 <tdat>
80003e60:	002fd183          	lhu	gp,2(t6)
80003e64:	00000013          	nop
80003e68:	00000013          	nop
80003e6c:	00018313          	mv	t1,gp
80003e70:	00010eb7          	lui	t4,0x10
80003e74:	f00e8e93          	add	t4,t4,-256 # ff00 <_entry_offset+0xff00>
80003e78:	0fd31063          	bne	t1,t4,80003f58 <fail>
80003e7c:	00120213          	add	tp,tp,1 # 1 <_entry_offset+0x1>
80003e80:	00200293          	li	t0,2
80003e84:	fc521ae3          	bne	tp,t0,80003e58 <test_14+0x8>

80003e88 <test_15>:
80003e88:	00f00e13          	li	t3,15
80003e8c:	00000213          	li	tp,0
80003e90:	00007f97          	auipc	t6,0x7
80003e94:	d02f8f93          	add	t6,t6,-766 # 8000ab92 <tdat2>
80003e98:	002fd183          	lhu	gp,2(t6)
80003e9c:	00001eb7          	lui	t4,0x1
80003ea0:	ff0e8e93          	add	t4,t4,-16 # ff0 <_entry_offset+0xff0>
80003ea4:	0bd19a63          	bne	gp,t4,80003f58 <fail>
80003ea8:	00120213          	add	tp,tp,1 # 1 <_entry_offset+0x1>
80003eac:	00200293          	li	t0,2
80003eb0:	fe5210e3          	bne	tp,t0,80003e90 <test_15+0x8>

80003eb4 <test_16>:
80003eb4:	01000e13          	li	t3,16
80003eb8:	00000213          	li	tp,0
80003ebc:	00007f97          	auipc	t6,0x7
80003ec0:	cd8f8f93          	add	t6,t6,-808 # 8000ab94 <tdat3>
80003ec4:	00000013          	nop
80003ec8:	002fd183          	lhu	gp,2(t6)
80003ecc:	0000feb7          	lui	t4,0xf
80003ed0:	00fe8e93          	add	t4,t4,15 # f00f <_entry_offset+0xf00f>
80003ed4:	09d19263          	bne	gp,t4,80003f58 <fail>
80003ed8:	00120213          	add	tp,tp,1 # 1 <_entry_offset+0x1>
80003edc:	00200293          	li	t0,2
80003ee0:	fc521ee3          	bne	tp,t0,80003ebc <test_16+0x8>

80003ee4 <test_17>:
80003ee4:	01100e13          	li	t3,17
80003ee8:	00000213          	li	tp,0
80003eec:	00007f97          	auipc	t6,0x7
80003ef0:	ca4f8f93          	add	t6,t6,-860 # 8000ab90 <tdat>
80003ef4:	00000013          	nop
80003ef8:	00000013          	nop
80003efc:	002fd183          	lhu	gp,2(t6)
80003f00:	00010eb7          	lui	t4,0x10
80003f04:	f00e8e93          	add	t4,t4,-256 # ff00 <_entry_offset+0xff00>
80003f08:	05d19863          	bne	gp,t4,80003f58 <fail>
80003f0c:	00120213          	add	tp,tp,1 # 1 <_entry_offset+0x1>
80003f10:	00200293          	li	t0,2
80003f14:	fc521ce3          	bne	tp,t0,80003eec <test_17+0x8>

80003f18 <test_18>:
80003f18:	00007197          	auipc	gp,0x7
80003f1c:	c7818193          	add	gp,gp,-904 # 8000ab90 <tdat>
80003f20:	0001d103          	lhu	sp,0(gp)
80003f24:	00200113          	li	sp,2
80003f28:	00200e93          	li	t4,2
80003f2c:	01200e13          	li	t3,18
80003f30:	03d11463          	bne	sp,t4,80003f58 <fail>

80003f34 <test_19>:
80003f34:	00007197          	auipc	gp,0x7
80003f38:	c5c18193          	add	gp,gp,-932 # 8000ab90 <tdat>
80003f3c:	0001d103          	lhu	sp,0(gp)
80003f40:	00000013          	nop
80003f44:	00200113          	li	sp,2
80003f48:	00200e93          	li	t4,2
80003f4c:	01300e13          	li	t3,19
80003f50:	01d11463          	bne	sp,t4,80003f58 <fail>
80003f54:	0100006f          	j	80003f64 <pass>

80003f58 <fail>:
80003f58:	fff00513          	li	a0,-1
80003f5c:	00100073          	ebreak
80003f60:	ff9ff06f          	j	80003f58 <fail>

80003f64 <pass>:
80003f64:	00000513          	li	a0,0
80003f68:	00008067          	ret

80003f6c <csrrci>:
80003f6c:	01300f93          	li	t6,19
80003f70:	341f9073          	csrw	mepc,t6
80003f74:	34177073          	csrc	mepc,14
80003f78:	34102e73          	csrr	t3,mepc
80003f7c:	01100f93          	li	t6,17
80003f80:	49fe1863          	bne	t3,t6,80004410 <fail>

80003f84 <test_1>:
80003f84:	01c00f93          	li	t6,28
80003f88:	305f9073          	csrw	mtvec,t6
80003f8c:	30567073          	csrc	mtvec,12
80003f90:	305027f3          	csrr	a5,mtvec
80003f94:	01000f93          	li	t6,16
80003f98:	47f79c63          	bne	a5,t6,80004410 <fail>

80003f9c <test_2>:
80003f9c:	00900f93          	li	t6,9
80003fa0:	300f9073          	csrw	mstatus,t6
80003fa4:	3004f073          	csrc	mstatus,9
80003fa8:	30002cf3          	csrr	s9,mstatus
80003fac:	00000f93          	li	t6,0
80003fb0:	47fc9063          	bne	s9,t6,80004410 <fail>

80003fb4 <test_3>:
80003fb4:	00c00f93          	li	t6,12
80003fb8:	305f9073          	csrw	mtvec,t6
80003fbc:	30527073          	csrc	mtvec,4
80003fc0:	305025f3          	csrr	a1,mtvec
80003fc4:	00800f93          	li	t6,8
80003fc8:	45f59463          	bne	a1,t6,80004410 <fail>

80003fcc <test_4>:
80003fcc:	01800f93          	li	t6,24
80003fd0:	341f9073          	csrw	mepc,t6
80003fd4:	34187073          	csrc	mepc,16
80003fd8:	34102673          	csrr	a2,mepc
80003fdc:	00800f93          	li	t6,8
80003fe0:	43f61863          	bne	a2,t6,80004410 <fail>

80003fe4 <test_5>:
80003fe4:	01000f93          	li	t6,16
80003fe8:	341f9073          	csrw	mepc,t6
80003fec:	3411f073          	csrc	mepc,3
80003ff0:	34102af3          	csrr	s5,mepc
80003ff4:	01000f93          	li	t6,16
80003ff8:	41fa9c63          	bne	s5,t6,80004410 <fail>

80003ffc <test_6>:
80003ffc:	01800f93          	li	t6,24
80004000:	305f9073          	csrw	mtvec,t6
80004004:	30567073          	csrc	mtvec,12
80004008:	30502373          	csrr	t1,mtvec
8000400c:	01000f93          	li	t6,16
80004010:	41f31063          	bne	t1,t6,80004410 <fail>

80004014 <test_7>:
80004014:	01c00f93          	li	t6,28
80004018:	341f9073          	csrw	mepc,t6
8000401c:	3417f073          	csrc	mepc,15
80004020:	34102f73          	csrr	t5,mepc
80004024:	01000f93          	li	t6,16
80004028:	3fff1463          	bne	t5,t6,80004410 <fail>

8000402c <test_8>:
8000402c:	01b00f93          	li	t6,27
80004030:	341f9073          	csrw	mepc,t6
80004034:	341f7073          	csrc	mepc,30
80004038:	34102bf3          	csrr	s7,mepc
8000403c:	00100f93          	li	t6,1
80004040:	3dfb9863          	bne	s7,t6,80004410 <fail>

80004044 <test_9>:
80004044:	00800f93          	li	t6,8
80004048:	341f9073          	csrw	mepc,t6
8000404c:	341cf073          	csrc	mepc,25
80004050:	34102a73          	csrr	s4,mepc
80004054:	00000f93          	li	t6,0
80004058:	3bfa1c63          	bne	s4,t6,80004410 <fail>

8000405c <test_10>:
8000405c:	01300f93          	li	t6,19
80004060:	341f9073          	csrw	mepc,t6
80004064:	341a7073          	csrc	mepc,20
80004068:	34102673          	csrr	a2,mepc
8000406c:	00300f93          	li	t6,3
80004070:	3bf61063          	bne	a2,t6,80004410 <fail>

80004074 <test_11>:
80004074:	00600f93          	li	t6,6
80004078:	342f9073          	csrw	mcause,t6
8000407c:	3420f073          	csrc	mcause,1
80004080:	34202e73          	csrr	t3,mcause
80004084:	00600f93          	li	t6,6
80004088:	39fe1463          	bne	t3,t6,80004410 <fail>

8000408c <test_12>:
8000408c:	00900f93          	li	t6,9
80004090:	342f9073          	csrw	mcause,t6
80004094:	34207073          	csrc	mcause,0
80004098:	342026f3          	csrr	a3,mcause
8000409c:	00900f93          	li	t6,9
800040a0:	37f69863          	bne	a3,t6,80004410 <fail>

800040a4 <test_13>:
800040a4:	00900f93          	li	t6,9
800040a8:	342f9073          	csrw	mcause,t6
800040ac:	3425f073          	csrc	mcause,11
800040b0:	342024f3          	csrr	s1,mcause
800040b4:	00000f93          	li	t6,0
800040b8:	35f49c63          	bne	s1,t6,80004410 <fail>

800040bc <test_14>:
800040bc:	01b00f93          	li	t6,27
800040c0:	341f9073          	csrw	mepc,t6
800040c4:	341ff073          	csrc	mepc,31
800040c8:	34102d73          	csrr	s10,mepc
800040cc:	00000f93          	li	t6,0
800040d0:	35fd1063          	bne	s10,t6,80004410 <fail>

800040d4 <test_15>:
800040d4:	01700f93          	li	t6,23
800040d8:	300f9073          	csrw	mstatus,t6
800040dc:	3008f073          	csrc	mstatus,17
800040e0:	30002473          	csrr	s0,mstatus
800040e4:	00600f93          	li	t6,6
800040e8:	33f41463          	bne	s0,t6,80004410 <fail>

800040ec <test_16>:
800040ec:	01000f93          	li	t6,16
800040f0:	305f9073          	csrw	mtvec,t6
800040f4:	305e7073          	csrc	mtvec,28
800040f8:	30502f73          	csrr	t5,mtvec
800040fc:	00000f93          	li	t6,0
80004100:	31ff1863          	bne	t5,t6,80004410 <fail>

80004104 <test_17>:
80004104:	00c00f93          	li	t6,12
80004108:	300f9073          	csrw	mstatus,t6
8000410c:	300d7073          	csrc	mstatus,26
80004110:	300028f3          	csrr	a7,mstatus
80004114:	00400f93          	li	t6,4
80004118:	2ff89c63          	bne	a7,t6,80004410 <fail>

8000411c <test_18>:
8000411c:	00800f93          	li	t6,8
80004120:	300f9073          	csrw	mstatus,t6
80004124:	30077073          	csrc	mstatus,14
80004128:	300022f3          	csrr	t0,mstatus
8000412c:	00000f93          	li	t6,0
80004130:	2ff29063          	bne	t0,t6,80004410 <fail>

80004134 <test_19>:
80004134:	00800f93          	li	t6,8
80004138:	342f9073          	csrw	mcause,t6
8000413c:	3425f073          	csrc	mcause,11
80004140:	34202ef3          	csrr	t4,mcause
80004144:	00000f93          	li	t6,0
80004148:	2dfe9463          	bne	t4,t6,80004410 <fail>

8000414c <test_20>:
8000414c:	00100f93          	li	t6,1
80004150:	342f9073          	csrw	mcause,t6
80004154:	3427f073          	csrc	mcause,15
80004158:	342023f3          	csrr	t2,mcause
8000415c:	00000f93          	li	t6,0
80004160:	2bf39863          	bne	t2,t6,80004410 <fail>

80004164 <test_21>:
80004164:	01300f93          	li	t6,19
80004168:	300f9073          	csrw	mstatus,t6
8000416c:	3005f073          	csrc	mstatus,11
80004170:	300024f3          	csrr	s1,mstatus
80004174:	01000f93          	li	t6,16
80004178:	29f49c63          	bne	s1,t6,80004410 <fail>

8000417c <test_22>:
8000417c:	00a00f93          	li	t6,10
80004180:	341f9073          	csrw	mepc,t6
80004184:	3414f073          	csrc	mepc,9
80004188:	34102b73          	csrr	s6,mepc
8000418c:	00200f93          	li	t6,2
80004190:	29fb1063          	bne	s6,t6,80004410 <fail>

80004194 <test_23>:
80004194:	00e00f93          	li	t6,14
80004198:	300f9073          	csrw	mstatus,t6
8000419c:	3007f073          	csrc	mstatus,15
800041a0:	30002773          	csrr	a4,mstatus
800041a4:	00000f93          	li	t6,0
800041a8:	27f71463          	bne	a4,t6,80004410 <fail>

800041ac <test_24>:
800041ac:	00b00f93          	li	t6,11
800041b0:	342f9073          	csrw	mcause,t6
800041b4:	3420f073          	csrc	mcause,1
800041b8:	342025f3          	csrr	a1,mcause
800041bc:	00a00f93          	li	t6,10
800041c0:	25f59863          	bne	a1,t6,80004410 <fail>

800041c4 <test_25>:
800041c4:	01200f93          	li	t6,18
800041c8:	300f9073          	csrw	mstatus,t6
800041cc:	30077073          	csrc	mstatus,14
800041d0:	30002d73          	csrr	s10,mstatus
800041d4:	01000f93          	li	t6,16
800041d8:	23fd1c63          	bne	s10,t6,80004410 <fail>

800041dc <test_26>:
800041dc:	00800f93          	li	t6,8
800041e0:	342f9073          	csrw	mcause,t6
800041e4:	34267073          	csrc	mcause,12
800041e8:	342024f3          	csrr	s1,mcause
800041ec:	00000f93          	li	t6,0
800041f0:	23f49063          	bne	s1,t6,80004410 <fail>

800041f4 <test_27>:
800041f4:	01300f93          	li	t6,19
800041f8:	341f9073          	csrw	mepc,t6
800041fc:	34137073          	csrc	mepc,6
80004200:	34102a73          	csrr	s4,mepc
80004204:	01100f93          	li	t6,17
80004208:	21fa1463          	bne	s4,t6,80004410 <fail>

8000420c <test_28>:
8000420c:	01000f93          	li	t6,16
80004210:	305f9073          	csrw	mtvec,t6
80004214:	305c7073          	csrc	mtvec,24
80004218:	30502873          	csrr	a6,mtvec
8000421c:	00000f93          	li	t6,0
80004220:	1ff81863          	bne	a6,t6,80004410 <fail>

80004224 <test_29>:
80004224:	01400f93          	li	t6,20
80004228:	305f9073          	csrw	mtvec,t6
8000422c:	30587073          	csrc	mtvec,16
80004230:	305023f3          	csrr	t2,mtvec
80004234:	00400f93          	li	t6,4
80004238:	1df39c63          	bne	t2,t6,80004410 <fail>

8000423c <test_30>:
8000423c:	01800f93          	li	t6,24
80004240:	305f9073          	csrw	mtvec,t6
80004244:	30507073          	csrc	mtvec,0
80004248:	305021f3          	csrr	gp,mtvec
8000424c:	01800f93          	li	t6,24
80004250:	1df19063          	bne	gp,t6,80004410 <fail>

80004254 <test_31>:
80004254:	00000f93          	li	t6,0
80004258:	00000013          	nop
8000425c:	342f9073          	csrw	mcause,t6
80004260:	00000013          	nop
80004264:	34277073          	csrc	mcause,14
80004268:	00000013          	nop
8000426c:	34202473          	csrr	s0,mcause
80004270:	00000013          	nop
80004274:	00000f93          	li	t6,0
80004278:	19f41c63          	bne	s0,t6,80004410 <fail>

8000427c <test_32>:
8000427c:	01b00f93          	li	t6,27
80004280:	00000013          	nop
80004284:	00000013          	nop
80004288:	300f9073          	csrw	mstatus,t6
8000428c:	00000013          	nop
80004290:	00000013          	nop
80004294:	300ff073          	csrc	mstatus,31
80004298:	00000013          	nop
8000429c:	00000013          	nop
800042a0:	30002773          	csrr	a4,mstatus
800042a4:	00000013          	nop
800042a8:	00000013          	nop
800042ac:	00000f93          	li	t6,0
800042b0:	17f71063          	bne	a4,t6,80004410 <fail>

800042b4 <test_33>:
800042b4:	00200f93          	li	t6,2
800042b8:	00000013          	nop
800042bc:	00000013          	nop
800042c0:	00000013          	nop
800042c4:	341f9073          	csrw	mepc,t6
800042c8:	00000013          	nop
800042cc:	00000013          	nop
800042d0:	00000013          	nop
800042d4:	34197073          	csrc	mepc,18
800042d8:	00000013          	nop
800042dc:	00000013          	nop
800042e0:	00000013          	nop
800042e4:	34102af3          	csrr	s5,mepc
800042e8:	00000013          	nop
800042ec:	00000013          	nop
800042f0:	00000013          	nop
800042f4:	00000f93          	li	t6,0
800042f8:	11fa9c63          	bne	s5,t6,80004410 <fail>

800042fc <test_34>:
800042fc:	01f00f93          	li	t6,31
80004300:	00000013          	nop
80004304:	00000013          	nop
80004308:	00000013          	nop
8000430c:	00000013          	nop
80004310:	341f9073          	csrw	mepc,t6
80004314:	00000013          	nop
80004318:	00000013          	nop
8000431c:	00000013          	nop
80004320:	00000013          	nop
80004324:	341af073          	csrc	mepc,21
80004328:	00000013          	nop
8000432c:	00000013          	nop
80004330:	00000013          	nop
80004334:	00000013          	nop
80004338:	34102b73          	csrr	s6,mepc
8000433c:	00000013          	nop
80004340:	00000013          	nop
80004344:	00000013          	nop
80004348:	00000013          	nop
8000434c:	00a00f93          	li	t6,10
80004350:	0dfb1063          	bne	s6,t6,80004410 <fail>

80004354 <test_35>:
80004354:	00800f93          	li	t6,8
80004358:	00000013          	nop
8000435c:	00000013          	nop
80004360:	00000013          	nop
80004364:	00000013          	nop
80004368:	00000013          	nop
8000436c:	342f9073          	csrw	mcause,t6
80004370:	00000013          	nop
80004374:	00000013          	nop
80004378:	00000013          	nop
8000437c:	00000013          	nop
80004380:	00000013          	nop
80004384:	3425f073          	csrc	mcause,11
80004388:	00000013          	nop
8000438c:	00000013          	nop
80004390:	00000013          	nop
80004394:	00000013          	nop
80004398:	00000013          	nop
8000439c:	34202f73          	csrr	t5,mcause
800043a0:	00000013          	nop
800043a4:	00000013          	nop
800043a8:	00000013          	nop
800043ac:	00000013          	nop
800043b0:	00000013          	nop
800043b4:	00000f93          	li	t6,0
800043b8:	05ff1c63          	bne	t5,t6,80004410 <fail>

800043bc <test_36>:
800043bc:	00400f93          	li	t6,4
800043c0:	300f9073          	csrw	mstatus,t6
800043c4:	300cf073          	csrc	mstatus,25
800043c8:	00000f93          	li	t6,0
800043cc:	05f01263          	bne	zero,t6,80004410 <fail>

800043d0 <test_37>:
800043d0:	00200f93          	li	t6,2
800043d4:	300f9073          	csrw	mstatus,t6
800043d8:	300df073          	csrc	mstatus,27
800043dc:	00000f93          	li	t6,0
800043e0:	03f01863          	bne	zero,t6,80004410 <fail>

800043e4 <test_38>:
800043e4:	01500f93          	li	t6,21
800043e8:	341f9073          	csrw	mepc,t6
800043ec:	341df073          	csrc	mepc,27
800043f0:	00000f93          	li	t6,0
800043f4:	01f01e63          	bne	zero,t6,80004410 <fail>

800043f8 <test_39>:
800043f8:	01b00f93          	li	t6,27
800043fc:	341f9073          	csrw	mepc,t6
80004400:	341d7073          	csrc	mepc,26
80004404:	00000f93          	li	t6,0
80004408:	01f01463          	bne	zero,t6,80004410 <fail>
8000440c:	0100006f          	j	8000441c <pass>

80004410 <fail>:
80004410:	fff00513          	li	a0,-1
80004414:	00100073          	ebreak
80004418:	ff9ff06f          	j	80004410 <fail>

8000441c <pass>:
8000441c:	00000513          	li	a0,0
80004420:	00008067          	ret

80004424 <and>:
80004424:	ff010fb7          	lui	t6,0xff010
80004428:	f00f8f93          	add	t6,t6,-256 # ff00ff00 <_end+0x7effcf00>
8000442c:	0f0f1137          	lui	sp,0xf0f1
80004430:	f0f10113          	add	sp,sp,-241 # f0f0f0f <_entry_offset+0xf0f0f0f>
80004434:	002ff1b3          	and	gp,t6,sp
80004438:	0f001eb7          	lui	t4,0xf001
8000443c:	f00e8e93          	add	t4,t4,-256 # f000f00 <_entry_offset+0xf000f00>
80004440:	00200e13          	li	t3,2
80004444:	49d19c63          	bne	gp,t4,800048dc <fail>

80004448 <test_3>:
80004448:	0ff01fb7          	lui	t6,0xff01
8000444c:	ff0f8f93          	add	t6,t6,-16 # ff00ff0 <_entry_offset+0xff00ff0>
80004450:	f0f0f137          	lui	sp,0xf0f0f
80004454:	0f010113          	add	sp,sp,240 # f0f0f0f0 <_end+0x70efc0f0>
80004458:	002ff1b3          	and	gp,t6,sp
8000445c:	00f00eb7          	lui	t4,0xf00
80004460:	0f0e8e93          	add	t4,t4,240 # f000f0 <_entry_offset+0xf000f0>
80004464:	00300e13          	li	t3,3
80004468:	47d19a63          	bne	gp,t4,800048dc <fail>

8000446c <test_4>:
8000446c:	00ff0fb7          	lui	t6,0xff0
80004470:	0fff8f93          	add	t6,t6,255 # ff00ff <_entry_offset+0xff00ff>
80004474:	0f0f1137          	lui	sp,0xf0f1
80004478:	f0f10113          	add	sp,sp,-241 # f0f0f0f <_entry_offset+0xf0f0f0f>
8000447c:	002ff1b3          	and	gp,t6,sp
80004480:	000f0eb7          	lui	t4,0xf0
80004484:	00fe8e93          	add	t4,t4,15 # f000f <_entry_offset+0xf000f>
80004488:	00400e13          	li	t3,4
8000448c:	45d19863          	bne	gp,t4,800048dc <fail>

80004490 <test_5>:
80004490:	f00fffb7          	lui	t6,0xf00ff
80004494:	00ff8f93          	add	t6,t6,15 # f00ff00f <_end+0x700ec00f>
80004498:	f0f0f137          	lui	sp,0xf0f0f
8000449c:	0f010113          	add	sp,sp,240 # f0f0f0f0 <_end+0x70efc0f0>
800044a0:	002ff1b3          	and	gp,t6,sp
800044a4:	f000feb7          	lui	t4,0xf000f
800044a8:	00500e13          	li	t3,5
800044ac:	43d19863          	bne	gp,t4,800048dc <fail>

800044b0 <test_6>:
800044b0:	ff010fb7          	lui	t6,0xff010
800044b4:	f00f8f93          	add	t6,t6,-256 # ff00ff00 <_end+0x7effcf00>
800044b8:	0f0f1137          	lui	sp,0xf0f1
800044bc:	f0f10113          	add	sp,sp,-241 # f0f0f0f <_entry_offset+0xf0f0f0f>
800044c0:	002fffb3          	and	t6,t6,sp
800044c4:	0f001eb7          	lui	t4,0xf001
800044c8:	f00e8e93          	add	t4,t4,-256 # f000f00 <_entry_offset+0xf000f00>
800044cc:	00600e13          	li	t3,6
800044d0:	41df9663          	bne	t6,t4,800048dc <fail>

800044d4 <test_7>:
800044d4:	0ff01fb7          	lui	t6,0xff01
800044d8:	ff0f8f93          	add	t6,t6,-16 # ff00ff0 <_entry_offset+0xff00ff0>
800044dc:	f0f0f137          	lui	sp,0xf0f0f
800044e0:	0f010113          	add	sp,sp,240 # f0f0f0f0 <_end+0x70efc0f0>
800044e4:	002ff133          	and	sp,t6,sp
800044e8:	00f00eb7          	lui	t4,0xf00
800044ec:	0f0e8e93          	add	t4,t4,240 # f000f0 <_entry_offset+0xf000f0>
800044f0:	00700e13          	li	t3,7
800044f4:	3fd11463          	bne	sp,t4,800048dc <fail>

800044f8 <test_8>:
800044f8:	ff010fb7          	lui	t6,0xff010
800044fc:	f00f8f93          	add	t6,t6,-256 # ff00ff00 <_end+0x7effcf00>
80004500:	01ffffb3          	and	t6,t6,t6
80004504:	ff010eb7          	lui	t4,0xff010
80004508:	f00e8e93          	add	t4,t4,-256 # ff00ff00 <_end+0x7effcf00>
8000450c:	00800e13          	li	t3,8
80004510:	3ddf9663          	bne	t6,t4,800048dc <fail>

80004514 <test_9>:
80004514:	00000213          	li	tp,0
80004518:	ff010fb7          	lui	t6,0xff010
8000451c:	f00f8f93          	add	t6,t6,-256 # ff00ff00 <_end+0x7effcf00>
80004520:	0f0f1137          	lui	sp,0xf0f1
80004524:	f0f10113          	add	sp,sp,-241 # f0f0f0f <_entry_offset+0xf0f0f0f>
80004528:	002ff1b3          	and	gp,t6,sp
8000452c:	00018313          	mv	t1,gp
80004530:	00120213          	add	tp,tp,1 # 1 <_entry_offset+0x1>
80004534:	00200293          	li	t0,2
80004538:	fe5210e3          	bne	tp,t0,80004518 <test_9+0x4>
8000453c:	0f001eb7          	lui	t4,0xf001
80004540:	f00e8e93          	add	t4,t4,-256 # f000f00 <_entry_offset+0xf000f00>
80004544:	00900e13          	li	t3,9
80004548:	39d31a63          	bne	t1,t4,800048dc <fail>

8000454c <test_10>:
8000454c:	00000213          	li	tp,0
80004550:	0ff01fb7          	lui	t6,0xff01
80004554:	ff0f8f93          	add	t6,t6,-16 # ff00ff0 <_entry_offset+0xff00ff0>
80004558:	f0f0f137          	lui	sp,0xf0f0f
8000455c:	0f010113          	add	sp,sp,240 # f0f0f0f0 <_end+0x70efc0f0>
80004560:	002ff1b3          	and	gp,t6,sp
80004564:	00000013          	nop
80004568:	00018313          	mv	t1,gp
8000456c:	00120213          	add	tp,tp,1 # 1 <_entry_offset+0x1>
80004570:	00200293          	li	t0,2
80004574:	fc521ee3          	bne	tp,t0,80004550 <test_10+0x4>
80004578:	00f00eb7          	lui	t4,0xf00
8000457c:	0f0e8e93          	add	t4,t4,240 # f000f0 <_entry_offset+0xf000f0>
80004580:	00a00e13          	li	t3,10
80004584:	35d31c63          	bne	t1,t4,800048dc <fail>

80004588 <test_11>:
80004588:	00000213          	li	tp,0
8000458c:	00ff0fb7          	lui	t6,0xff0
80004590:	0fff8f93          	add	t6,t6,255 # ff00ff <_entry_offset+0xff00ff>
80004594:	0f0f1137          	lui	sp,0xf0f1
80004598:	f0f10113          	add	sp,sp,-241 # f0f0f0f <_entry_offset+0xf0f0f0f>
8000459c:	002ff1b3          	and	gp,t6,sp
800045a0:	00000013          	nop
800045a4:	00000013          	nop
800045a8:	00018313          	mv	t1,gp
800045ac:	00120213          	add	tp,tp,1 # 1 <_entry_offset+0x1>
800045b0:	00200293          	li	t0,2
800045b4:	fc521ce3          	bne	tp,t0,8000458c <test_11+0x4>
800045b8:	000f0eb7          	lui	t4,0xf0
800045bc:	00fe8e93          	add	t4,t4,15 # f000f <_entry_offset+0xf000f>
800045c0:	00b00e13          	li	t3,11
800045c4:	31d31c63          	bne	t1,t4,800048dc <fail>

800045c8 <test_12>:
800045c8:	00000213          	li	tp,0
800045cc:	ff010fb7          	lui	t6,0xff010
800045d0:	f00f8f93          	add	t6,t6,-256 # ff00ff00 <_end+0x7effcf00>
800045d4:	0f0f1137          	lui	sp,0xf0f1
800045d8:	f0f10113          	add	sp,sp,-241 # f0f0f0f <_entry_offset+0xf0f0f0f>
800045dc:	002ff1b3          	and	gp,t6,sp
800045e0:	00120213          	add	tp,tp,1 # 1 <_entry_offset+0x1>
800045e4:	00200293          	li	t0,2
800045e8:	fe5212e3          	bne	tp,t0,800045cc <test_12+0x4>
800045ec:	0f001eb7          	lui	t4,0xf001
800045f0:	f00e8e93          	add	t4,t4,-256 # f000f00 <_entry_offset+0xf000f00>
800045f4:	00c00e13          	li	t3,12
800045f8:	2fd19263          	bne	gp,t4,800048dc <fail>

800045fc <test_13>:
800045fc:	00000213          	li	tp,0
80004600:	0ff01fb7          	lui	t6,0xff01
80004604:	ff0f8f93          	add	t6,t6,-16 # ff00ff0 <_entry_offset+0xff00ff0>
80004608:	f0f0f137          	lui	sp,0xf0f0f
8000460c:	0f010113          	add	sp,sp,240 # f0f0f0f0 <_end+0x70efc0f0>
80004610:	00000013          	nop
80004614:	002ff1b3          	and	gp,t6,sp
80004618:	00120213          	add	tp,tp,1 # 1 <_entry_offset+0x1>
8000461c:	00200293          	li	t0,2
80004620:	fe5210e3          	bne	tp,t0,80004600 <test_13+0x4>
80004624:	00f00eb7          	lui	t4,0xf00
80004628:	0f0e8e93          	add	t4,t4,240 # f000f0 <_entry_offset+0xf000f0>
8000462c:	00d00e13          	li	t3,13
80004630:	2bd19663          	bne	gp,t4,800048dc <fail>

80004634 <test_14>:
80004634:	00000213          	li	tp,0
80004638:	00ff0fb7          	lui	t6,0xff0
8000463c:	0fff8f93          	add	t6,t6,255 # ff00ff <_entry_offset+0xff00ff>
80004640:	0f0f1137          	lui	sp,0xf0f1
80004644:	f0f10113          	add	sp,sp,-241 # f0f0f0f <_entry_offset+0xf0f0f0f>
80004648:	00000013          	nop
8000464c:	00000013          	nop
80004650:	002ff1b3          	and	gp,t6,sp
80004654:	00120213          	add	tp,tp,1 # 1 <_entry_offset+0x1>
80004658:	00200293          	li	t0,2
8000465c:	fc521ee3          	bne	tp,t0,80004638 <test_14+0x4>
80004660:	000f0eb7          	lui	t4,0xf0
80004664:	00fe8e93          	add	t4,t4,15 # f000f <_entry_offset+0xf000f>
80004668:	00e00e13          	li	t3,14
8000466c:	27d19863          	bne	gp,t4,800048dc <fail>

80004670 <test_15>:
80004670:	00000213          	li	tp,0
80004674:	ff010fb7          	lui	t6,0xff010
80004678:	f00f8f93          	add	t6,t6,-256 # ff00ff00 <_end+0x7effcf00>
8000467c:	00000013          	nop
80004680:	0f0f1137          	lui	sp,0xf0f1
80004684:	f0f10113          	add	sp,sp,-241 # f0f0f0f <_entry_offset+0xf0f0f0f>
80004688:	002ff1b3          	and	gp,t6,sp
8000468c:	00120213          	add	tp,tp,1 # 1 <_entry_offset+0x1>
80004690:	00200293          	li	t0,2
80004694:	fe5210e3          	bne	tp,t0,80004674 <test_15+0x4>
80004698:	0f001eb7          	lui	t4,0xf001
8000469c:	f00e8e93          	add	t4,t4,-256 # f000f00 <_entry_offset+0xf000f00>
800046a0:	00f00e13          	li	t3,15
800046a4:	23d19c63          	bne	gp,t4,800048dc <fail>

800046a8 <test_16>:
800046a8:	00000213          	li	tp,0
800046ac:	0ff01fb7          	lui	t6,0xff01
800046b0:	ff0f8f93          	add	t6,t6,-16 # ff00ff0 <_entry_offset+0xff00ff0>
800046b4:	00000013          	nop
800046b8:	f0f0f137          	lui	sp,0xf0f0f
800046bc:	0f010113          	add	sp,sp,240 # f0f0f0f0 <_end+0x70efc0f0>
800046c0:	00000013          	nop
800046c4:	002ff1b3          	and	gp,t6,sp
800046c8:	00120213          	add	tp,tp,1 # 1 <_entry_offset+0x1>
800046cc:	00200293          	li	t0,2
800046d0:	fc521ee3          	bne	tp,t0,800046ac <test_16+0x4>
800046d4:	00f00eb7          	lui	t4,0xf00
800046d8:	0f0e8e93          	add	t4,t4,240 # f000f0 <_entry_offset+0xf000f0>
800046dc:	01000e13          	li	t3,16
800046e0:	1fd19e63          	bne	gp,t4,800048dc <fail>

800046e4 <test_17>:
800046e4:	00000213          	li	tp,0
800046e8:	00ff0fb7          	lui	t6,0xff0
800046ec:	0fff8f93          	add	t6,t6,255 # ff00ff <_entry_offset+0xff00ff>
800046f0:	00000013          	nop
800046f4:	00000013          	nop
800046f8:	0f0f1137          	lui	sp,0xf0f1
800046fc:	f0f10113          	add	sp,sp,-241 # f0f0f0f <_entry_offset+0xf0f0f0f>
80004700:	002ff1b3          	and	gp,t6,sp
80004704:	00120213          	add	tp,tp,1 # 1 <_entry_offset+0x1>
80004708:	00200293          	li	t0,2
8000470c:	fc521ee3          	bne	tp,t0,800046e8 <test_17+0x4>
80004710:	000f0eb7          	lui	t4,0xf0
80004714:	00fe8e93          	add	t4,t4,15 # f000f <_entry_offset+0xf000f>
80004718:	01100e13          	li	t3,17
8000471c:	1dd19063          	bne	gp,t4,800048dc <fail>

80004720 <test_18>:
80004720:	00000213          	li	tp,0
80004724:	0f0f1137          	lui	sp,0xf0f1
80004728:	f0f10113          	add	sp,sp,-241 # f0f0f0f <_entry_offset+0xf0f0f0f>
8000472c:	ff010fb7          	lui	t6,0xff010
80004730:	f00f8f93          	add	t6,t6,-256 # ff00ff00 <_end+0x7effcf00>
80004734:	002ff1b3          	and	gp,t6,sp
80004738:	00120213          	add	tp,tp,1 # 1 <_entry_offset+0x1>
8000473c:	00200293          	li	t0,2
80004740:	fe5212e3          	bne	tp,t0,80004724 <test_18+0x4>
80004744:	0f001eb7          	lui	t4,0xf001
80004748:	f00e8e93          	add	t4,t4,-256 # f000f00 <_entry_offset+0xf000f00>
8000474c:	01200e13          	li	t3,18
80004750:	19d19663          	bne	gp,t4,800048dc <fail>

80004754 <test_19>:
80004754:	00000213          	li	tp,0
80004758:	f0f0f137          	lui	sp,0xf0f0f
8000475c:	0f010113          	add	sp,sp,240 # f0f0f0f0 <_end+0x70efc0f0>
80004760:	0ff01fb7          	lui	t6,0xff01
80004764:	ff0f8f93          	add	t6,t6,-16 # ff00ff0 <_entry_offset+0xff00ff0>
80004768:	00000013          	nop
8000476c:	002ff1b3          	and	gp,t6,sp
80004770:	00120213          	add	tp,tp,1 # 1 <_entry_offset+0x1>
80004774:	00200293          	li	t0,2
80004778:	fe5210e3          	bne	tp,t0,80004758 <test_19+0x4>
8000477c:	00f00eb7          	lui	t4,0xf00
80004780:	0f0e8e93          	add	t4,t4,240 # f000f0 <_entry_offset+0xf000f0>
80004784:	01300e13          	li	t3,19
80004788:	15d19a63          	bne	gp,t4,800048dc <fail>

8000478c <test_20>:
8000478c:	00000213          	li	tp,0
80004790:	0f0f1137          	lui	sp,0xf0f1
80004794:	f0f10113          	add	sp,sp,-241 # f0f0f0f <_entry_offset+0xf0f0f0f>
80004798:	00ff0fb7          	lui	t6,0xff0
8000479c:	0fff8f93          	add	t6,t6,255 # ff00ff <_entry_offset+0xff00ff>
800047a0:	00000013          	nop
800047a4:	00000013          	nop
800047a8:	002ff1b3          	and	gp,t6,sp
800047ac:	00120213          	add	tp,tp,1 # 1 <_entry_offset+0x1>
800047b0:	00200293          	li	t0,2
800047b4:	fc521ee3          	bne	tp,t0,80004790 <test_20+0x4>
800047b8:	000f0eb7          	lui	t4,0xf0
800047bc:	00fe8e93          	add	t4,t4,15 # f000f <_entry_offset+0xf000f>
800047c0:	01400e13          	li	t3,20
800047c4:	11d19c63          	bne	gp,t4,800048dc <fail>

800047c8 <test_21>:
800047c8:	00000213          	li	tp,0
800047cc:	0f0f1137          	lui	sp,0xf0f1
800047d0:	f0f10113          	add	sp,sp,-241 # f0f0f0f <_entry_offset+0xf0f0f0f>
800047d4:	00000013          	nop
800047d8:	ff010fb7          	lui	t6,0xff010
800047dc:	f00f8f93          	add	t6,t6,-256 # ff00ff00 <_end+0x7effcf00>
800047e0:	002ff1b3          	and	gp,t6,sp
800047e4:	00120213          	add	tp,tp,1 # 1 <_entry_offset+0x1>
800047e8:	00200293          	li	t0,2
800047ec:	fe5210e3          	bne	tp,t0,800047cc <test_21+0x4>
800047f0:	0f001eb7          	lui	t4,0xf001
800047f4:	f00e8e93          	add	t4,t4,-256 # f000f00 <_entry_offset+0xf000f00>
800047f8:	01500e13          	li	t3,21
800047fc:	0fd19063          	bne	gp,t4,800048dc <fail>

80004800 <test_22>:
80004800:	00000213          	li	tp,0
80004804:	f0f0f137          	lui	sp,0xf0f0f
80004808:	0f010113          	add	sp,sp,240 # f0f0f0f0 <_end+0x70efc0f0>
8000480c:	00000013          	nop
80004810:	0ff01fb7          	lui	t6,0xff01
80004814:	ff0f8f93          	add	t6,t6,-16 # ff00ff0 <_entry_offset+0xff00ff0>
80004818:	00000013          	nop
8000481c:	002ff1b3          	and	gp,t6,sp
80004820:	00120213          	add	tp,tp,1 # 1 <_entry_offset+0x1>
80004824:	00200293          	li	t0,2
80004828:	fc521ee3          	bne	tp,t0,80004804 <test_22+0x4>
8000482c:	00f00eb7          	lui	t4,0xf00
80004830:	0f0e8e93          	add	t4,t4,240 # f000f0 <_entry_offset+0xf000f0>
80004834:	01600e13          	li	t3,22
80004838:	0bd19263          	bne	gp,t4,800048dc <fail>

8000483c <test_23>:
8000483c:	00000213          	li	tp,0
80004840:	0f0f1137          	lui	sp,0xf0f1
80004844:	f0f10113          	add	sp,sp,-241 # f0f0f0f <_entry_offset+0xf0f0f0f>
80004848:	00000013          	nop
8000484c:	00000013          	nop
80004850:	00ff0fb7          	lui	t6,0xff0
80004854:	0fff8f93          	add	t6,t6,255 # ff00ff <_entry_offset+0xff00ff>
80004858:	002ff1b3          	and	gp,t6,sp
8000485c:	00120213          	add	tp,tp,1 # 1 <_entry_offset+0x1>
80004860:	00200293          	li	t0,2
80004864:	fc521ee3          	bne	tp,t0,80004840 <test_23+0x4>
80004868:	000f0eb7          	lui	t4,0xf0
8000486c:	00fe8e93          	add	t4,t4,15 # f000f <_entry_offset+0xf000f>
80004870:	01700e13          	li	t3,23
80004874:	07d19463          	bne	gp,t4,800048dc <fail>

80004878 <test_24>:
80004878:	ff010fb7          	lui	t6,0xff010
8000487c:	f00f8f93          	add	t6,t6,-256 # ff00ff00 <_end+0x7effcf00>
80004880:	01f07133          	and	sp,zero,t6
80004884:	00000e93          	li	t4,0
80004888:	01800e13          	li	t3,24
8000488c:	05d11863          	bne	sp,t4,800048dc <fail>

80004890 <test_25>:
80004890:	00ff0fb7          	lui	t6,0xff0
80004894:	0fff8f93          	add	t6,t6,255 # ff00ff <_entry_offset+0xff00ff>
80004898:	000ff133          	and	sp,t6,zero
8000489c:	00000e93          	li	t4,0
800048a0:	01900e13          	li	t3,25
800048a4:	03d11c63          	bne	sp,t4,800048dc <fail>

800048a8 <test_26>:
800048a8:	00007fb3          	and	t6,zero,zero
800048ac:	00000e93          	li	t4,0
800048b0:	01a00e13          	li	t3,26
800048b4:	03df9463          	bne	t6,t4,800048dc <fail>

800048b8 <test_27>:
800048b8:	11111fb7          	lui	t6,0x11111
800048bc:	111f8f93          	add	t6,t6,273 # 11111111 <_entry_offset+0x11111111>
800048c0:	22222137          	lui	sp,0x22222
800048c4:	22210113          	add	sp,sp,546 # 22222222 <_entry_offset+0x22222222>
800048c8:	002ff033          	and	zero,t6,sp
800048cc:	00000e93          	li	t4,0
800048d0:	01b00e13          	li	t3,27
800048d4:	01d01463          	bne	zero,t4,800048dc <fail>
800048d8:	0100006f          	j	800048e8 <pass>

800048dc <fail>:
800048dc:	fff00513          	li	a0,-1
800048e0:	00100073          	ebreak
800048e4:	ff9ff06f          	j	800048dc <fail>

800048e8 <pass>:
800048e8:	00000513          	li	a0,0
800048ec:	00008067          	ret

800048f0 <csrrwi>:
800048f0:	00e00f93          	li	t6,14
800048f4:	342f9073          	csrw	mcause,t6
800048f8:	3423d073          	csrw	mcause,7
800048fc:	342029f3          	csrr	s3,mcause
80004900:	00700f93          	li	t6,7
80004904:	49f99863          	bne	s3,t6,80004d94 <fail>

80004908 <test_1>:
80004908:	00100f93          	li	t6,1
8000490c:	300f9073          	csrw	mstatus,t6
80004910:	3007d073          	csrw	mstatus,15
80004914:	300025f3          	csrr	a1,mstatus
80004918:	00f00f93          	li	t6,15
8000491c:	47f59c63          	bne	a1,t6,80004d94 <fail>

80004920 <test_2>:
80004920:	01000f93          	li	t6,16
80004924:	305f9073          	csrw	mtvec,t6
80004928:	30505073          	csrw	mtvec,0
8000492c:	305023f3          	csrr	t2,mtvec
80004930:	00000f93          	li	t6,0
80004934:	47f39063          	bne	t2,t6,80004d94 <fail>

80004938 <test_3>:
80004938:	00f00f93          	li	t6,15
8000493c:	342f9073          	csrw	mcause,t6
80004940:	34215073          	csrw	mcause,2
80004944:	342021f3          	csrr	gp,mcause
80004948:	00200f93          	li	t6,2
8000494c:	45f19463          	bne	gp,t6,80004d94 <fail>

80004950 <test_4>:
80004950:	01100f93          	li	t6,17
80004954:	341f9073          	csrw	mepc,t6
80004958:	341fd073          	csrw	mepc,31
8000495c:	341023f3          	csrr	t2,mepc
80004960:	01f00f93          	li	t6,31
80004964:	43f39863          	bne	t2,t6,80004d94 <fail>

80004968 <test_5>:
80004968:	00400f93          	li	t6,4
8000496c:	305f9073          	csrw	mtvec,t6
80004970:	305e5073          	csrw	mtvec,28
80004974:	305029f3          	csrr	s3,mtvec
80004978:	01c00f93          	li	t6,28
8000497c:	41f99c63          	bne	s3,t6,80004d94 <fail>

80004980 <test_6>:
80004980:	00e00f93          	li	t6,14
80004984:	300f9073          	csrw	mstatus,t6
80004988:	3000d073          	csrw	mstatus,1
8000498c:	300027f3          	csrr	a5,mstatus
80004990:	00100f93          	li	t6,1
80004994:	41f79063          	bne	a5,t6,80004d94 <fail>

80004998 <test_7>:
80004998:	00900f93          	li	t6,9
8000499c:	342f9073          	csrw	mcause,t6
800049a0:	34265073          	csrw	mcause,12
800049a4:	342029f3          	csrr	s3,mcause
800049a8:	00c00f93          	li	t6,12
800049ac:	3ff99463          	bne	s3,t6,80004d94 <fail>

800049b0 <test_8>:
800049b0:	00700f93          	li	t6,7
800049b4:	342f9073          	csrw	mcause,t6
800049b8:	3420d073          	csrw	mcause,1
800049bc:	342023f3          	csrr	t2,mcause
800049c0:	00100f93          	li	t6,1
800049c4:	3df39863          	bne	t2,t6,80004d94 <fail>

800049c8 <test_9>:
800049c8:	00c00f93          	li	t6,12
800049cc:	300f9073          	csrw	mstatus,t6
800049d0:	30035073          	csrw	mstatus,6
800049d4:	30002c73          	csrr	s8,mstatus
800049d8:	00600f93          	li	t6,6
800049dc:	3bfc1c63          	bne	s8,t6,80004d94 <fail>

800049e0 <test_10>:
800049e0:	00800f93          	li	t6,8
800049e4:	305f9073          	csrw	mtvec,t6
800049e8:	305c5073          	csrw	mtvec,24
800049ec:	30502573          	csrr	a0,mtvec
800049f0:	01800f93          	li	t6,24
800049f4:	3bf51063          	bne	a0,t6,80004d94 <fail>

800049f8 <test_11>:
800049f8:	00300f93          	li	t6,3
800049fc:	342f9073          	csrw	mcause,t6
80004a00:	34215073          	csrw	mcause,2
80004a04:	34202473          	csrr	s0,mcause
80004a08:	00200f93          	li	t6,2
80004a0c:	39f41463          	bne	s0,t6,80004d94 <fail>

80004a10 <test_12>:
80004a10:	01400f93          	li	t6,20
80004a14:	305f9073          	csrw	mtvec,t6
80004a18:	30525073          	csrw	mtvec,4
80004a1c:	30502c73          	csrr	s8,mtvec
80004a20:	00400f93          	li	t6,4
80004a24:	37fc1863          	bne	s8,t6,80004d94 <fail>

80004a28 <test_13>:
80004a28:	01000f93          	li	t6,16
80004a2c:	305f9073          	csrw	mtvec,t6
80004a30:	305a5073          	csrw	mtvec,20
80004a34:	30502b73          	csrr	s6,mtvec
80004a38:	01400f93          	li	t6,20
80004a3c:	35fb1c63          	bne	s6,t6,80004d94 <fail>

80004a40 <test_14>:
80004a40:	01c00f93          	li	t6,28
80004a44:	305f9073          	csrw	mtvec,t6
80004a48:	305a5073          	csrw	mtvec,20
80004a4c:	30502df3          	csrr	s11,mtvec
80004a50:	01400f93          	li	t6,20
80004a54:	35fd9063          	bne	s11,t6,80004d94 <fail>

80004a58 <test_15>:
80004a58:	00e00f93          	li	t6,14
80004a5c:	341f9073          	csrw	mepc,t6
80004a60:	3414d073          	csrw	mepc,9
80004a64:	341025f3          	csrr	a1,mepc
80004a68:	00900f93          	li	t6,9
80004a6c:	33f59463          	bne	a1,t6,80004d94 <fail>

80004a70 <test_16>:
80004a70:	00500f93          	li	t6,5
80004a74:	342f9073          	csrw	mcause,t6
80004a78:	3426d073          	csrw	mcause,13
80004a7c:	34202973          	csrr	s2,mcause
80004a80:	00d00f93          	li	t6,13
80004a84:	31f91863          	bne	s2,t6,80004d94 <fail>

80004a88 <test_17>:
80004a88:	00600f93          	li	t6,6
80004a8c:	341f9073          	csrw	mepc,t6
80004a90:	34155073          	csrw	mepc,10
80004a94:	34102df3          	csrr	s11,mepc
80004a98:	00a00f93          	li	t6,10
80004a9c:	2ffd9c63          	bne	s11,t6,80004d94 <fail>

80004aa0 <test_18>:
80004aa0:	00b00f93          	li	t6,11
80004aa4:	342f9073          	csrw	mcause,t6
80004aa8:	34235073          	csrw	mcause,6
80004aac:	342027f3          	csrr	a5,mcause
80004ab0:	00600f93          	li	t6,6
80004ab4:	2ff79063          	bne	a5,t6,80004d94 <fail>

80004ab8 <test_19>:
80004ab8:	00e00f93          	li	t6,14
80004abc:	342f9073          	csrw	mcause,t6
80004ac0:	3425d073          	csrw	mcause,11
80004ac4:	34202c73          	csrr	s8,mcause
80004ac8:	00b00f93          	li	t6,11
80004acc:	2dfc1463          	bne	s8,t6,80004d94 <fail>

80004ad0 <test_20>:
80004ad0:	01800f93          	li	t6,24
80004ad4:	300f9073          	csrw	mstatus,t6
80004ad8:	30055073          	csrw	mstatus,10
80004adc:	30002573          	csrr	a0,mstatus
80004ae0:	00a00f93          	li	t6,10
80004ae4:	2bf51863          	bne	a0,t6,80004d94 <fail>

80004ae8 <test_21>:
80004ae8:	00600f93          	li	t6,6
80004aec:	342f9073          	csrw	mcause,t6
80004af0:	34245073          	csrw	mcause,8
80004af4:	34202b73          	csrr	s6,mcause
80004af8:	00800f93          	li	t6,8
80004afc:	29fb1c63          	bne	s6,t6,80004d94 <fail>

80004b00 <test_22>:
80004b00:	01f00f93          	li	t6,31
80004b04:	300f9073          	csrw	mstatus,t6
80004b08:	3001d073          	csrw	mstatus,3
80004b0c:	300022f3          	csrr	t0,mstatus
80004b10:	00300f93          	li	t6,3
80004b14:	29f29063          	bne	t0,t6,80004d94 <fail>

80004b18 <test_23>:
80004b18:	00000f93          	li	t6,0
80004b1c:	342f9073          	csrw	mcause,t6
80004b20:	34265073          	csrw	mcause,12
80004b24:	34202673          	csrr	a2,mcause
80004b28:	00c00f93          	li	t6,12
80004b2c:	27f61463          	bne	a2,t6,80004d94 <fail>

80004b30 <test_24>:
80004b30:	00700f93          	li	t6,7
80004b34:	342f9073          	csrw	mcause,t6
80004b38:	3427d073          	csrw	mcause,15
80004b3c:	342022f3          	csrr	t0,mcause
80004b40:	00f00f93          	li	t6,15
80004b44:	25f29863          	bne	t0,t6,80004d94 <fail>

80004b48 <test_25>:
80004b48:	00d00f93          	li	t6,13
80004b4c:	342f9073          	csrw	mcause,t6
80004b50:	3422d073          	csrw	mcause,5
80004b54:	34202873          	csrr	a6,mcause
80004b58:	00500f93          	li	t6,5
80004b5c:	23f81c63          	bne	a6,t6,80004d94 <fail>

80004b60 <test_26>:
80004b60:	00700f93          	li	t6,7
80004b64:	300f9073          	csrw	mstatus,t6
80004b68:	30015073          	csrw	mstatus,2
80004b6c:	30002c73          	csrr	s8,mstatus
80004b70:	00200f93          	li	t6,2
80004b74:	23fc1063          	bne	s8,t6,80004d94 <fail>

80004b78 <test_27>:
80004b78:	01f00f93          	li	t6,31
80004b7c:	341f9073          	csrw	mepc,t6
80004b80:	34155073          	csrw	mepc,10
80004b84:	34102673          	csrr	a2,mepc
80004b88:	00a00f93          	li	t6,10
80004b8c:	21f61463          	bne	a2,t6,80004d94 <fail>

80004b90 <test_28>:
80004b90:	01e00f93          	li	t6,30
80004b94:	341f9073          	csrw	mepc,t6
80004b98:	34175073          	csrw	mepc,14
80004b9c:	34102273          	csrr	tp,mepc
80004ba0:	00e00f93          	li	t6,14
80004ba4:	1ff21863          	bne	tp,t6,80004d94 <fail>

80004ba8 <test_29>:
80004ba8:	01400f93          	li	t6,20
80004bac:	305f9073          	csrw	mtvec,t6
80004bb0:	30505073          	csrw	mtvec,0
80004bb4:	30502173          	csrr	sp,mtvec
80004bb8:	00000f93          	li	t6,0
80004bbc:	1df11c63          	bne	sp,t6,80004d94 <fail>

80004bc0 <test_30>:
80004bc0:	01700f93          	li	t6,23
80004bc4:	341f9073          	csrw	mepc,t6
80004bc8:	3415d073          	csrw	mepc,11
80004bcc:	34102273          	csrr	tp,mepc
80004bd0:	00b00f93          	li	t6,11
80004bd4:	1df21063          	bne	tp,t6,80004d94 <fail>

80004bd8 <test_31>:
80004bd8:	00200f93          	li	t6,2
80004bdc:	00000013          	nop
80004be0:	341f9073          	csrw	mepc,t6
80004be4:	00000013          	nop
80004be8:	341c5073          	csrw	mepc,24
80004bec:	00000013          	nop
80004bf0:	341024f3          	csrr	s1,mepc
80004bf4:	00000013          	nop
80004bf8:	01800f93          	li	t6,24
80004bfc:	19f49c63          	bne	s1,t6,80004d94 <fail>

80004c00 <test_32>:
80004c00:	00200f93          	li	t6,2
80004c04:	00000013          	nop
80004c08:	00000013          	nop
80004c0c:	342f9073          	csrw	mcause,t6
80004c10:	00000013          	nop
80004c14:	00000013          	nop
80004c18:	3423d073          	csrw	mcause,7
80004c1c:	00000013          	nop
80004c20:	00000013          	nop
80004c24:	342026f3          	csrr	a3,mcause
80004c28:	00000013          	nop
80004c2c:	00000013          	nop
80004c30:	00700f93          	li	t6,7
80004c34:	17f69063          	bne	a3,t6,80004d94 <fail>

80004c38 <test_33>:
80004c38:	00700f93          	li	t6,7
80004c3c:	00000013          	nop
80004c40:	00000013          	nop
80004c44:	00000013          	nop
80004c48:	300f9073          	csrw	mstatus,t6
80004c4c:	00000013          	nop
80004c50:	00000013          	nop
80004c54:	00000013          	nop
80004c58:	300e5073          	csrw	mstatus,28
80004c5c:	00000013          	nop
80004c60:	00000013          	nop
80004c64:	00000013          	nop
80004c68:	30002bf3          	csrr	s7,mstatus
80004c6c:	00000013          	nop
80004c70:	00000013          	nop
80004c74:	00000013          	nop
80004c78:	01c00f93          	li	t6,28
80004c7c:	11fb9c63          	bne	s7,t6,80004d94 <fail>

80004c80 <test_34>:
80004c80:	00c00f93          	li	t6,12
80004c84:	00000013          	nop
80004c88:	00000013          	nop
80004c8c:	00000013          	nop
80004c90:	00000013          	nop
80004c94:	341f9073          	csrw	mepc,t6
80004c98:	00000013          	nop
80004c9c:	00000013          	nop
80004ca0:	00000013          	nop
80004ca4:	00000013          	nop
80004ca8:	341bd073          	csrw	mepc,23
80004cac:	00000013          	nop
80004cb0:	00000013          	nop
80004cb4:	00000013          	nop
80004cb8:	00000013          	nop
80004cbc:	34102af3          	csrr	s5,mepc
80004cc0:	00000013          	nop
80004cc4:	00000013          	nop
80004cc8:	00000013          	nop
80004ccc:	00000013          	nop
80004cd0:	01700f93          	li	t6,23
80004cd4:	0dfa9063          	bne	s5,t6,80004d94 <fail>

80004cd8 <test_35>:
80004cd8:	00800f93          	li	t6,8
80004cdc:	00000013          	nop
80004ce0:	00000013          	nop
80004ce4:	00000013          	nop
80004ce8:	00000013          	nop
80004cec:	00000013          	nop
80004cf0:	342f9073          	csrw	mcause,t6
80004cf4:	00000013          	nop
80004cf8:	00000013          	nop
80004cfc:	00000013          	nop
80004d00:	00000013          	nop
80004d04:	00000013          	nop
80004d08:	34235073          	csrw	mcause,6
80004d0c:	00000013          	nop
80004d10:	00000013          	nop
80004d14:	00000013          	nop
80004d18:	00000013          	nop
80004d1c:	00000013          	nop
80004d20:	34202973          	csrr	s2,mcause
80004d24:	00000013          	nop
80004d28:	00000013          	nop
80004d2c:	00000013          	nop
80004d30:	00000013          	nop
80004d34:	00000013          	nop
80004d38:	00600f93          	li	t6,6
80004d3c:	05f91c63          	bne	s2,t6,80004d94 <fail>

80004d40 <test_36>:
80004d40:	01a00f93          	li	t6,26
80004d44:	300f9073          	csrw	mstatus,t6
80004d48:	30055073          	csrw	mstatus,10
80004d4c:	00000f93          	li	t6,0
80004d50:	05f01263          	bne	zero,t6,80004d94 <fail>

80004d54 <test_37>:
80004d54:	01900f93          	li	t6,25
80004d58:	341f9073          	csrw	mepc,t6
80004d5c:	341f5073          	csrw	mepc,30
80004d60:	00000f93          	li	t6,0
80004d64:	03f01863          	bne	zero,t6,80004d94 <fail>

80004d68 <test_38>:
80004d68:	00e00f93          	li	t6,14
80004d6c:	341f9073          	csrw	mepc,t6
80004d70:	341bd073          	csrw	mepc,23
80004d74:	00000f93          	li	t6,0
80004d78:	01f01e63          	bne	zero,t6,80004d94 <fail>

80004d7c <test_39>:
80004d7c:	00800f93          	li	t6,8
80004d80:	305f9073          	csrw	mtvec,t6
80004d84:	305a5073          	csrw	mtvec,20
80004d88:	00000f93          	li	t6,0
80004d8c:	01f01463          	bne	zero,t6,80004d94 <fail>
80004d90:	0100006f          	j	80004da0 <pass>

80004d94 <fail>:
80004d94:	fff00513          	li	a0,-1
80004d98:	00100073          	ebreak
80004d9c:	ff9ff06f          	j	80004d94 <fail>

80004da0 <pass>:
80004da0:	00000513          	li	a0,0
80004da4:	00008067          	ret

80004da8 <csrrs>:
80004da8:	0007e7b7          	lui	a5,0x7e
80004dac:	b4378793          	add	a5,a5,-1213 # 7db43 <_entry_offset+0x7db43>
80004db0:	30079073          	csrw	mstatus,a5
80004db4:	8026c7b7          	lui	a5,0x8026c
80004db8:	77b78793          	add	a5,a5,1915 # 8026c77b <_end+0x25977b>
80004dbc:	3007a073          	csrs	mstatus,a5
80004dc0:	30002d73          	csrr	s10,mstatus
80004dc4:	8027efb7          	lui	t6,0x8027e
80004dc8:	f7bf8f93          	add	t6,t6,-133 # 8027df7b <_end+0x26af7b>
80004dcc:	71fd1263          	bne	s10,t6,800054d0 <fail>

80004dd0 <test_1>:
80004dd0:	03c66637          	lui	a2,0x3c66
80004dd4:	2d460613          	add	a2,a2,724 # 3c662d4 <_entry_offset+0x3c662d4>
80004dd8:	30561073          	csrw	mtvec,a2
80004ddc:	11dd5637          	lui	a2,0x11dd5
80004de0:	ce460613          	add	a2,a2,-796 # 11dd4ce4 <_entry_offset+0x11dd4ce4>
80004de4:	30562073          	csrs	mtvec,a2
80004de8:	305029f3          	csrr	s3,mtvec
80004dec:	13df7fb7          	lui	t6,0x13df7
80004df0:	ef4f8f93          	add	t6,t6,-268 # 13df6ef4 <_entry_offset+0x13df6ef4>
80004df4:	6df99e63          	bne	s3,t6,800054d0 <fail>

80004df8 <test_2>:
80004df8:	37e28137          	lui	sp,0x37e28
80004dfc:	d6a10113          	add	sp,sp,-662 # 37e27d6a <_entry_offset+0x37e27d6a>
80004e00:	34111073          	csrw	mepc,sp
80004e04:	fb9ed137          	lui	sp,0xfb9ed
80004e08:	25510113          	add	sp,sp,597 # fb9ed255 <_end+0x7b9da255>
80004e0c:	34112073          	csrs	mepc,sp
80004e10:	341026f3          	csrr	a3,mepc
80004e14:	ffff0fb7          	lui	t6,0xffff0
80004e18:	f7ff8f93          	add	t6,t6,-129 # fffeff7f <_end+0x7ffdcf7f>
80004e1c:	6bf69a63          	bne	a3,t6,800054d0 <fail>

80004e20 <test_3>:
80004e20:	bd5212b7          	lui	t0,0xbd521
80004e24:	a0d28293          	add	t0,t0,-1523 # bd520a0d <_end+0x3d50da0d>
80004e28:	34129073          	csrw	mepc,t0
80004e2c:	7b4af2b7          	lui	t0,0x7b4af
80004e30:	fc928293          	add	t0,t0,-55 # 7b4aefc9 <_entry_offset+0x7b4aefc9>
80004e34:	3412a073          	csrs	mepc,t0
80004e38:	34102af3          	csrr	s5,mepc
80004e3c:	ff5affb7          	lui	t6,0xff5af
80004e40:	fcdf8f93          	add	t6,t6,-51 # ff5aefcd <_end+0x7f59bfcd>
80004e44:	69fa9663          	bne	s5,t6,800054d0 <fail>

80004e48 <test_4>:
80004e48:	00900c93          	li	s9,9
80004e4c:	342c9073          	csrw	mcause,s9
80004e50:	00a00c93          	li	s9,10
80004e54:	342ca073          	csrs	mcause,s9
80004e58:	342023f3          	csrr	t2,mcause
80004e5c:	00b00f93          	li	t6,11
80004e60:	67f39863          	bne	t2,t6,800054d0 <fail>

80004e64 <test_5>:
80004e64:	000a23b7          	lui	t2,0xa2
80004e68:	7a538393          	add	t2,t2,1957 # a27a5 <_entry_offset+0xa27a5>
80004e6c:	30039073          	csrw	mstatus,t2
80004e70:	003cc3b7          	lui	t2,0x3cc
80004e74:	5f938393          	add	t2,t2,1529 # 3cc5f9 <_entry_offset+0x3cc5f9>
80004e78:	3003a073          	csrs	mstatus,t2
80004e7c:	30002f73          	csrr	t5,mstatus
80004e80:	003eefb7          	lui	t6,0x3ee
80004e84:	7fdf8f93          	add	t6,t6,2045 # 3ee7fd <_entry_offset+0x3ee7fd>
80004e88:	65ff1463          	bne	t5,t6,800054d0 <fail>

80004e8c <test_6>:
80004e8c:	9e621537          	lui	a0,0x9e621
80004e90:	13a50513          	add	a0,a0,314 # 9e62113a <_end+0x1e60e13a>
80004e94:	34151073          	csrw	mepc,a0
80004e98:	d24d7537          	lui	a0,0xd24d7
80004e9c:	f3b50513          	add	a0,a0,-197 # d24d6f3b <_end+0x524c3f3b>
80004ea0:	34152073          	csrs	mepc,a0
80004ea4:	34102573          	csrr	a0,mepc
80004ea8:	de6f8fb7          	lui	t6,0xde6f8
80004eac:	f3bf8f93          	add	t6,t6,-197 # de6f7f3b <_end+0x5e6e4f3b>
80004eb0:	63f51063          	bne	a0,t6,800054d0 <fail>

80004eb4 <test_7>:
80004eb4:	6a2ffa37          	lui	s4,0x6a2ff
80004eb8:	820a0a13          	add	s4,s4,-2016 # 6a2fe820 <_entry_offset+0x6a2fe820>
80004ebc:	305a1073          	csrw	mtvec,s4
80004ec0:	ac261a37          	lui	s4,0xac261
80004ec4:	5fca0a13          	add	s4,s4,1532 # ac2615fc <_end+0x2c24e5fc>
80004ec8:	305a2073          	csrs	mtvec,s4
80004ecc:	305025f3          	csrr	a1,mtvec
80004ed0:	ee300fb7          	lui	t6,0xee300
80004ed4:	dfcf8f93          	add	t6,t6,-516 # ee2ffdfc <_end+0x6e2ecdfc>
80004ed8:	5ff59c63          	bne	a1,t6,800054d0 <fail>

80004edc <test_8>:
80004edc:	80000137          	lui	sp,0x80000
80004ee0:	00a10113          	add	sp,sp,10 # 8000000a <_start+0xa>
80004ee4:	34211073          	csrw	mcause,sp
80004ee8:	80000137          	lui	sp,0x80000
80004eec:	00a10113          	add	sp,sp,10 # 8000000a <_start+0xa>
80004ef0:	34212073          	csrs	mcause,sp
80004ef4:	342024f3          	csrr	s1,mcause
80004ef8:	80000fb7          	lui	t6,0x80000
80004efc:	00af8f93          	add	t6,t6,10 # 8000000a <_start+0xa>
80004f00:	5df49863          	bne	s1,t6,800054d0 <fail>

80004f04 <test_9>:
80004f04:	80082137          	lui	sp,0x80082
80004f08:	51b10113          	add	sp,sp,1307 # 8008251b <_end+0x6f51b>
80004f0c:	30011073          	csrw	mstatus,sp
80004f10:	00371137          	lui	sp,0x371
80004f14:	6d710113          	add	sp,sp,1751 # 3716d7 <_entry_offset+0x3716d7>
80004f18:	30012073          	csrs	mstatus,sp
80004f1c:	30002573          	csrr	a0,mstatus
80004f20:	803f3fb7          	lui	t6,0x803f3
80004f24:	7dff8f93          	add	t6,t6,2015 # 803f37df <_end+0x3e07df>
80004f28:	5bf51463          	bne	a0,t6,800054d0 <fail>

80004f2c <test_10>:
80004f2c:	8037ce37          	lui	t3,0x8037c
80004f30:	8e9e0e13          	add	t3,t3,-1815 # 8037b8e9 <_end+0x3688e9>
80004f34:	300e1073          	csrw	mstatus,t3
80004f38:	00365e37          	lui	t3,0x365
80004f3c:	7e8e0e13          	add	t3,t3,2024 # 3657e8 <_entry_offset+0x3657e8>
80004f40:	300e2073          	csrs	mstatus,t3
80004f44:	30002273          	csrr	tp,mstatus
80004f48:	80380fb7          	lui	t6,0x80380
80004f4c:	fe9f8f93          	add	t6,t6,-23 # 8037ffe9 <_end+0x36cfe9>
80004f50:	59f21063          	bne	tp,t6,800054d0 <fail>

80004f54 <test_11>:
80004f54:	2748d337          	lui	t1,0x2748d
80004f58:	25030313          	add	t1,t1,592 # 2748d250 <_entry_offset+0x2748d250>
80004f5c:	30531073          	csrw	mtvec,t1
80004f60:	afac1337          	lui	t1,0xafac1
80004f64:	c2030313          	add	t1,t1,-992 # afac0c20 <_end+0x2faadc20>
80004f68:	30532073          	csrs	mtvec,t1
80004f6c:	305027f3          	csrr	a5,mtvec
80004f70:	afecefb7          	lui	t6,0xafece
80004f74:	e70f8f93          	add	t6,t6,-400 # afecde70 <_end+0x2febae70>
80004f78:	55f79c63          	bne	a5,t6,800054d0 <fail>

80004f7c <test_12>:
80004f7c:	bff2ce37          	lui	t3,0xbff2c
80004f80:	fa8e0e13          	add	t3,t3,-88 # bff2bfa8 <_end+0x3ff18fa8>
80004f84:	305e1073          	csrw	mtvec,t3
80004f88:	3c872e37          	lui	t3,0x3c872
80004f8c:	884e0e13          	add	t3,t3,-1916 # 3c871884 <_entry_offset+0x3c871884>
80004f90:	305e2073          	csrs	mtvec,t3
80004f94:	30502873          	csrr	a6,mtvec
80004f98:	bff7cfb7          	lui	t6,0xbff7c
80004f9c:	facf8f93          	add	t6,t6,-84 # bff7bfac <_end+0x3ff68fac>
80004fa0:	53f81863          	bne	a6,t6,800054d0 <fail>

80004fa4 <test_13>:
80004fa4:	001851b7          	lui	gp,0x185
80004fa8:	78a18193          	add	gp,gp,1930 # 18578a <_entry_offset+0x18578a>
80004fac:	30019073          	csrw	mstatus,gp
80004fb0:	003e21b7          	lui	gp,0x3e2
80004fb4:	c3018193          	add	gp,gp,-976 # 3e1c30 <_entry_offset+0x3e1c30>
80004fb8:	3001a073          	csrs	mstatus,gp
80004fbc:	30002373          	csrr	t1,mstatus
80004fc0:	003e6fb7          	lui	t6,0x3e6
80004fc4:	fbaf8f93          	add	t6,t6,-70 # 3e5fba <_entry_offset+0x3e5fba>
80004fc8:	51f31463          	bne	t1,t6,800054d0 <fail>

80004fcc <test_14>:
80004fcc:	e216e1b7          	lui	gp,0xe216e
80004fd0:	fc018193          	add	gp,gp,-64 # e216dfc0 <_end+0x6215afc0>
80004fd4:	30519073          	csrw	mtvec,gp
80004fd8:	775221b7          	lui	gp,0x77522
80004fdc:	d7418193          	add	gp,gp,-652 # 77521d74 <_entry_offset+0x77521d74>
80004fe0:	3051a073          	csrs	mtvec,gp
80004fe4:	305024f3          	csrr	s1,mtvec
80004fe8:	f756efb7          	lui	t6,0xf756e
80004fec:	ff4f8f93          	add	t6,t6,-12 # f756dff4 <_end+0x7755aff4>
80004ff0:	4ff49063          	bne	s1,t6,800054d0 <fail>

80004ff4 <test_15>:
80004ff4:	ffe50cb7          	lui	s9,0xffe50
80004ff8:	73dc8c93          	add	s9,s9,1853 # ffe5073d <_end+0x7fe3d73d>
80004ffc:	341c9073          	csrw	mepc,s9
80005000:	c61cfcb7          	lui	s9,0xc61cf
80005004:	625c8c93          	add	s9,s9,1573 # c61cf625 <_end+0x461bc625>
80005008:	341ca073          	csrs	mepc,s9
8000500c:	341029f3          	csrr	s3,mepc
80005010:	fffdffb7          	lui	t6,0xfffdf
80005014:	73df8f93          	add	t6,t6,1853 # fffdf73d <_end+0x7ffcc73d>
80005018:	4bf99c63          	bne	s3,t6,800054d0 <fail>

8000501c <test_16>:
8000501c:	19e02eb7          	lui	t4,0x19e02
80005020:	4eee8e93          	add	t4,t4,1262 # 19e024ee <_entry_offset+0x19e024ee>
80005024:	341e9073          	csrw	mepc,t4
80005028:	1159feb7          	lui	t4,0x1159f
8000502c:	83ee8e93          	add	t4,t4,-1986 # 1159e83e <_entry_offset+0x1159e83e>
80005030:	341ea073          	csrs	mepc,t4
80005034:	341027f3          	csrr	a5,mepc
80005038:	19f9ffb7          	lui	t6,0x19f9f
8000503c:	cfef8f93          	add	t6,t6,-770 # 19f9ecfe <_entry_offset+0x19f9ecfe>
80005040:	49f79863          	bne	a5,t6,800054d0 <fail>

80005044 <test_17>:
80005044:	7669af37          	lui	t5,0x7669a
80005048:	c22f0f13          	add	t5,t5,-990 # 76699c22 <_entry_offset+0x76699c22>
8000504c:	341f1073          	csrw	mepc,t5
80005050:	5100bf37          	lui	t5,0x5100b
80005054:	af4f0f13          	add	t5,t5,-1292 # 5100aaf4 <_entry_offset+0x5100aaf4>
80005058:	341f2073          	csrs	mepc,t5
8000505c:	34102cf3          	csrr	s9,mepc
80005060:	7769cfb7          	lui	t6,0x7769c
80005064:	ef6f8f93          	add	t6,t6,-266 # 7769bef6 <_entry_offset+0x7769bef6>
80005068:	47fc9463          	bne	s9,t6,800054d0 <fail>

8000506c <test_18>:
8000506c:	002d8eb7          	lui	t4,0x2d8
80005070:	2d0e8e93          	add	t4,t4,720 # 2d82d0 <_entry_offset+0x2d82d0>
80005074:	300e9073          	csrw	mstatus,t4
80005078:	800daeb7          	lui	t4,0x800da
8000507c:	b3ee8e93          	add	t4,t4,-1218 # 800d9b3e <_end+0xc6b3e>
80005080:	300ea073          	csrs	mstatus,t4
80005084:	300027f3          	csrr	a5,mstatus
80005088:	802dafb7          	lui	t6,0x802da
8000508c:	bfef8f93          	add	t6,t6,-1026 # 802d9bfe <_end+0x2c6bfe>
80005090:	45f79063          	bne	a5,t6,800054d0 <fail>

80005094 <test_19>:
80005094:	00354937          	lui	s2,0x354
80005098:	63e90913          	add	s2,s2,1598 # 35463e <_entry_offset+0x35463e>
8000509c:	30091073          	csrw	mstatus,s2
800050a0:	80071937          	lui	s2,0x80071
800050a4:	e0590913          	add	s2,s2,-507 # 80070e05 <_end+0x5de05>
800050a8:	30092073          	csrs	mstatus,s2
800050ac:	30002f73          	csrr	t5,mstatus
800050b0:	80375fb7          	lui	t6,0x80375
800050b4:	e3ff8f93          	add	t6,t6,-449 # 80374e3f <_end+0x361e3f>
800050b8:	41ff1c63          	bne	t5,t6,800054d0 <fail>

800050bc <test_20>:
800050bc:	345565b7          	lui	a1,0x34556
800050c0:	ea858593          	add	a1,a1,-344 # 34555ea8 <_entry_offset+0x34555ea8>
800050c4:	34159073          	csrw	mepc,a1
800050c8:	4c0ce5b7          	lui	a1,0x4c0ce
800050cc:	69358593          	add	a1,a1,1683 # 4c0ce693 <_entry_offset+0x4c0ce693>
800050d0:	3415a073          	csrs	mepc,a1
800050d4:	341025f3          	csrr	a1,mepc
800050d8:	7c5e0fb7          	lui	t6,0x7c5e0
800050dc:	ebbf8f93          	add	t6,t6,-325 # 7c5dfebb <_entry_offset+0x7c5dfebb>
800050e0:	3ff59863          	bne	a1,t6,800054d0 <fail>

800050e4 <test_21>:
800050e4:	6f7c4437          	lui	s0,0x6f7c4
800050e8:	c3840413          	add	s0,s0,-968 # 6f7c3c38 <_entry_offset+0x6f7c3c38>
800050ec:	30541073          	csrw	mtvec,s0
800050f0:	72b0e437          	lui	s0,0x72b0e
800050f4:	b5c40413          	add	s0,s0,-1188 # 72b0db5c <_entry_offset+0x72b0db5c>
800050f8:	30542073          	csrs	mtvec,s0
800050fc:	30502473          	csrr	s0,mtvec
80005100:	7ffd0fb7          	lui	t6,0x7ffd0
80005104:	f7cf8f93          	add	t6,t6,-132 # 7ffcff7c <_entry_offset+0x7ffcff7c>
80005108:	3df41463          	bne	s0,t6,800054d0 <fail>

8000510c <test_22>:
8000510c:	8fdcd737          	lui	a4,0x8fdcd
80005110:	88470713          	add	a4,a4,-1916 # 8fdcc884 <_end+0xfdb9884>
80005114:	34171073          	csrw	mepc,a4
80005118:	50d0d737          	lui	a4,0x50d0d
8000511c:	c7270713          	add	a4,a4,-910 # 50d0cc72 <_entry_offset+0x50d0cc72>
80005120:	34172073          	csrs	mepc,a4
80005124:	34102773          	csrr	a4,mepc
80005128:	dfdcdfb7          	lui	t6,0xdfdcd
8000512c:	cf6f8f93          	add	t6,t6,-778 # dfdcccf6 <_end+0x5fdb9cf6>
80005130:	3bf71063          	bne	a4,t6,800054d0 <fail>

80005134 <test_23>:
80005134:	80000837          	lui	a6,0x80000
80005138:	00e80813          	add	a6,a6,14 # 8000000e <_start+0xe>
8000513c:	34281073          	csrw	mcause,a6
80005140:	80000837          	lui	a6,0x80000
80005144:	00980813          	add	a6,a6,9 # 80000009 <_start+0x9>
80005148:	34282073          	csrs	mcause,a6
8000514c:	34202873          	csrr	a6,mcause
80005150:	80000fb7          	lui	t6,0x80000
80005154:	00ff8f93          	add	t6,t6,15 # 8000000f <_start+0xf>
80005158:	37f81c63          	bne	a6,t6,800054d0 <fail>

8000515c <test_24>:
8000515c:	00300793          	li	a5,3
80005160:	34279073          	csrw	mcause,a5
80005164:	00c00793          	li	a5,12
80005168:	3427a073          	csrs	mcause,a5
8000516c:	342027f3          	csrr	a5,mcause
80005170:	00f00f93          	li	t6,15
80005174:	35f79e63          	bne	a5,t6,800054d0 <fail>

80005178 <test_25>:
80005178:	8034f7b7          	lui	a5,0x8034f
8000517c:	a6478793          	add	a5,a5,-1436 # 8034ea64 <_end+0x33ba64>
80005180:	30079073          	csrw	mstatus,a5
80005184:	801f27b7          	lui	a5,0x801f2
80005188:	23a78793          	add	a5,a5,570 # 801f223a <_end+0x1df23a>
8000518c:	3007a073          	csrs	mstatus,a5
80005190:	30002a73          	csrr	s4,mstatus
80005194:	803fffb7          	lui	t6,0x803ff
80005198:	a7ef8f93          	add	t6,t6,-1410 # 803fea7e <_end+0x3eba7e>
8000519c:	33fa1a63          	bne	s4,t6,800054d0 <fail>

800051a0 <test_26>:
800051a0:	000af7b7          	lui	a5,0xaf
800051a4:	9d478793          	add	a5,a5,-1580 # ae9d4 <_entry_offset+0xae9d4>
800051a8:	00000013          	nop
800051ac:	30079073          	csrw	mstatus,a5
800051b0:	00000013          	nop
800051b4:	003f27b7          	lui	a5,0x3f2
800051b8:	c0078793          	add	a5,a5,-1024 # 3f1c00 <_entry_offset+0x3f1c00>
800051bc:	00000013          	nop
800051c0:	3007a073          	csrs	mstatus,a5
800051c4:	00000013          	nop
800051c8:	30002373          	csrr	t1,mstatus
800051cc:	00000013          	nop
800051d0:	00400fb7          	lui	t6,0x400
800051d4:	dd4f8f93          	add	t6,t6,-556 # 3ffdd4 <_entry_offset+0x3ffdd4>
800051d8:	2ff31c63          	bne	t1,t6,800054d0 <fail>

800051dc <test_27>:
800051dc:	edef5cb7          	lui	s9,0xedef5
800051e0:	810c8c93          	add	s9,s9,-2032 # edef4810 <_end+0x6dee1810>
800051e4:	00000013          	nop
800051e8:	00000013          	nop
800051ec:	305c9073          	csrw	mtvec,s9
800051f0:	00000013          	nop
800051f4:	00000013          	nop
800051f8:	a025dcb7          	lui	s9,0xa025d
800051fc:	e00c8c93          	add	s9,s9,-512 # a025ce00 <_end+0x20249e00>
80005200:	00000013          	nop
80005204:	00000013          	nop
80005208:	305ca073          	csrs	mtvec,s9
8000520c:	00000013          	nop
80005210:	00000013          	nop
80005214:	30502473          	csrr	s0,mtvec
80005218:	00000013          	nop
8000521c:	00000013          	nop
80005220:	edefdfb7          	lui	t6,0xedefd
80005224:	e10f8f93          	add	t6,t6,-496 # edefce10 <_end+0x6dee9e10>
80005228:	2bf41463          	bne	s0,t6,800054d0 <fail>

8000522c <test_28>:
8000522c:	8003c1b7          	lui	gp,0x8003c
80005230:	d5318193          	add	gp,gp,-685 # 8003bd53 <_end+0x28d53>
80005234:	00000013          	nop
80005238:	00000013          	nop
8000523c:	00000013          	nop
80005240:	30019073          	csrw	mstatus,gp
80005244:	00000013          	nop
80005248:	00000013          	nop
8000524c:	00000013          	nop
80005250:	803e51b7          	lui	gp,0x803e5
80005254:	81f18193          	add	gp,gp,-2017 # 803e481f <_end+0x3d181f>
80005258:	00000013          	nop
8000525c:	00000013          	nop
80005260:	00000013          	nop
80005264:	3001a073          	csrs	mstatus,gp
80005268:	00000013          	nop
8000526c:	00000013          	nop
80005270:	00000013          	nop
80005274:	300025f3          	csrr	a1,mstatus
80005278:	00000013          	nop
8000527c:	00000013          	nop
80005280:	00000013          	nop
80005284:	80400fb7          	lui	t6,0x80400
80005288:	d5ff8f93          	add	t6,t6,-673 # 803ffd5f <_end+0x3ecd5f>
8000528c:	25f59263          	bne	a1,t6,800054d0 <fail>

80005290 <test_29>:
80005290:	00273e37          	lui	t3,0x273
80005294:	8a9e0e13          	add	t3,t3,-1879 # 2728a9 <_entry_offset+0x2728a9>
80005298:	00000013          	nop
8000529c:	00000013          	nop
800052a0:	00000013          	nop
800052a4:	00000013          	nop
800052a8:	300e1073          	csrw	mstatus,t3
800052ac:	00000013          	nop
800052b0:	00000013          	nop
800052b4:	00000013          	nop
800052b8:	00000013          	nop
800052bc:	00143e37          	lui	t3,0x143
800052c0:	e18e0e13          	add	t3,t3,-488 # 142e18 <_entry_offset+0x142e18>
800052c4:	00000013          	nop
800052c8:	00000013          	nop
800052cc:	00000013          	nop
800052d0:	00000013          	nop
800052d4:	300e2073          	csrs	mstatus,t3
800052d8:	00000013          	nop
800052dc:	00000013          	nop
800052e0:	00000013          	nop
800052e4:	00000013          	nop
800052e8:	300025f3          	csrr	a1,mstatus
800052ec:	00000013          	nop
800052f0:	00000013          	nop
800052f4:	00000013          	nop
800052f8:	00000013          	nop
800052fc:	00373fb7          	lui	t6,0x373
80005300:	eb9f8f93          	add	t6,t6,-327 # 372eb9 <_entry_offset+0x372eb9>
80005304:	1df59663          	bne	a1,t6,800054d0 <fail>

80005308 <test_30>:
80005308:	3f84c3b7          	lui	t2,0x3f84c
8000530c:	73d38393          	add	t2,t2,1853 # 3f84c73d <_entry_offset+0x3f84c73d>
80005310:	00000013          	nop
80005314:	00000013          	nop
80005318:	00000013          	nop
8000531c:	00000013          	nop
80005320:	00000013          	nop
80005324:	34139073          	csrw	mepc,t2
80005328:	00000013          	nop
8000532c:	00000013          	nop
80005330:	00000013          	nop
80005334:	00000013          	nop
80005338:	00000013          	nop
8000533c:	5c6b03b7          	lui	t2,0x5c6b0
80005340:	69138393          	add	t2,t2,1681 # 5c6b0691 <_entry_offset+0x5c6b0691>
80005344:	00000013          	nop
80005348:	00000013          	nop
8000534c:	00000013          	nop
80005350:	00000013          	nop
80005354:	00000013          	nop
80005358:	3413a073          	csrs	mepc,t2
8000535c:	00000013          	nop
80005360:	00000013          	nop
80005364:	00000013          	nop
80005368:	00000013          	nop
8000536c:	00000013          	nop
80005370:	341027f3          	csrr	a5,mepc
80005374:	00000013          	nop
80005378:	00000013          	nop
8000537c:	00000013          	nop
80005380:	00000013          	nop
80005384:	00000013          	nop
80005388:	7fefcfb7          	lui	t6,0x7fefc
8000538c:	7bdf8f93          	add	t6,t6,1981 # 7fefc7bd <_entry_offset+0x7fefc7bd>
80005390:	15f79063          	bne	a5,t6,800054d0 <fail>

80005394 <test_31>:
80005394:	b45fb9b7          	lui	s3,0xb45fb
80005398:	61798993          	add	s3,s3,1559 # b45fb617 <_end+0x345e8617>
8000539c:	34199073          	csrw	mepc,s3
800053a0:	9c9269b7          	lui	s3,0x9c926
800053a4:	8f398993          	add	s3,s3,-1805 # 9c9258f3 <_end+0x1c9128f3>
800053a8:	34102073          	csrr	zero,mepc
800053ac:	34102e73          	csrr	t3,mepc
800053b0:	b45fbfb7          	lui	t6,0xb45fb
800053b4:	617f8f93          	add	t6,t6,1559 # b45fb617 <_end+0x345e8617>
800053b8:	11fe1c63          	bne	t3,t6,800054d0 <fail>

800053bc <test_32>:
800053bc:	803018b7          	lui	a7,0x80301
800053c0:	b5588893          	add	a7,a7,-1195 # 80300b55 <_end+0x2edb55>
800053c4:	30089073          	csrw	mstatus,a7
800053c8:	802c28b7          	lui	a7,0x802c2
800053cc:	30488893          	add	a7,a7,772 # 802c2304 <_end+0x2af304>
800053d0:	30002073          	csrr	zero,mstatus
800053d4:	30002a73          	csrr	s4,mstatus
800053d8:	80301fb7          	lui	t6,0x80301
800053dc:	b55f8f93          	add	t6,t6,-1195 # 80300b55 <_end+0x2edb55>
800053e0:	0ffa1863          	bne	s4,t6,800054d0 <fail>

800053e4 <test_33>:
800053e4:	c4088f37          	lui	t5,0xc4088
800053e8:	e80f0f13          	add	t5,t5,-384 # c4087e80 <_end+0x44074e80>
800053ec:	305f1073          	csrw	mtvec,t5
800053f0:	71b1ff37          	lui	t5,0x71b1f
800053f4:	c7cf0f13          	add	t5,t5,-900 # 71b1ec7c <_entry_offset+0x71b1ec7c>
800053f8:	30502073          	csrr	zero,mtvec
800053fc:	305028f3          	csrr	a7,mtvec
80005400:	c4088fb7          	lui	t6,0xc4088
80005404:	e80f8f93          	add	t6,t6,-384 # c4087e80 <_end+0x44074e80>
80005408:	0df89463          	bne	a7,t6,800054d0 <fail>

8000540c <test_34>:
8000540c:	80000137          	lui	sp,0x80000
80005410:	00a10113          	add	sp,sp,10 # 8000000a <_start+0xa>
80005414:	34211073          	csrw	mcause,sp
80005418:	00400113          	li	sp,4
8000541c:	34202073          	csrr	zero,mcause
80005420:	34202473          	csrr	s0,mcause
80005424:	80000fb7          	lui	t6,0x80000
80005428:	00af8f93          	add	t6,t6,10 # 8000000a <_start+0xa>
8000542c:	0bf41263          	bne	s0,t6,800054d0 <fail>

80005430 <test_35>:
80005430:	802c72b7          	lui	t0,0x802c7
80005434:	ff028293          	add	t0,t0,-16 # 802c6ff0 <_end+0x2b3ff0>
80005438:	30029073          	csrw	mstatus,t0
8000543c:	8016d2b7          	lui	t0,0x8016d
80005440:	6d128293          	add	t0,t0,1745 # 8016d6d1 <_end+0x15a6d1>
80005444:	3002a073          	csrs	mstatus,t0
80005448:	00000f93          	li	t6,0
8000544c:	09f01263          	bne	zero,t6,800054d0 <fail>

80005450 <test_36>:
80005450:	c7857ab7          	lui	s5,0xc7857
80005454:	7e0a8a93          	add	s5,s5,2016 # c78577e0 <_end+0x478447e0>
80005458:	305a9073          	csrw	mtvec,s5
8000545c:	eeb29ab7          	lui	s5,0xeeb29
80005460:	298a8a93          	add	s5,s5,664 # eeb29298 <_end+0x6eb16298>
80005464:	305aa073          	csrs	mtvec,s5
80005468:	00000f93          	li	t6,0
8000546c:	07f01263          	bne	zero,t6,800054d0 <fail>

80005470 <test_37>:
80005470:	00d00913          	li	s2,13
80005474:	34291073          	csrw	mcause,s2
80005478:	80000937          	lui	s2,0x80000
8000547c:	00790913          	add	s2,s2,7 # 80000007 <_start+0x7>
80005480:	34292073          	csrs	mcause,s2
80005484:	00000f93          	li	t6,0
80005488:	05f01463          	bne	zero,t6,800054d0 <fail>

8000548c <test_38>:
8000548c:	003fae37          	lui	t3,0x3fa
80005490:	037e0e13          	add	t3,t3,55 # 3fa037 <_entry_offset+0x3fa037>
80005494:	300e1073          	csrw	mstatus,t3
80005498:	800cbe37          	lui	t3,0x800cb
8000549c:	762e0e13          	add	t3,t3,1890 # 800cb762 <_end+0xb8762>
800054a0:	300e2073          	csrs	mstatus,t3
800054a4:	00000f93          	li	t6,0
800054a8:	03f01463          	bne	zero,t6,800054d0 <fail>

800054ac <test_39>:
800054ac:	003639b7          	lui	s3,0x363
800054b0:	4f298993          	add	s3,s3,1266 # 3634f2 <_entry_offset+0x3634f2>
800054b4:	30099073          	csrw	mstatus,s3
800054b8:	8024d9b7          	lui	s3,0x8024d
800054bc:	31298993          	add	s3,s3,786 # 8024d312 <_end+0x23a312>
800054c0:	3009a073          	csrs	mstatus,s3
800054c4:	00000f93          	li	t6,0
800054c8:	01f01463          	bne	zero,t6,800054d0 <fail>
800054cc:	0100006f          	j	800054dc <pass>

800054d0 <fail>:
800054d0:	fff00513          	li	a0,-1
800054d4:	00100073          	ebreak
800054d8:	ff9ff06f          	j	800054d0 <fail>

800054dc <pass>:
800054dc:	00000513          	li	a0,0
800054e0:	00008067          	ret

800054e4 <bne>:
800054e4:	00200e13          	li	t3,2
800054e8:	00000f93          	li	t6,0
800054ec:	00100113          	li	sp,1
800054f0:	002f9663          	bne	t6,sp,800054fc <bne+0x18>
800054f4:	2bc01a63          	bne	zero,t3,800057a8 <fail>
800054f8:	01c01663          	bne	zero,t3,80005504 <test_3>
800054fc:	fe2f9ee3          	bne	t6,sp,800054f8 <bne+0x14>
80005500:	2bc01463          	bne	zero,t3,800057a8 <fail>

80005504 <test_3>:
80005504:	00300e13          	li	t3,3
80005508:	00100f93          	li	t6,1
8000550c:	00000113          	li	sp,0
80005510:	002f9663          	bne	t6,sp,8000551c <test_3+0x18>
80005514:	29c01a63          	bne	zero,t3,800057a8 <fail>
80005518:	01c01663          	bne	zero,t3,80005524 <test_4>
8000551c:	fe2f9ee3          	bne	t6,sp,80005518 <test_3+0x14>
80005520:	29c01463          	bne	zero,t3,800057a8 <fail>

80005524 <test_4>:
80005524:	00400e13          	li	t3,4
80005528:	fff00f93          	li	t6,-1
8000552c:	00100113          	li	sp,1
80005530:	002f9663          	bne	t6,sp,8000553c <test_4+0x18>
80005534:	27c01a63          	bne	zero,t3,800057a8 <fail>
80005538:	01c01663          	bne	zero,t3,80005544 <test_5>
8000553c:	fe2f9ee3          	bne	t6,sp,80005538 <test_4+0x14>
80005540:	27c01463          	bne	zero,t3,800057a8 <fail>

80005544 <test_5>:
80005544:	00500e13          	li	t3,5
80005548:	00100f93          	li	t6,1
8000554c:	fff00113          	li	sp,-1
80005550:	002f9663          	bne	t6,sp,8000555c <test_5+0x18>
80005554:	25c01a63          	bne	zero,t3,800057a8 <fail>
80005558:	01c01663          	bne	zero,t3,80005564 <test_6>
8000555c:	fe2f9ee3          	bne	t6,sp,80005558 <test_5+0x14>
80005560:	25c01463          	bne	zero,t3,800057a8 <fail>

80005564 <test_6>:
80005564:	00600e13          	li	t3,6
80005568:	00000f93          	li	t6,0
8000556c:	00000113          	li	sp,0
80005570:	002f9463          	bne	t6,sp,80005578 <test_6+0x14>
80005574:	01c01463          	bne	zero,t3,8000557c <test_6+0x18>
80005578:	23c01863          	bne	zero,t3,800057a8 <fail>
8000557c:	fe2f9ee3          	bne	t6,sp,80005578 <test_6+0x14>

80005580 <test_7>:
80005580:	00700e13          	li	t3,7
80005584:	00100f93          	li	t6,1
80005588:	00100113          	li	sp,1
8000558c:	002f9463          	bne	t6,sp,80005594 <test_7+0x14>
80005590:	01c01463          	bne	zero,t3,80005598 <test_7+0x18>
80005594:	21c01a63          	bne	zero,t3,800057a8 <fail>
80005598:	fe2f9ee3          	bne	t6,sp,80005594 <test_7+0x14>

8000559c <test_8>:
8000559c:	00800e13          	li	t3,8
800055a0:	fff00f93          	li	t6,-1
800055a4:	fff00113          	li	sp,-1
800055a8:	002f9463          	bne	t6,sp,800055b0 <test_8+0x14>
800055ac:	01c01463          	bne	zero,t3,800055b4 <test_8+0x18>
800055b0:	1fc01c63          	bne	zero,t3,800057a8 <fail>
800055b4:	fe2f9ee3          	bne	t6,sp,800055b0 <test_8+0x14>

800055b8 <test_9>:
800055b8:	00900e13          	li	t3,9
800055bc:	00000213          	li	tp,0
800055c0:	00000f93          	li	t6,0
800055c4:	00000113          	li	sp,0
800055c8:	1e2f9063          	bne	t6,sp,800057a8 <fail>
800055cc:	00120213          	add	tp,tp,1 # 1 <_entry_offset+0x1>
800055d0:	00200293          	li	t0,2
800055d4:	fe5216e3          	bne	tp,t0,800055c0 <test_9+0x8>

800055d8 <test_10>:
800055d8:	00a00e13          	li	t3,10
800055dc:	00000213          	li	tp,0
800055e0:	00000f93          	li	t6,0
800055e4:	00000113          	li	sp,0
800055e8:	00000013          	nop
800055ec:	1a2f9e63          	bne	t6,sp,800057a8 <fail>
800055f0:	00120213          	add	tp,tp,1 # 1 <_entry_offset+0x1>
800055f4:	00200293          	li	t0,2
800055f8:	fe5214e3          	bne	tp,t0,800055e0 <test_10+0x8>

800055fc <test_11>:
800055fc:	00b00e13          	li	t3,11
80005600:	00000213          	li	tp,0
80005604:	00000f93          	li	t6,0
80005608:	00000113          	li	sp,0
8000560c:	00000013          	nop
80005610:	00000013          	nop
80005614:	182f9a63          	bne	t6,sp,800057a8 <fail>
80005618:	00120213          	add	tp,tp,1 # 1 <_entry_offset+0x1>
8000561c:	00200293          	li	t0,2
80005620:	fe5212e3          	bne	tp,t0,80005604 <test_11+0x8>

80005624 <test_12>:
80005624:	00c00e13          	li	t3,12
80005628:	00000213          	li	tp,0
8000562c:	00000f93          	li	t6,0
80005630:	00000013          	nop
80005634:	00000113          	li	sp,0
80005638:	162f9863          	bne	t6,sp,800057a8 <fail>
8000563c:	00120213          	add	tp,tp,1 # 1 <_entry_offset+0x1>
80005640:	00200293          	li	t0,2
80005644:	fe5214e3          	bne	tp,t0,8000562c <test_12+0x8>

80005648 <test_13>:
80005648:	00d00e13          	li	t3,13
8000564c:	00000213          	li	tp,0
80005650:	00000f93          	li	t6,0
80005654:	00000013          	nop
80005658:	00000113          	li	sp,0
8000565c:	00000013          	nop
80005660:	142f9463          	bne	t6,sp,800057a8 <fail>
80005664:	00120213          	add	tp,tp,1 # 1 <_entry_offset+0x1>
80005668:	00200293          	li	t0,2
8000566c:	fe5212e3          	bne	tp,t0,80005650 <test_13+0x8>

80005670 <test_14>:
80005670:	00e00e13          	li	t3,14
80005674:	00000213          	li	tp,0
80005678:	00000f93          	li	t6,0
8000567c:	00000013          	nop
80005680:	00000013          	nop
80005684:	00000113          	li	sp,0
80005688:	122f9063          	bne	t6,sp,800057a8 <fail>
8000568c:	00120213          	add	tp,tp,1 # 1 <_entry_offset+0x1>
80005690:	00200293          	li	t0,2
80005694:	fe5212e3          	bne	tp,t0,80005678 <test_14+0x8>

80005698 <test_15>:
80005698:	00f00e13          	li	t3,15
8000569c:	00000213          	li	tp,0
800056a0:	00000f93          	li	t6,0
800056a4:	00000113          	li	sp,0
800056a8:	102f9063          	bne	t6,sp,800057a8 <fail>
800056ac:	00120213          	add	tp,tp,1 # 1 <_entry_offset+0x1>
800056b0:	00200293          	li	t0,2
800056b4:	fe5216e3          	bne	tp,t0,800056a0 <test_15+0x8>

800056b8 <test_16>:
800056b8:	01000e13          	li	t3,16
800056bc:	00000213          	li	tp,0
800056c0:	00000f93          	li	t6,0
800056c4:	00000113          	li	sp,0
800056c8:	00000013          	nop
800056cc:	0c2f9e63          	bne	t6,sp,800057a8 <fail>
800056d0:	00120213          	add	tp,tp,1 # 1 <_entry_offset+0x1>
800056d4:	00200293          	li	t0,2
800056d8:	fe5214e3          	bne	tp,t0,800056c0 <test_16+0x8>

800056dc <test_17>:
800056dc:	01100e13          	li	t3,17
800056e0:	00000213          	li	tp,0
800056e4:	00000f93          	li	t6,0
800056e8:	00000113          	li	sp,0
800056ec:	00000013          	nop
800056f0:	00000013          	nop
800056f4:	0a2f9a63          	bne	t6,sp,800057a8 <fail>
800056f8:	00120213          	add	tp,tp,1 # 1 <_entry_offset+0x1>
800056fc:	00200293          	li	t0,2
80005700:	fe5212e3          	bne	tp,t0,800056e4 <test_17+0x8>

80005704 <test_18>:
80005704:	01200e13          	li	t3,18
80005708:	00000213          	li	tp,0
8000570c:	00000f93          	li	t6,0
80005710:	00000013          	nop
80005714:	00000113          	li	sp,0
80005718:	082f9863          	bne	t6,sp,800057a8 <fail>
8000571c:	00120213          	add	tp,tp,1 # 1 <_entry_offset+0x1>
80005720:	00200293          	li	t0,2
80005724:	fe5214e3          	bne	tp,t0,8000570c <test_18+0x8>

80005728 <test_19>:
80005728:	01300e13          	li	t3,19
8000572c:	00000213          	li	tp,0
80005730:	00000f93          	li	t6,0
80005734:	00000013          	nop
80005738:	00000113          	li	sp,0
8000573c:	00000013          	nop
80005740:	062f9463          	bne	t6,sp,800057a8 <fail>
80005744:	00120213          	add	tp,tp,1 # 1 <_entry_offset+0x1>
80005748:	00200293          	li	t0,2
8000574c:	fe5212e3          	bne	tp,t0,80005730 <test_19+0x8>

80005750 <test_20>:
80005750:	01400e13          	li	t3,20
80005754:	00000213          	li	tp,0
80005758:	00000f93          	li	t6,0
8000575c:	00000013          	nop
80005760:	00000013          	nop
80005764:	00000113          	li	sp,0
80005768:	042f9063          	bne	t6,sp,800057a8 <fail>
8000576c:	00120213          	add	tp,tp,1 # 1 <_entry_offset+0x1>
80005770:	00200293          	li	t0,2
80005774:	fe5212e3          	bne	tp,t0,80005758 <test_20+0x8>

80005778 <test_21>:
80005778:	00100f93          	li	t6,1
8000577c:	000f9a63          	bnez	t6,80005790 <test_21+0x18>
80005780:	001f8f93          	add	t6,t6,1
80005784:	001f8f93          	add	t6,t6,1
80005788:	001f8f93          	add	t6,t6,1
8000578c:	001f8f93          	add	t6,t6,1
80005790:	001f8f93          	add	t6,t6,1
80005794:	001f8f93          	add	t6,t6,1
80005798:	00300e93          	li	t4,3
8000579c:	01500e13          	li	t3,21
800057a0:	01df9463          	bne	t6,t4,800057a8 <fail>
800057a4:	0100006f          	j	800057b4 <pass>

800057a8 <fail>:
800057a8:	fff00513          	li	a0,-1
800057ac:	00100073          	ebreak
800057b0:	ff9ff06f          	j	800057a8 <fail>

800057b4 <pass>:
800057b4:	00000513          	li	a0,0
800057b8:	00008067          	ret

800057bc <lui>:
800057bc:	00000fb7          	lui	t6,0x0
800057c0:	00000e93          	li	t4,0
800057c4:	00200e13          	li	t3,2
800057c8:	05df9a63          	bne	t6,t4,8000581c <fail>

800057cc <test_3>:
800057cc:	ffffffb7          	lui	t6,0xfffff
800057d0:	401fdf93          	sra	t6,t6,0x1
800057d4:	80000e93          	li	t4,-2048
800057d8:	00300e13          	li	t3,3
800057dc:	05df9063          	bne	t6,t4,8000581c <fail>

800057e0 <test_4>:
800057e0:	7fffffb7          	lui	t6,0x7ffff
800057e4:	414fdf93          	sra	t6,t6,0x14
800057e8:	7ff00e93          	li	t4,2047
800057ec:	00400e13          	li	t3,4
800057f0:	03df9663          	bne	t6,t4,8000581c <fail>

800057f4 <test_5>:
800057f4:	80000fb7          	lui	t6,0x80000
800057f8:	414fdf93          	sra	t6,t6,0x14
800057fc:	80000e93          	li	t4,-2048
80005800:	00500e13          	li	t3,5
80005804:	01df9c63          	bne	t6,t4,8000581c <fail>

80005808 <test_6>:
80005808:	80000037          	lui	zero,0x80000
8000580c:	00000e93          	li	t4,0
80005810:	00600e13          	li	t3,6
80005814:	01d01463          	bne	zero,t4,8000581c <fail>
80005818:	0100006f          	j	80005828 <pass>

8000581c <fail>:
8000581c:	fff00513          	li	a0,-1
80005820:	00100073          	ebreak
80005824:	ff9ff06f          	j	8000581c <fail>

80005828 <pass>:
80005828:	00000513          	li	a0,0
8000582c:	00008067          	ret

80005830 <csrrsi>:
80005830:	01100f93          	li	t6,17
80005834:	341f9073          	csrw	mepc,t6
80005838:	341a6073          	csrs	mepc,20
8000583c:	341029f3          	csrr	s3,mepc
80005840:	01500f93          	li	t6,21
80005844:	49f99863          	bne	s3,t6,80005cd4 <fail>

80005848 <test_1>:
80005848:	00500f93          	li	t6,5
8000584c:	342f9073          	csrw	mcause,t6
80005850:	3427e073          	csrs	mcause,15
80005854:	34202c73          	csrr	s8,mcause
80005858:	00f00f93          	li	t6,15
8000585c:	47fc1c63          	bne	s8,t6,80005cd4 <fail>

80005860 <test_2>:
80005860:	00b00f93          	li	t6,11
80005864:	300f9073          	csrw	mstatus,t6
80005868:	300a6073          	csrs	mstatus,20
8000586c:	30002df3          	csrr	s11,mstatus
80005870:	01f00f93          	li	t6,31
80005874:	47fd9063          	bne	s11,t6,80005cd4 <fail>

80005878 <test_3>:
80005878:	01a00f93          	li	t6,26
8000587c:	341f9073          	csrw	mepc,t6
80005880:	3419e073          	csrs	mepc,19
80005884:	34102773          	csrr	a4,mepc
80005888:	01b00f93          	li	t6,27
8000588c:	45f71463          	bne	a4,t6,80005cd4 <fail>

80005890 <test_4>:
80005890:	01c00f93          	li	t6,28
80005894:	300f9073          	csrw	mstatus,t6
80005898:	3000e073          	csrs	mstatus,1
8000589c:	30002573          	csrr	a0,mstatus
800058a0:	01d00f93          	li	t6,29
800058a4:	43f51863          	bne	a0,t6,80005cd4 <fail>

800058a8 <test_5>:
800058a8:	00900f93          	li	t6,9
800058ac:	300f9073          	csrw	mstatus,t6
800058b0:	30076073          	csrs	mstatus,14
800058b4:	30002b73          	csrr	s6,mstatus
800058b8:	00f00f93          	li	t6,15
800058bc:	41fb1c63          	bne	s6,t6,80005cd4 <fail>

800058c0 <test_6>:
800058c0:	01000f93          	li	t6,16
800058c4:	305f9073          	csrw	mtvec,t6
800058c8:	30506073          	csrs	mtvec,0
800058cc:	30502c73          	csrr	s8,mtvec
800058d0:	01000f93          	li	t6,16
800058d4:	41fc1063          	bne	s8,t6,80005cd4 <fail>

800058d8 <test_7>:
800058d8:	01700f93          	li	t6,23
800058dc:	341f9073          	csrw	mepc,t6
800058e0:	34116073          	csrs	mepc,2
800058e4:	34102df3          	csrr	s11,mepc
800058e8:	01700f93          	li	t6,23
800058ec:	3ffd9463          	bne	s11,t6,80005cd4 <fail>

800058f0 <test_8>:
800058f0:	00300f93          	li	t6,3
800058f4:	342f9073          	csrw	mcause,t6
800058f8:	3424e073          	csrs	mcause,9
800058fc:	34202cf3          	csrr	s9,mcause
80005900:	00b00f93          	li	t6,11
80005904:	3dfc9863          	bne	s9,t6,80005cd4 <fail>

80005908 <test_9>:
80005908:	00c00f93          	li	t6,12
8000590c:	305f9073          	csrw	mtvec,t6
80005910:	305a6073          	csrs	mtvec,20
80005914:	30502773          	csrr	a4,mtvec
80005918:	01c00f93          	li	t6,28
8000591c:	3bf71c63          	bne	a4,t6,80005cd4 <fail>

80005920 <test_10>:
80005920:	00300f93          	li	t6,3
80005924:	341f9073          	csrw	mepc,t6
80005928:	341ee073          	csrs	mepc,29
8000592c:	34102173          	csrr	sp,mepc
80005930:	01f00f93          	li	t6,31
80005934:	3bf11063          	bne	sp,t6,80005cd4 <fail>

80005938 <test_11>:
80005938:	00b00f93          	li	t6,11
8000593c:	342f9073          	csrw	mcause,t6
80005940:	34216073          	csrs	mcause,2
80005944:	34202c73          	csrr	s8,mcause
80005948:	00b00f93          	li	t6,11
8000594c:	39fc1463          	bne	s8,t6,80005cd4 <fail>

80005950 <test_12>:
80005950:	01400f93          	li	t6,20
80005954:	300f9073          	csrw	mstatus,t6
80005958:	3001e073          	csrs	mstatus,3
8000595c:	30002df3          	csrr	s11,mstatus
80005960:	01700f93          	li	t6,23
80005964:	37fd9863          	bne	s11,t6,80005cd4 <fail>

80005968 <test_13>:
80005968:	00800f93          	li	t6,8
8000596c:	300f9073          	csrw	mstatus,t6
80005970:	3000e073          	csrs	mstatus,1
80005974:	30002973          	csrr	s2,mstatus
80005978:	00900f93          	li	t6,9
8000597c:	35f91c63          	bne	s2,t6,80005cd4 <fail>

80005980 <test_14>:
80005980:	00e00f93          	li	t6,14
80005984:	342f9073          	csrw	mcause,t6
80005988:	3424e073          	csrs	mcause,9
8000598c:	34202df3          	csrr	s11,mcause
80005990:	00f00f93          	li	t6,15
80005994:	35fd9063          	bne	s11,t6,80005cd4 <fail>

80005998 <test_15>:
80005998:	01700f93          	li	t6,23
8000599c:	341f9073          	csrw	mepc,t6
800059a0:	34156073          	csrs	mepc,10
800059a4:	34102a73          	csrr	s4,mepc
800059a8:	01f00f93          	li	t6,31
800059ac:	33fa1463          	bne	s4,t6,80005cd4 <fail>

800059b0 <test_16>:
800059b0:	01400f93          	li	t6,20
800059b4:	305f9073          	csrw	mtvec,t6
800059b8:	30566073          	csrs	mtvec,12
800059bc:	305025f3          	csrr	a1,mtvec
800059c0:	01c00f93          	li	t6,28
800059c4:	31f59863          	bne	a1,t6,80005cd4 <fail>

800059c8 <test_17>:
800059c8:	01b00f93          	li	t6,27
800059cc:	300f9073          	csrw	mstatus,t6
800059d0:	3001e073          	csrs	mstatus,3
800059d4:	30002273          	csrr	tp,mstatus
800059d8:	01b00f93          	li	t6,27
800059dc:	2ff21c63          	bne	tp,t6,80005cd4 <fail>

800059e0 <test_18>:
800059e0:	00900f93          	li	t6,9
800059e4:	342f9073          	csrw	mcause,t6
800059e8:	34236073          	csrs	mcause,6
800059ec:	34202c73          	csrr	s8,mcause
800059f0:	00f00f93          	li	t6,15
800059f4:	2ffc1063          	bne	s8,t6,80005cd4 <fail>

800059f8 <test_19>:
800059f8:	00900f93          	li	t6,9
800059fc:	342f9073          	csrw	mcause,t6
80005a00:	3427e073          	csrs	mcause,15
80005a04:	34202373          	csrr	t1,mcause
80005a08:	00f00f93          	li	t6,15
80005a0c:	2df31463          	bne	t1,t6,80005cd4 <fail>

80005a10 <test_20>:
80005a10:	00900f93          	li	t6,9
80005a14:	341f9073          	csrw	mepc,t6
80005a18:	3413e073          	csrs	mepc,7
80005a1c:	341023f3          	csrr	t2,mepc
80005a20:	00f00f93          	li	t6,15
80005a24:	2bf39863          	bne	t2,t6,80005cd4 <fail>

80005a28 <test_21>:
80005a28:	00900f93          	li	t6,9
80005a2c:	341f9073          	csrw	mepc,t6
80005a30:	3411e073          	csrs	mepc,3
80005a34:	34102a73          	csrr	s4,mepc
80005a38:	00b00f93          	li	t6,11
80005a3c:	29fa1c63          	bne	s4,t6,80005cd4 <fail>

80005a40 <test_22>:
80005a40:	00500f93          	li	t6,5
80005a44:	342f9073          	csrw	mcause,t6
80005a48:	3420e073          	csrs	mcause,1
80005a4c:	34202af3          	csrr	s5,mcause
80005a50:	00500f93          	li	t6,5
80005a54:	29fa9063          	bne	s5,t6,80005cd4 <fail>

80005a58 <test_23>:
80005a58:	00f00f93          	li	t6,15
80005a5c:	342f9073          	csrw	mcause,t6
80005a60:	34246073          	csrs	mcause,8
80005a64:	34202af3          	csrr	s5,mcause
80005a68:	00f00f93          	li	t6,15
80005a6c:	27fa9463          	bne	s5,t6,80005cd4 <fail>

80005a70 <test_24>:
80005a70:	00100f93          	li	t6,1
80005a74:	341f9073          	csrw	mepc,t6
80005a78:	3417e073          	csrs	mepc,15
80005a7c:	341024f3          	csrr	s1,mepc
80005a80:	00f00f93          	li	t6,15
80005a84:	25f49863          	bne	s1,t6,80005cd4 <fail>

80005a88 <test_25>:
80005a88:	00100f93          	li	t6,1
80005a8c:	300f9073          	csrw	mstatus,t6
80005a90:	300f6073          	csrs	mstatus,30
80005a94:	30002673          	csrr	a2,mstatus
80005a98:	01f00f93          	li	t6,31
80005a9c:	23f61c63          	bne	a2,t6,80005cd4 <fail>

80005aa0 <test_26>:
80005aa0:	01400f93          	li	t6,20
80005aa4:	305f9073          	csrw	mtvec,t6
80005aa8:	30506073          	csrs	mtvec,0
80005aac:	30502373          	csrr	t1,mtvec
80005ab0:	01400f93          	li	t6,20
80005ab4:	23f31063          	bne	t1,t6,80005cd4 <fail>

80005ab8 <test_27>:
80005ab8:	00000f93          	li	t6,0
80005abc:	300f9073          	csrw	mstatus,t6
80005ac0:	30056073          	csrs	mstatus,10
80005ac4:	30002f73          	csrr	t5,mstatus
80005ac8:	00a00f93          	li	t6,10
80005acc:	21ff1463          	bne	t5,t6,80005cd4 <fail>

80005ad0 <test_28>:
80005ad0:	00500f93          	li	t6,5
80005ad4:	300f9073          	csrw	mstatus,t6
80005ad8:	30076073          	csrs	mstatus,14
80005adc:	300024f3          	csrr	s1,mstatus
80005ae0:	00f00f93          	li	t6,15
80005ae4:	1ff49863          	bne	s1,t6,80005cd4 <fail>

80005ae8 <test_29>:
80005ae8:	01000f93          	li	t6,16
80005aec:	305f9073          	csrw	mtvec,t6
80005af0:	30586073          	csrs	mtvec,16
80005af4:	305028f3          	csrr	a7,mtvec
80005af8:	01000f93          	li	t6,16
80005afc:	1df89c63          	bne	a7,t6,80005cd4 <fail>

80005b00 <test_30>:
80005b00:	00e00f93          	li	t6,14
80005b04:	342f9073          	csrw	mcause,t6
80005b08:	34256073          	csrs	mcause,10
80005b0c:	342026f3          	csrr	a3,mcause
80005b10:	00e00f93          	li	t6,14
80005b14:	1df69063          	bne	a3,t6,80005cd4 <fail>

80005b18 <test_31>:
80005b18:	00900f93          	li	t6,9
80005b1c:	00000013          	nop
80005b20:	300f9073          	csrw	mstatus,t6
80005b24:	00000013          	nop
80005b28:	30076073          	csrs	mstatus,14
80005b2c:	00000013          	nop
80005b30:	30002af3          	csrr	s5,mstatus
80005b34:	00000013          	nop
80005b38:	00f00f93          	li	t6,15
80005b3c:	19fa9c63          	bne	s5,t6,80005cd4 <fail>

80005b40 <test_32>:
80005b40:	01800f93          	li	t6,24
80005b44:	00000013          	nop
80005b48:	00000013          	nop
80005b4c:	305f9073          	csrw	mtvec,t6
80005b50:	00000013          	nop
80005b54:	00000013          	nop
80005b58:	30526073          	csrs	mtvec,4
80005b5c:	00000013          	nop
80005b60:	00000013          	nop
80005b64:	30502873          	csrr	a6,mtvec
80005b68:	00000013          	nop
80005b6c:	00000013          	nop
80005b70:	01c00f93          	li	t6,28
80005b74:	17f81063          	bne	a6,t6,80005cd4 <fail>

80005b78 <test_33>:
80005b78:	00400f93          	li	t6,4
80005b7c:	00000013          	nop
80005b80:	00000013          	nop
80005b84:	00000013          	nop
80005b88:	300f9073          	csrw	mstatus,t6
80005b8c:	00000013          	nop
80005b90:	00000013          	nop
80005b94:	00000013          	nop
80005b98:	300e6073          	csrs	mstatus,28
80005b9c:	00000013          	nop
80005ba0:	00000013          	nop
80005ba4:	00000013          	nop
80005ba8:	300027f3          	csrr	a5,mstatus
80005bac:	00000013          	nop
80005bb0:	00000013          	nop
80005bb4:	00000013          	nop
80005bb8:	01c00f93          	li	t6,28
80005bbc:	11f79c63          	bne	a5,t6,80005cd4 <fail>

80005bc0 <test_34>:
80005bc0:	01000f93          	li	t6,16
80005bc4:	00000013          	nop
80005bc8:	00000013          	nop
80005bcc:	00000013          	nop
80005bd0:	00000013          	nop
80005bd4:	305f9073          	csrw	mtvec,t6
80005bd8:	00000013          	nop
80005bdc:	00000013          	nop
80005be0:	00000013          	nop
80005be4:	00000013          	nop
80005be8:	305a6073          	csrs	mtvec,20
80005bec:	00000013          	nop
80005bf0:	00000013          	nop
80005bf4:	00000013          	nop
80005bf8:	00000013          	nop
80005bfc:	305028f3          	csrr	a7,mtvec
80005c00:	00000013          	nop
80005c04:	00000013          	nop
80005c08:	00000013          	nop
80005c0c:	00000013          	nop
80005c10:	01400f93          	li	t6,20
80005c14:	0df89063          	bne	a7,t6,80005cd4 <fail>

80005c18 <test_35>:
80005c18:	01400f93          	li	t6,20
80005c1c:	00000013          	nop
80005c20:	00000013          	nop
80005c24:	00000013          	nop
80005c28:	00000013          	nop
80005c2c:	00000013          	nop
80005c30:	305f9073          	csrw	mtvec,t6
80005c34:	00000013          	nop
80005c38:	00000013          	nop
80005c3c:	00000013          	nop
80005c40:	00000013          	nop
80005c44:	00000013          	nop
80005c48:	305c6073          	csrs	mtvec,24
80005c4c:	00000013          	nop
80005c50:	00000013          	nop
80005c54:	00000013          	nop
80005c58:	00000013          	nop
80005c5c:	00000013          	nop
80005c60:	30502573          	csrr	a0,mtvec
80005c64:	00000013          	nop
80005c68:	00000013          	nop
80005c6c:	00000013          	nop
80005c70:	00000013          	nop
80005c74:	00000013          	nop
80005c78:	01c00f93          	li	t6,28
80005c7c:	05f51c63          	bne	a0,t6,80005cd4 <fail>

80005c80 <test_36>:
80005c80:	00c00f93          	li	t6,12
80005c84:	305f9073          	csrw	mtvec,t6
80005c88:	30546073          	csrs	mtvec,8
80005c8c:	00000f93          	li	t6,0
80005c90:	05f01263          	bne	zero,t6,80005cd4 <fail>

80005c94 <test_37>:
80005c94:	00c00f93          	li	t6,12
80005c98:	342f9073          	csrw	mcause,t6
80005c9c:	3422e073          	csrs	mcause,5
80005ca0:	00000f93          	li	t6,0
80005ca4:	03f01863          	bne	zero,t6,80005cd4 <fail>

80005ca8 <test_38>:
80005ca8:	01400f93          	li	t6,20
80005cac:	341f9073          	csrw	mepc,t6
80005cb0:	341c6073          	csrs	mepc,24
80005cb4:	00000f93          	li	t6,0
80005cb8:	01f01e63          	bne	zero,t6,80005cd4 <fail>

80005cbc <test_39>:
80005cbc:	00700f93          	li	t6,7
80005cc0:	342f9073          	csrw	mcause,t6
80005cc4:	34216073          	csrs	mcause,2
80005cc8:	00000f93          	li	t6,0
80005ccc:	01f01463          	bne	zero,t6,80005cd4 <fail>
80005cd0:	0100006f          	j	80005ce0 <pass>

80005cd4 <fail>:
80005cd4:	fff00513          	li	a0,-1
80005cd8:	00100073          	ebreak
80005cdc:	ff9ff06f          	j	80005cd4 <fail>

80005ce0 <pass>:
80005ce0:	00000513          	li	a0,0
80005ce4:	00008067          	ret

80005ce8 <ori>:
80005ce8:	ff010fb7          	lui	t6,0xff010
80005cec:	f00f8f93          	add	t6,t6,-256 # ff00ff00 <_end+0x7effcf00>
80005cf0:	f0ffe193          	or	gp,t6,-241
80005cf4:	f0f00e93          	li	t4,-241
80005cf8:	00200e13          	li	t3,2
80005cfc:	1dd19463          	bne	gp,t4,80005ec4 <fail>

80005d00 <test_3>:
80005d00:	0ff01fb7          	lui	t6,0xff01
80005d04:	ff0f8f93          	add	t6,t6,-16 # ff00ff0 <_entry_offset+0xff00ff0>
80005d08:	0f0fe193          	or	gp,t6,240
80005d0c:	0ff01eb7          	lui	t4,0xff01
80005d10:	ff0e8e93          	add	t4,t4,-16 # ff00ff0 <_entry_offset+0xff00ff0>
80005d14:	00300e13          	li	t3,3
80005d18:	1bd19663          	bne	gp,t4,80005ec4 <fail>

80005d1c <test_4>:
80005d1c:	00ff0fb7          	lui	t6,0xff0
80005d20:	0fff8f93          	add	t6,t6,255 # ff00ff <_entry_offset+0xff00ff>
80005d24:	70ffe193          	or	gp,t6,1807
80005d28:	00ff0eb7          	lui	t4,0xff0
80005d2c:	7ffe8e93          	add	t4,t4,2047 # ff07ff <_entry_offset+0xff07ff>
80005d30:	00400e13          	li	t3,4
80005d34:	19d19863          	bne	gp,t4,80005ec4 <fail>

80005d38 <test_5>:
80005d38:	f00fffb7          	lui	t6,0xf00ff
80005d3c:	00ff8f93          	add	t6,t6,15 # f00ff00f <_end+0x700ec00f>
80005d40:	0f0fe193          	or	gp,t6,240
80005d44:	f00ffeb7          	lui	t4,0xf00ff
80005d48:	0ffe8e93          	add	t4,t4,255 # f00ff0ff <_end+0x700ec0ff>
80005d4c:	00500e13          	li	t3,5
80005d50:	17d19a63          	bne	gp,t4,80005ec4 <fail>

80005d54 <test_6>:
80005d54:	ff010fb7          	lui	t6,0xff010
80005d58:	f00f8f93          	add	t6,t6,-256 # ff00ff00 <_end+0x7effcf00>
80005d5c:	0f0fef93          	or	t6,t6,240
80005d60:	ff010eb7          	lui	t4,0xff010
80005d64:	ff0e8e93          	add	t4,t4,-16 # ff00fff0 <_end+0x7effcff0>
80005d68:	00600e13          	li	t3,6
80005d6c:	15df9c63          	bne	t6,t4,80005ec4 <fail>

80005d70 <test_7>:
80005d70:	00000213          	li	tp,0
80005d74:	0ff01fb7          	lui	t6,0xff01
80005d78:	ff0f8f93          	add	t6,t6,-16 # ff00ff0 <_entry_offset+0xff00ff0>
80005d7c:	0f0fe193          	or	gp,t6,240
80005d80:	00018313          	mv	t1,gp
80005d84:	00120213          	add	tp,tp,1 # 1 <_entry_offset+0x1>
80005d88:	00200293          	li	t0,2
80005d8c:	fe5214e3          	bne	tp,t0,80005d74 <test_7+0x4>
80005d90:	0ff01eb7          	lui	t4,0xff01
80005d94:	ff0e8e93          	add	t4,t4,-16 # ff00ff0 <_entry_offset+0xff00ff0>
80005d98:	00700e13          	li	t3,7
80005d9c:	13d31463          	bne	t1,t4,80005ec4 <fail>

80005da0 <test_8>:
80005da0:	00000213          	li	tp,0
80005da4:	00ff0fb7          	lui	t6,0xff0
80005da8:	0fff8f93          	add	t6,t6,255 # ff00ff <_entry_offset+0xff00ff>
80005dac:	70ffe193          	or	gp,t6,1807
80005db0:	00000013          	nop
80005db4:	00018313          	mv	t1,gp
80005db8:	00120213          	add	tp,tp,1 # 1 <_entry_offset+0x1>
80005dbc:	00200293          	li	t0,2
80005dc0:	fe5212e3          	bne	tp,t0,80005da4 <test_8+0x4>
80005dc4:	00ff0eb7          	lui	t4,0xff0
80005dc8:	7ffe8e93          	add	t4,t4,2047 # ff07ff <_entry_offset+0xff07ff>
80005dcc:	00800e13          	li	t3,8
80005dd0:	0fd31a63          	bne	t1,t4,80005ec4 <fail>

80005dd4 <test_9>:
80005dd4:	00000213          	li	tp,0
80005dd8:	f00fffb7          	lui	t6,0xf00ff
80005ddc:	00ff8f93          	add	t6,t6,15 # f00ff00f <_end+0x700ec00f>
80005de0:	0f0fe193          	or	gp,t6,240
80005de4:	00000013          	nop
80005de8:	00000013          	nop
80005dec:	00018313          	mv	t1,gp
80005df0:	00120213          	add	tp,tp,1 # 1 <_entry_offset+0x1>
80005df4:	00200293          	li	t0,2
80005df8:	fe5210e3          	bne	tp,t0,80005dd8 <test_9+0x4>
80005dfc:	f00ffeb7          	lui	t4,0xf00ff
80005e00:	0ffe8e93          	add	t4,t4,255 # f00ff0ff <_end+0x700ec0ff>
80005e04:	00900e13          	li	t3,9
80005e08:	0bd31e63          	bne	t1,t4,80005ec4 <fail>

80005e0c <test_10>:
80005e0c:	00000213          	li	tp,0
80005e10:	0ff01fb7          	lui	t6,0xff01
80005e14:	ff0f8f93          	add	t6,t6,-16 # ff00ff0 <_entry_offset+0xff00ff0>
80005e18:	0f0fe193          	or	gp,t6,240
80005e1c:	00120213          	add	tp,tp,1 # 1 <_entry_offset+0x1>
80005e20:	00200293          	li	t0,2
80005e24:	fe5216e3          	bne	tp,t0,80005e10 <test_10+0x4>
80005e28:	0ff01eb7          	lui	t4,0xff01
80005e2c:	ff0e8e93          	add	t4,t4,-16 # ff00ff0 <_entry_offset+0xff00ff0>
80005e30:	00a00e13          	li	t3,10
80005e34:	09d19863          	bne	gp,t4,80005ec4 <fail>

80005e38 <test_11>:
80005e38:	00000213          	li	tp,0
80005e3c:	00ff0fb7          	lui	t6,0xff0
80005e40:	0fff8f93          	add	t6,t6,255 # ff00ff <_entry_offset+0xff00ff>
80005e44:	00000013          	nop
80005e48:	f0ffe193          	or	gp,t6,-241
80005e4c:	00120213          	add	tp,tp,1 # 1 <_entry_offset+0x1>
80005e50:	00200293          	li	t0,2
80005e54:	fe5214e3          	bne	tp,t0,80005e3c <test_11+0x4>
80005e58:	fff00e93          	li	t4,-1
80005e5c:	00b00e13          	li	t3,11
80005e60:	07d19263          	bne	gp,t4,80005ec4 <fail>

80005e64 <test_12>:
80005e64:	00000213          	li	tp,0
80005e68:	f00fffb7          	lui	t6,0xf00ff
80005e6c:	00ff8f93          	add	t6,t6,15 # f00ff00f <_end+0x700ec00f>
80005e70:	00000013          	nop
80005e74:	00000013          	nop
80005e78:	0f0fe193          	or	gp,t6,240
80005e7c:	00120213          	add	tp,tp,1 # 1 <_entry_offset+0x1>
80005e80:	00200293          	li	t0,2
80005e84:	fe5212e3          	bne	tp,t0,80005e68 <test_12+0x4>
80005e88:	f00ffeb7          	lui	t4,0xf00ff
80005e8c:	0ffe8e93          	add	t4,t4,255 # f00ff0ff <_end+0x700ec0ff>
80005e90:	00c00e13          	li	t3,12
80005e94:	03d19863          	bne	gp,t4,80005ec4 <fail>

80005e98 <test_13>:
80005e98:	0f006f93          	or	t6,zero,240
80005e9c:	0f000e93          	li	t4,240
80005ea0:	00d00e13          	li	t3,13
80005ea4:	03df9063          	bne	t6,t4,80005ec4 <fail>

80005ea8 <test_14>:
80005ea8:	00ff0fb7          	lui	t6,0xff0
80005eac:	0fff8f93          	add	t6,t6,255 # ff00ff <_entry_offset+0xff00ff>
80005eb0:	70ffe013          	or	zero,t6,1807
80005eb4:	00000e93          	li	t4,0
80005eb8:	00e00e13          	li	t3,14
80005ebc:	01d01463          	bne	zero,t4,80005ec4 <fail>
80005ec0:	0100006f          	j	80005ed0 <pass>

80005ec4 <fail>:
80005ec4:	fff00513          	li	a0,-1
80005ec8:	00100073          	ebreak
80005ecc:	ff9ff06f          	j	80005ec4 <fail>

80005ed0 <pass>:
80005ed0:	00000513          	li	a0,0
80005ed4:	00008067          	ret

80005ed8 <div>:
80005ed8:	01400f93          	li	t6,20
80005edc:	00600113          	li	sp,6
80005ee0:	022fc1b3          	div	gp,t6,sp
80005ee4:	00300e93          	li	t4,3
80005ee8:	00200e13          	li	t3,2
80005eec:	0dd19463          	bne	gp,t4,80005fb4 <fail>

80005ef0 <test_3>:
80005ef0:	fec00f93          	li	t6,-20
80005ef4:	00600113          	li	sp,6
80005ef8:	022fc1b3          	div	gp,t6,sp
80005efc:	ffd00e93          	li	t4,-3
80005f00:	00300e13          	li	t3,3
80005f04:	0bd19863          	bne	gp,t4,80005fb4 <fail>

80005f08 <test_4>:
80005f08:	01400f93          	li	t6,20
80005f0c:	ffa00113          	li	sp,-6
80005f10:	022fc1b3          	div	gp,t6,sp
80005f14:	ffd00e93          	li	t4,-3
80005f18:	00400e13          	li	t3,4
80005f1c:	09d19c63          	bne	gp,t4,80005fb4 <fail>

80005f20 <test_5>:
80005f20:	fec00f93          	li	t6,-20
80005f24:	ffa00113          	li	sp,-6
80005f28:	022fc1b3          	div	gp,t6,sp
80005f2c:	00300e93          	li	t4,3
80005f30:	00500e13          	li	t3,5
80005f34:	09d19063          	bne	gp,t4,80005fb4 <fail>

80005f38 <test_6>:
80005f38:	80000fb7          	lui	t6,0x80000
80005f3c:	00100113          	li	sp,1
80005f40:	022fc1b3          	div	gp,t6,sp
80005f44:	80000eb7          	lui	t4,0x80000
80005f48:	00600e13          	li	t3,6
80005f4c:	07d19463          	bne	gp,t4,80005fb4 <fail>

80005f50 <test_7>:
80005f50:	80000fb7          	lui	t6,0x80000
80005f54:	fff00113          	li	sp,-1
80005f58:	022fc1b3          	div	gp,t6,sp
80005f5c:	80000eb7          	lui	t4,0x80000
80005f60:	00700e13          	li	t3,7
80005f64:	05d19863          	bne	gp,t4,80005fb4 <fail>

80005f68 <test_8>:
80005f68:	80000fb7          	lui	t6,0x80000
80005f6c:	00000113          	li	sp,0
80005f70:	022fc1b3          	div	gp,t6,sp
80005f74:	fff00e93          	li	t4,-1
80005f78:	00800e13          	li	t3,8
80005f7c:	03d19c63          	bne	gp,t4,80005fb4 <fail>

80005f80 <test_9>:
80005f80:	00100f93          	li	t6,1
80005f84:	00000113          	li	sp,0
80005f88:	022fc1b3          	div	gp,t6,sp
80005f8c:	fff00e93          	li	t4,-1
80005f90:	00900e13          	li	t3,9
80005f94:	03d19063          	bne	gp,t4,80005fb4 <fail>

80005f98 <test_10>:
80005f98:	00000f93          	li	t6,0
80005f9c:	00000113          	li	sp,0
80005fa0:	022fc1b3          	div	gp,t6,sp
80005fa4:	fff00e93          	li	t4,-1
80005fa8:	00a00e13          	li	t3,10
80005fac:	01d19463          	bne	gp,t4,80005fb4 <fail>
80005fb0:	0100006f          	j	80005fc0 <pass>

80005fb4 <fail>:
80005fb4:	fff00513          	li	a0,-1
80005fb8:	00100073          	ebreak
80005fbc:	ff9ff06f          	j	80005fb4 <fail>

80005fc0 <pass>:
80005fc0:	00000513          	li	a0,0
80005fc4:	00008067          	ret

80005fc8 <sb>:
80005fc8:	00005f97          	auipc	t6,0x5
80005fcc:	bd0f8f93          	add	t6,t6,-1072 # 8000ab98 <tdat>
80005fd0:	faa00113          	li	sp,-86
80005fd4:	002f8023          	sb	sp,0(t6)
80005fd8:	000f8183          	lb	gp,0(t6)
80005fdc:	faa00e93          	li	t4,-86
80005fe0:	00200e13          	li	t3,2
80005fe4:	3dd19c63          	bne	gp,t4,800063bc <fail>

80005fe8 <test_3>:
80005fe8:	00005f97          	auipc	t6,0x5
80005fec:	bb0f8f93          	add	t6,t6,-1104 # 8000ab98 <tdat>
80005ff0:	00000113          	li	sp,0
80005ff4:	002f80a3          	sb	sp,1(t6)
80005ff8:	001f8183          	lb	gp,1(t6)
80005ffc:	00000e93          	li	t4,0
80006000:	00300e13          	li	t3,3
80006004:	3bd19c63          	bne	gp,t4,800063bc <fail>

80006008 <test_4>:
80006008:	00005f97          	auipc	t6,0x5
8000600c:	b90f8f93          	add	t6,t6,-1136 # 8000ab98 <tdat>
80006010:	fffff137          	lui	sp,0xfffff
80006014:	fa010113          	add	sp,sp,-96 # ffffefa0 <_end+0x7ffebfa0>
80006018:	002f8123          	sb	sp,2(t6)
8000601c:	002f9183          	lh	gp,2(t6)
80006020:	fffffeb7          	lui	t4,0xfffff
80006024:	fa0e8e93          	add	t4,t4,-96 # ffffefa0 <_end+0x7ffebfa0>
80006028:	00400e13          	li	t3,4
8000602c:	39d19863          	bne	gp,t4,800063bc <fail>

80006030 <test_5>:
80006030:	00005f97          	auipc	t6,0x5
80006034:	b68f8f93          	add	t6,t6,-1176 # 8000ab98 <tdat>
80006038:	00a00113          	li	sp,10
8000603c:	002f81a3          	sb	sp,3(t6)
80006040:	003f8183          	lb	gp,3(t6)
80006044:	00a00e93          	li	t4,10
80006048:	00500e13          	li	t3,5
8000604c:	37d19863          	bne	gp,t4,800063bc <fail>

80006050 <test_6>:
80006050:	00005f97          	auipc	t6,0x5
80006054:	b4ff8f93          	add	t6,t6,-1201 # 8000ab9f <tdat8>
80006058:	faa00113          	li	sp,-86
8000605c:	fe2f8ea3          	sb	sp,-3(t6)
80006060:	ffdf8183          	lb	gp,-3(t6)
80006064:	faa00e93          	li	t4,-86
80006068:	00600e13          	li	t3,6
8000606c:	35d19863          	bne	gp,t4,800063bc <fail>

80006070 <test_7>:
80006070:	00005f97          	auipc	t6,0x5
80006074:	b2ff8f93          	add	t6,t6,-1233 # 8000ab9f <tdat8>
80006078:	00000113          	li	sp,0
8000607c:	fe2f8f23          	sb	sp,-2(t6)
80006080:	ffef8183          	lb	gp,-2(t6)
80006084:	00000e93          	li	t4,0
80006088:	00700e13          	li	t3,7
8000608c:	33d19863          	bne	gp,t4,800063bc <fail>

80006090 <test_8>:
80006090:	00005f97          	auipc	t6,0x5
80006094:	b0ff8f93          	add	t6,t6,-1265 # 8000ab9f <tdat8>
80006098:	fa000113          	li	sp,-96
8000609c:	fe2f8fa3          	sb	sp,-1(t6)
800060a0:	ffff8183          	lb	gp,-1(t6)
800060a4:	fa000e93          	li	t4,-96
800060a8:	00800e13          	li	t3,8
800060ac:	31d19863          	bne	gp,t4,800063bc <fail>

800060b0 <test_9>:
800060b0:	00005f97          	auipc	t6,0x5
800060b4:	aeff8f93          	add	t6,t6,-1297 # 8000ab9f <tdat8>
800060b8:	00a00113          	li	sp,10
800060bc:	002f8023          	sb	sp,0(t6)
800060c0:	000f8183          	lb	gp,0(t6)
800060c4:	00a00e93          	li	t4,10
800060c8:	00900e13          	li	t3,9
800060cc:	2fd19863          	bne	gp,t4,800063bc <fail>

800060d0 <test_10>:
800060d0:	00005f97          	auipc	t6,0x5
800060d4:	ad0f8f93          	add	t6,t6,-1328 # 8000aba0 <tdat9>
800060d8:	12345137          	lui	sp,0x12345
800060dc:	67810113          	add	sp,sp,1656 # 12345678 <_entry_offset+0x12345678>
800060e0:	fe0f8213          	add	tp,t6,-32
800060e4:	02220023          	sb	sp,32(tp) # 20 <_entry_offset+0x20>
800060e8:	000f8183          	lb	gp,0(t6)
800060ec:	07800e93          	li	t4,120
800060f0:	00a00e13          	li	t3,10
800060f4:	2dd19463          	bne	gp,t4,800063bc <fail>

800060f8 <test_11>:
800060f8:	00005f97          	auipc	t6,0x5
800060fc:	aa8f8f93          	add	t6,t6,-1368 # 8000aba0 <tdat9>
80006100:	00003137          	lui	sp,0x3
80006104:	09810113          	add	sp,sp,152 # 3098 <_entry_offset+0x3098>
80006108:	ffaf8f93          	add	t6,t6,-6
8000610c:	002f83a3          	sb	sp,7(t6)
80006110:	00005217          	auipc	tp,0x5
80006114:	a9120213          	add	tp,tp,-1391 # 8000aba1 <tdat10>
80006118:	00020183          	lb	gp,0(tp) # 0 <_entry_offset>
8000611c:	f9800e93          	li	t4,-104
80006120:	00b00e13          	li	t3,11
80006124:	29d19c63          	bne	gp,t4,800063bc <fail>

80006128 <test_12>:
80006128:	00c00e13          	li	t3,12
8000612c:	00000213          	li	tp,0
80006130:	fdd00f93          	li	t6,-35
80006134:	00005117          	auipc	sp,0x5
80006138:	a6410113          	add	sp,sp,-1436 # 8000ab98 <tdat>
8000613c:	01f10023          	sb	t6,0(sp)
80006140:	00010183          	lb	gp,0(sp)
80006144:	fdd00e93          	li	t4,-35
80006148:	27d19a63          	bne	gp,t4,800063bc <fail>
8000614c:	00120213          	add	tp,tp,1 # 1 <_entry_offset+0x1>
80006150:	00200293          	li	t0,2
80006154:	fc521ee3          	bne	tp,t0,80006130 <test_12+0x8>

80006158 <test_13>:
80006158:	00d00e13          	li	t3,13
8000615c:	00000213          	li	tp,0
80006160:	fcd00f93          	li	t6,-51
80006164:	00005117          	auipc	sp,0x5
80006168:	a3410113          	add	sp,sp,-1484 # 8000ab98 <tdat>
8000616c:	00000013          	nop
80006170:	01f100a3          	sb	t6,1(sp)
80006174:	00110183          	lb	gp,1(sp)
80006178:	fcd00e93          	li	t4,-51
8000617c:	25d19063          	bne	gp,t4,800063bc <fail>
80006180:	00120213          	add	tp,tp,1 # 1 <_entry_offset+0x1>
80006184:	00200293          	li	t0,2
80006188:	fc521ce3          	bne	tp,t0,80006160 <test_13+0x8>

8000618c <test_14>:
8000618c:	00e00e13          	li	t3,14
80006190:	00000213          	li	tp,0
80006194:	fcc00f93          	li	t6,-52
80006198:	00005117          	auipc	sp,0x5
8000619c:	a0010113          	add	sp,sp,-1536 # 8000ab98 <tdat>
800061a0:	00000013          	nop
800061a4:	00000013          	nop
800061a8:	01f10123          	sb	t6,2(sp)
800061ac:	00210183          	lb	gp,2(sp)
800061b0:	fcc00e93          	li	t4,-52
800061b4:	21d19463          	bne	gp,t4,800063bc <fail>
800061b8:	00120213          	add	tp,tp,1 # 1 <_entry_offset+0x1>
800061bc:	00200293          	li	t0,2
800061c0:	fc521ae3          	bne	tp,t0,80006194 <test_14+0x8>

800061c4 <test_15>:
800061c4:	00f00e13          	li	t3,15
800061c8:	00000213          	li	tp,0
800061cc:	fbc00f93          	li	t6,-68
800061d0:	00000013          	nop
800061d4:	00005117          	auipc	sp,0x5
800061d8:	9c410113          	add	sp,sp,-1596 # 8000ab98 <tdat>
800061dc:	01f101a3          	sb	t6,3(sp)
800061e0:	00310183          	lb	gp,3(sp)
800061e4:	fbc00e93          	li	t4,-68
800061e8:	1dd19a63          	bne	gp,t4,800063bc <fail>
800061ec:	00120213          	add	tp,tp,1 # 1 <_entry_offset+0x1>
800061f0:	00200293          	li	t0,2
800061f4:	fc521ce3          	bne	tp,t0,800061cc <test_15+0x8>

800061f8 <test_16>:
800061f8:	01000e13          	li	t3,16
800061fc:	00000213          	li	tp,0
80006200:	fbb00f93          	li	t6,-69
80006204:	00000013          	nop
80006208:	00005117          	auipc	sp,0x5
8000620c:	99010113          	add	sp,sp,-1648 # 8000ab98 <tdat>
80006210:	00000013          	nop
80006214:	01f10223          	sb	t6,4(sp)
80006218:	00410183          	lb	gp,4(sp)
8000621c:	fbb00e93          	li	t4,-69
80006220:	19d19e63          	bne	gp,t4,800063bc <fail>
80006224:	00120213          	add	tp,tp,1 # 1 <_entry_offset+0x1>
80006228:	00200293          	li	t0,2
8000622c:	fc521ae3          	bne	tp,t0,80006200 <test_16+0x8>

80006230 <test_17>:
80006230:	01100e13          	li	t3,17
80006234:	00000213          	li	tp,0
80006238:	fab00f93          	li	t6,-85
8000623c:	00000013          	nop
80006240:	00000013          	nop
80006244:	00005117          	auipc	sp,0x5
80006248:	95410113          	add	sp,sp,-1708 # 8000ab98 <tdat>
8000624c:	01f102a3          	sb	t6,5(sp)
80006250:	00510183          	lb	gp,5(sp)
80006254:	fab00e93          	li	t4,-85
80006258:	17d19263          	bne	gp,t4,800063bc <fail>
8000625c:	00120213          	add	tp,tp,1 # 1 <_entry_offset+0x1>
80006260:	00200293          	li	t0,2
80006264:	fc521ae3          	bne	tp,t0,80006238 <test_17+0x8>

80006268 <test_18>:
80006268:	01200e13          	li	t3,18
8000626c:	00000213          	li	tp,0
80006270:	00005117          	auipc	sp,0x5
80006274:	92810113          	add	sp,sp,-1752 # 8000ab98 <tdat>
80006278:	03300f93          	li	t6,51
8000627c:	01f10023          	sb	t6,0(sp)
80006280:	00010183          	lb	gp,0(sp)
80006284:	03300e93          	li	t4,51
80006288:	13d19a63          	bne	gp,t4,800063bc <fail>
8000628c:	00120213          	add	tp,tp,1 # 1 <_entry_offset+0x1>
80006290:	00200293          	li	t0,2
80006294:	fc521ee3          	bne	tp,t0,80006270 <test_18+0x8>

80006298 <test_19>:
80006298:	01300e13          	li	t3,19
8000629c:	00000213          	li	tp,0
800062a0:	00005117          	auipc	sp,0x5
800062a4:	8f810113          	add	sp,sp,-1800 # 8000ab98 <tdat>
800062a8:	02300f93          	li	t6,35
800062ac:	00000013          	nop
800062b0:	01f100a3          	sb	t6,1(sp)
800062b4:	00110183          	lb	gp,1(sp)
800062b8:	02300e93          	li	t4,35
800062bc:	11d19063          	bne	gp,t4,800063bc <fail>
800062c0:	00120213          	add	tp,tp,1 # 1 <_entry_offset+0x1>
800062c4:	00200293          	li	t0,2
800062c8:	fc521ce3          	bne	tp,t0,800062a0 <test_19+0x8>

800062cc <test_20>:
800062cc:	01400e13          	li	t3,20
800062d0:	00000213          	li	tp,0
800062d4:	00005117          	auipc	sp,0x5
800062d8:	8c410113          	add	sp,sp,-1852 # 8000ab98 <tdat>
800062dc:	02200f93          	li	t6,34
800062e0:	00000013          	nop
800062e4:	00000013          	nop
800062e8:	01f10123          	sb	t6,2(sp)
800062ec:	00210183          	lb	gp,2(sp)
800062f0:	02200e93          	li	t4,34
800062f4:	0dd19463          	bne	gp,t4,800063bc <fail>
800062f8:	00120213          	add	tp,tp,1 # 1 <_entry_offset+0x1>
800062fc:	00200293          	li	t0,2
80006300:	fc521ae3          	bne	tp,t0,800062d4 <test_20+0x8>

80006304 <test_21>:
80006304:	01500e13          	li	t3,21
80006308:	00000213          	li	tp,0
8000630c:	00005117          	auipc	sp,0x5
80006310:	88c10113          	add	sp,sp,-1908 # 8000ab98 <tdat>
80006314:	00000013          	nop
80006318:	01200f93          	li	t6,18
8000631c:	01f101a3          	sb	t6,3(sp)
80006320:	00310183          	lb	gp,3(sp)
80006324:	01200e93          	li	t4,18
80006328:	09d19a63          	bne	gp,t4,800063bc <fail>
8000632c:	00120213          	add	tp,tp,1 # 1 <_entry_offset+0x1>
80006330:	00200293          	li	t0,2
80006334:	fc521ce3          	bne	tp,t0,8000630c <test_21+0x8>

80006338 <test_22>:
80006338:	01600e13          	li	t3,22
8000633c:	00000213          	li	tp,0
80006340:	00005117          	auipc	sp,0x5
80006344:	85810113          	add	sp,sp,-1960 # 8000ab98 <tdat>
80006348:	00000013          	nop
8000634c:	01100f93          	li	t6,17
80006350:	00000013          	nop
80006354:	01f10223          	sb	t6,4(sp)
80006358:	00410183          	lb	gp,4(sp)
8000635c:	01100e93          	li	t4,17
80006360:	05d19e63          	bne	gp,t4,800063bc <fail>
80006364:	00120213          	add	tp,tp,1 # 1 <_entry_offset+0x1>
80006368:	00200293          	li	t0,2
8000636c:	fc521ae3          	bne	tp,t0,80006340 <test_22+0x8>

80006370 <test_23>:
80006370:	01700e13          	li	t3,23
80006374:	00000213          	li	tp,0
80006378:	00005117          	auipc	sp,0x5
8000637c:	82010113          	add	sp,sp,-2016 # 8000ab98 <tdat>
80006380:	00000013          	nop
80006384:	00000013          	nop
80006388:	00100f93          	li	t6,1
8000638c:	01f102a3          	sb	t6,5(sp)
80006390:	00510183          	lb	gp,5(sp)
80006394:	00100e93          	li	t4,1
80006398:	03d19263          	bne	gp,t4,800063bc <fail>
8000639c:	00120213          	add	tp,tp,1 # 1 <_entry_offset+0x1>
800063a0:	00200293          	li	t0,2
800063a4:	fc521ae3          	bne	tp,t0,80006378 <test_23+0x8>
800063a8:	0ef00513          	li	a0,239
800063ac:	00004597          	auipc	a1,0x4
800063b0:	7ec58593          	add	a1,a1,2028 # 8000ab98 <tdat>
800063b4:	00a581a3          	sb	a0,3(a1)
800063b8:	0100006f          	j	800063c8 <pass>

800063bc <fail>:
800063bc:	fff00513          	li	a0,-1
800063c0:	00100073          	ebreak
800063c4:	ff9ff06f          	j	800063bc <fail>

800063c8 <pass>:
800063c8:	00000513          	li	a0,0
800063cc:	00008067          	ret

800063d0 <j>:
800063d0:	00200e13          	li	t3,2
800063d4:	0080006f          	j	800063dc <test_2>
800063d8:	0340006f          	j	8000640c <fail>

800063dc <test_2>:
800063dc:	00100f93          	li	t6,1
800063e0:	0140006f          	j	800063f4 <test_2+0x18>
800063e4:	001f8f93          	add	t6,t6,1
800063e8:	001f8f93          	add	t6,t6,1
800063ec:	001f8f93          	add	t6,t6,1
800063f0:	001f8f93          	add	t6,t6,1
800063f4:	001f8f93          	add	t6,t6,1
800063f8:	001f8f93          	add	t6,t6,1
800063fc:	00300e93          	li	t4,3
80006400:	00300e13          	li	t3,3
80006404:	01df9463          	bne	t6,t4,8000640c <fail>
80006408:	0100006f          	j	80006418 <pass>

8000640c <fail>:
8000640c:	fff00513          	li	a0,-1
80006410:	00100073          	ebreak
80006414:	ff9ff06f          	j	8000640c <fail>

80006418 <pass>:
80006418:	00000513          	li	a0,0
8000641c:	00008067          	ret

80006420 <srli>:
80006420:	ffff8fb7          	lui	t6,0xffff8
80006424:	000fd193          	srl	gp,t6,0x0
80006428:	ffff8eb7          	lui	t4,0xffff8
8000642c:	00200e13          	li	t3,2
80006430:	2bd19263          	bne	gp,t4,800066d4 <fail>

80006434 <test_3>:
80006434:	ffff8fb7          	lui	t6,0xffff8
80006438:	001fd193          	srl	gp,t6,0x1
8000643c:	7fffceb7          	lui	t4,0x7fffc
80006440:	00300e13          	li	t3,3
80006444:	29d19863          	bne	gp,t4,800066d4 <fail>

80006448 <test_4>:
80006448:	ffff8fb7          	lui	t6,0xffff8
8000644c:	007fd193          	srl	gp,t6,0x7
80006450:	02000eb7          	lui	t4,0x2000
80006454:	f00e8e93          	add	t4,t4,-256 # 1ffff00 <_entry_offset+0x1ffff00>
80006458:	00400e13          	li	t3,4
8000645c:	27d19c63          	bne	gp,t4,800066d4 <fail>

80006460 <test_5>:
80006460:	ffff8fb7          	lui	t6,0xffff8
80006464:	00efd193          	srl	gp,t6,0xe
80006468:	00040eb7          	lui	t4,0x40
8000646c:	ffee8e93          	add	t4,t4,-2 # 3fffe <_entry_offset+0x3fffe>
80006470:	00500e13          	li	t3,5
80006474:	27d19063          	bne	gp,t4,800066d4 <fail>

80006478 <test_6>:
80006478:	ffff8fb7          	lui	t6,0xffff8
8000647c:	001f8f93          	add	t6,t6,1 # ffff8001 <_end+0x7ffe5001>
80006480:	00ffd193          	srl	gp,t6,0xf
80006484:	00020eb7          	lui	t4,0x20
80006488:	fffe8e93          	add	t4,t4,-1 # 1ffff <_entry_offset+0x1ffff>
8000648c:	00600e13          	li	t3,6
80006490:	25d19263          	bne	gp,t4,800066d4 <fail>

80006494 <test_7>:
80006494:	fff00f93          	li	t6,-1
80006498:	000fd193          	srl	gp,t6,0x0
8000649c:	fff00e93          	li	t4,-1
800064a0:	00700e13          	li	t3,7
800064a4:	23d19863          	bne	gp,t4,800066d4 <fail>

800064a8 <test_8>:
800064a8:	fff00f93          	li	t6,-1
800064ac:	001fd193          	srl	gp,t6,0x1
800064b0:	80000eb7          	lui	t4,0x80000
800064b4:	fffe8e93          	add	t4,t4,-1 # 7fffffff <_entry_offset+0x7fffffff>
800064b8:	00800e13          	li	t3,8
800064bc:	21d19c63          	bne	gp,t4,800066d4 <fail>

800064c0 <test_9>:
800064c0:	fff00f93          	li	t6,-1
800064c4:	007fd193          	srl	gp,t6,0x7
800064c8:	02000eb7          	lui	t4,0x2000
800064cc:	fffe8e93          	add	t4,t4,-1 # 1ffffff <_entry_offset+0x1ffffff>
800064d0:	00900e13          	li	t3,9
800064d4:	21d19063          	bne	gp,t4,800066d4 <fail>

800064d8 <test_10>:
800064d8:	fff00f93          	li	t6,-1
800064dc:	00efd193          	srl	gp,t6,0xe
800064e0:	00040eb7          	lui	t4,0x40
800064e4:	fffe8e93          	add	t4,t4,-1 # 3ffff <_entry_offset+0x3ffff>
800064e8:	00a00e13          	li	t3,10
800064ec:	1fd19463          	bne	gp,t4,800066d4 <fail>

800064f0 <test_11>:
800064f0:	fff00f93          	li	t6,-1
800064f4:	01ffd193          	srl	gp,t6,0x1f
800064f8:	00100e93          	li	t4,1
800064fc:	00b00e13          	li	t3,11
80006500:	1dd19a63          	bne	gp,t4,800066d4 <fail>

80006504 <test_12>:
80006504:	21212fb7          	lui	t6,0x21212
80006508:	121f8f93          	add	t6,t6,289 # 21212121 <_entry_offset+0x21212121>
8000650c:	000fd193          	srl	gp,t6,0x0
80006510:	21212eb7          	lui	t4,0x21212
80006514:	121e8e93          	add	t4,t4,289 # 21212121 <_entry_offset+0x21212121>
80006518:	00c00e13          	li	t3,12
8000651c:	1bd19c63          	bne	gp,t4,800066d4 <fail>

80006520 <test_13>:
80006520:	21212fb7          	lui	t6,0x21212
80006524:	121f8f93          	add	t6,t6,289 # 21212121 <_entry_offset+0x21212121>
80006528:	001fd193          	srl	gp,t6,0x1
8000652c:	10909eb7          	lui	t4,0x10909
80006530:	090e8e93          	add	t4,t4,144 # 10909090 <_entry_offset+0x10909090>
80006534:	00d00e13          	li	t3,13
80006538:	19d19e63          	bne	gp,t4,800066d4 <fail>

8000653c <test_14>:
8000653c:	21212fb7          	lui	t6,0x21212
80006540:	121f8f93          	add	t6,t6,289 # 21212121 <_entry_offset+0x21212121>
80006544:	007fd193          	srl	gp,t6,0x7
80006548:	00424eb7          	lui	t4,0x424
8000654c:	242e8e93          	add	t4,t4,578 # 424242 <_entry_offset+0x424242>
80006550:	00e00e13          	li	t3,14
80006554:	19d19063          	bne	gp,t4,800066d4 <fail>

80006558 <test_15>:
80006558:	21212fb7          	lui	t6,0x21212
8000655c:	121f8f93          	add	t6,t6,289 # 21212121 <_entry_offset+0x21212121>
80006560:	00efd193          	srl	gp,t6,0xe
80006564:	00008eb7          	lui	t4,0x8
80006568:	484e8e93          	add	t4,t4,1156 # 8484 <_entry_offset+0x8484>
8000656c:	00f00e13          	li	t3,15
80006570:	17d19263          	bne	gp,t4,800066d4 <fail>

80006574 <test_16>:
80006574:	21212fb7          	lui	t6,0x21212
80006578:	121f8f93          	add	t6,t6,289 # 21212121 <_entry_offset+0x21212121>
8000657c:	01ffd193          	srl	gp,t6,0x1f
80006580:	00000e93          	li	t4,0
80006584:	01000e13          	li	t3,16
80006588:	15d19663          	bne	gp,t4,800066d4 <fail>

8000658c <test_21>:
8000658c:	ffff8fb7          	lui	t6,0xffff8
80006590:	001fdf93          	srl	t6,t6,0x1
80006594:	7fffceb7          	lui	t4,0x7fffc
80006598:	01500e13          	li	t3,21
8000659c:	13df9c63          	bne	t6,t4,800066d4 <fail>

800065a0 <test_22>:
800065a0:	00000213          	li	tp,0
800065a4:	ffff8fb7          	lui	t6,0xffff8
800065a8:	001fd193          	srl	gp,t6,0x1
800065ac:	00018313          	mv	t1,gp
800065b0:	00120213          	add	tp,tp,1 # 1 <_entry_offset+0x1>
800065b4:	00200293          	li	t0,2
800065b8:	fe5216e3          	bne	tp,t0,800065a4 <test_22+0x4>
800065bc:	7fffceb7          	lui	t4,0x7fffc
800065c0:	01600e13          	li	t3,22
800065c4:	11d31863          	bne	t1,t4,800066d4 <fail>

800065c8 <test_23>:
800065c8:	00000213          	li	tp,0
800065cc:	ffff8fb7          	lui	t6,0xffff8
800065d0:	00efd193          	srl	gp,t6,0xe
800065d4:	00000013          	nop
800065d8:	00018313          	mv	t1,gp
800065dc:	00120213          	add	tp,tp,1 # 1 <_entry_offset+0x1>
800065e0:	00200293          	li	t0,2
800065e4:	fe5214e3          	bne	tp,t0,800065cc <test_23+0x4>
800065e8:	00040eb7          	lui	t4,0x40
800065ec:	ffee8e93          	add	t4,t4,-2 # 3fffe <_entry_offset+0x3fffe>
800065f0:	01700e13          	li	t3,23
800065f4:	0fd31063          	bne	t1,t4,800066d4 <fail>

800065f8 <test_24>:
800065f8:	00000213          	li	tp,0
800065fc:	ffff8fb7          	lui	t6,0xffff8
80006600:	00ffd193          	srl	gp,t6,0xf
80006604:	00000013          	nop
80006608:	00000013          	nop
8000660c:	00018313          	mv	t1,gp
80006610:	00120213          	add	tp,tp,1 # 1 <_entry_offset+0x1>
80006614:	00200293          	li	t0,2
80006618:	fe5212e3          	bne	tp,t0,800065fc <test_24+0x4>
8000661c:	00020eb7          	lui	t4,0x20
80006620:	fffe8e93          	add	t4,t4,-1 # 1ffff <_entry_offset+0x1ffff>
80006624:	01800e13          	li	t3,24
80006628:	0bd31663          	bne	t1,t4,800066d4 <fail>

8000662c <test_25>:
8000662c:	00000213          	li	tp,0
80006630:	ffff8fb7          	lui	t6,0xffff8
80006634:	001fd193          	srl	gp,t6,0x1
80006638:	00120213          	add	tp,tp,1 # 1 <_entry_offset+0x1>
8000663c:	00200293          	li	t0,2
80006640:	fe5218e3          	bne	tp,t0,80006630 <test_25+0x4>
80006644:	7fffceb7          	lui	t4,0x7fffc
80006648:	01900e13          	li	t3,25
8000664c:	09d19463          	bne	gp,t4,800066d4 <fail>

80006650 <test_26>:
80006650:	00000213          	li	tp,0
80006654:	ffff8fb7          	lui	t6,0xffff8
80006658:	00000013          	nop
8000665c:	00efd193          	srl	gp,t6,0xe
80006660:	00120213          	add	tp,tp,1 # 1 <_entry_offset+0x1>
80006664:	00200293          	li	t0,2
80006668:	fe5216e3          	bne	tp,t0,80006654 <test_26+0x4>
8000666c:	00040eb7          	lui	t4,0x40
80006670:	ffee8e93          	add	t4,t4,-2 # 3fffe <_entry_offset+0x3fffe>
80006674:	01a00e13          	li	t3,26
80006678:	05d19e63          	bne	gp,t4,800066d4 <fail>

8000667c <test_27>:
8000667c:	00000213          	li	tp,0
80006680:	ffff8fb7          	lui	t6,0xffff8
80006684:	00000013          	nop
80006688:	00000013          	nop
8000668c:	00ffd193          	srl	gp,t6,0xf
80006690:	00120213          	add	tp,tp,1 # 1 <_entry_offset+0x1>
80006694:	00200293          	li	t0,2
80006698:	fe5214e3          	bne	tp,t0,80006680 <test_27+0x4>
8000669c:	00020eb7          	lui	t4,0x20
800066a0:	fffe8e93          	add	t4,t4,-1 # 1ffff <_entry_offset+0x1ffff>
800066a4:	01b00e13          	li	t3,27
800066a8:	03d19663          	bne	gp,t4,800066d4 <fail>

800066ac <test_28>:
800066ac:	01f05f93          	srl	t6,zero,0x1f
800066b0:	00000e93          	li	t4,0
800066b4:	01c00e13          	li	t3,28
800066b8:	01df9e63          	bne	t6,t4,800066d4 <fail>

800066bc <test_29>:
800066bc:	02100f93          	li	t6,33
800066c0:	014fd013          	srl	zero,t6,0x14
800066c4:	00000e93          	li	t4,0
800066c8:	01d00e13          	li	t3,29
800066cc:	01d01463          	bne	zero,t4,800066d4 <fail>
800066d0:	0100006f          	j	800066e0 <pass>

800066d4 <fail>:
800066d4:	fff00513          	li	a0,-1
800066d8:	00100073          	ebreak
800066dc:	ff9ff06f          	j	800066d4 <fail>

800066e0 <pass>:
800066e0:	00000513          	li	a0,0
800066e4:	00008067          	ret

800066e8 <sw>:
800066e8:	00004f97          	auipc	t6,0x4
800066ec:	4bcf8f93          	add	t6,t6,1212 # 8000aba4 <tdat>
800066f0:	00aa0137          	lui	sp,0xaa0
800066f4:	0aa10113          	add	sp,sp,170 # aa00aa <_entry_offset+0xaa00aa>
800066f8:	002fa023          	sw	sp,0(t6)
800066fc:	000fa183          	lw	gp,0(t6)
80006700:	00aa0eb7          	lui	t4,0xaa0
80006704:	0aae8e93          	add	t4,t4,170 # aa00aa <_entry_offset+0xaa00aa>
80006708:	00200e13          	li	t3,2
8000670c:	47d19063          	bne	gp,t4,80006b6c <fail>

80006710 <test_3>:
80006710:	00004f97          	auipc	t6,0x4
80006714:	494f8f93          	add	t6,t6,1172 # 8000aba4 <tdat>
80006718:	aa00b137          	lui	sp,0xaa00b
8000671c:	a0010113          	add	sp,sp,-1536 # aa00aa00 <_end+0x29ff7a00>
80006720:	002fa223          	sw	sp,4(t6)
80006724:	004fa183          	lw	gp,4(t6)
80006728:	aa00beb7          	lui	t4,0xaa00b
8000672c:	a00e8e93          	add	t4,t4,-1536 # aa00aa00 <_end+0x29ff7a00>
80006730:	00300e13          	li	t3,3
80006734:	43d19c63          	bne	gp,t4,80006b6c <fail>

80006738 <test_4>:
80006738:	00004f97          	auipc	t6,0x4
8000673c:	46cf8f93          	add	t6,t6,1132 # 8000aba4 <tdat>
80006740:	0aa01137          	lui	sp,0xaa01
80006744:	aa010113          	add	sp,sp,-1376 # aa00aa0 <_entry_offset+0xaa00aa0>
80006748:	002fa423          	sw	sp,8(t6)
8000674c:	008fa183          	lw	gp,8(t6)
80006750:	0aa01eb7          	lui	t4,0xaa01
80006754:	aa0e8e93          	add	t4,t4,-1376 # aa00aa0 <_entry_offset+0xaa00aa0>
80006758:	00400e13          	li	t3,4
8000675c:	41d19863          	bne	gp,t4,80006b6c <fail>

80006760 <test_5>:
80006760:	00004f97          	auipc	t6,0x4
80006764:	444f8f93          	add	t6,t6,1092 # 8000aba4 <tdat>
80006768:	a00aa137          	lui	sp,0xa00aa
8000676c:	00a10113          	add	sp,sp,10 # a00aa00a <_end+0x2009700a>
80006770:	002fa623          	sw	sp,12(t6)
80006774:	00cfa183          	lw	gp,12(t6)
80006778:	a00aaeb7          	lui	t4,0xa00aa
8000677c:	00ae8e93          	add	t4,t4,10 # a00aa00a <_end+0x2009700a>
80006780:	00500e13          	li	t3,5
80006784:	3fd19463          	bne	gp,t4,80006b6c <fail>

80006788 <test_6>:
80006788:	00004f97          	auipc	t6,0x4
8000678c:	438f8f93          	add	t6,t6,1080 # 8000abc0 <tdat8>
80006790:	00aa0137          	lui	sp,0xaa0
80006794:	0aa10113          	add	sp,sp,170 # aa00aa <_entry_offset+0xaa00aa>
80006798:	fe2faa23          	sw	sp,-12(t6)
8000679c:	ff4fa183          	lw	gp,-12(t6)
800067a0:	00aa0eb7          	lui	t4,0xaa0
800067a4:	0aae8e93          	add	t4,t4,170 # aa00aa <_entry_offset+0xaa00aa>
800067a8:	00600e13          	li	t3,6
800067ac:	3dd19063          	bne	gp,t4,80006b6c <fail>

800067b0 <test_7>:
800067b0:	00004f97          	auipc	t6,0x4
800067b4:	410f8f93          	add	t6,t6,1040 # 8000abc0 <tdat8>
800067b8:	aa00b137          	lui	sp,0xaa00b
800067bc:	a0010113          	add	sp,sp,-1536 # aa00aa00 <_end+0x29ff7a00>
800067c0:	fe2fac23          	sw	sp,-8(t6)
800067c4:	ff8fa183          	lw	gp,-8(t6)
800067c8:	aa00beb7          	lui	t4,0xaa00b
800067cc:	a00e8e93          	add	t4,t4,-1536 # aa00aa00 <_end+0x29ff7a00>
800067d0:	00700e13          	li	t3,7
800067d4:	39d19c63          	bne	gp,t4,80006b6c <fail>

800067d8 <test_8>:
800067d8:	00004f97          	auipc	t6,0x4
800067dc:	3e8f8f93          	add	t6,t6,1000 # 8000abc0 <tdat8>
800067e0:	0aa01137          	lui	sp,0xaa01
800067e4:	aa010113          	add	sp,sp,-1376 # aa00aa0 <_entry_offset+0xaa00aa0>
800067e8:	fe2fae23          	sw	sp,-4(t6)
800067ec:	ffcfa183          	lw	gp,-4(t6)
800067f0:	0aa01eb7          	lui	t4,0xaa01
800067f4:	aa0e8e93          	add	t4,t4,-1376 # aa00aa0 <_entry_offset+0xaa00aa0>
800067f8:	00800e13          	li	t3,8
800067fc:	37d19863          	bne	gp,t4,80006b6c <fail>

80006800 <test_9>:
80006800:	00004f97          	auipc	t6,0x4
80006804:	3c0f8f93          	add	t6,t6,960 # 8000abc0 <tdat8>
80006808:	a00aa137          	lui	sp,0xa00aa
8000680c:	00a10113          	add	sp,sp,10 # a00aa00a <_end+0x2009700a>
80006810:	002fa023          	sw	sp,0(t6)
80006814:	000fa183          	lw	gp,0(t6)
80006818:	a00aaeb7          	lui	t4,0xa00aa
8000681c:	00ae8e93          	add	t4,t4,10 # a00aa00a <_end+0x2009700a>
80006820:	00900e13          	li	t3,9
80006824:	35d19463          	bne	gp,t4,80006b6c <fail>

80006828 <test_10>:
80006828:	00004f97          	auipc	t6,0x4
8000682c:	39cf8f93          	add	t6,t6,924 # 8000abc4 <tdat9>
80006830:	12345137          	lui	sp,0x12345
80006834:	67810113          	add	sp,sp,1656 # 12345678 <_entry_offset+0x12345678>
80006838:	fe0f8213          	add	tp,t6,-32
8000683c:	02222023          	sw	sp,32(tp) # 20 <_entry_offset+0x20>
80006840:	000fa183          	lw	gp,0(t6)
80006844:	12345eb7          	lui	t4,0x12345
80006848:	678e8e93          	add	t4,t4,1656 # 12345678 <_entry_offset+0x12345678>
8000684c:	00a00e13          	li	t3,10
80006850:	31d19e63          	bne	gp,t4,80006b6c <fail>

80006854 <test_11>:
80006854:	00004f97          	auipc	t6,0x4
80006858:	370f8f93          	add	t6,t6,880 # 8000abc4 <tdat9>
8000685c:	58213137          	lui	sp,0x58213
80006860:	09810113          	add	sp,sp,152 # 58213098 <_entry_offset+0x58213098>
80006864:	ffdf8f93          	add	t6,t6,-3
80006868:	002fa3a3          	sw	sp,7(t6)
8000686c:	00004217          	auipc	tp,0x4
80006870:	35c20213          	add	tp,tp,860 # 8000abc8 <tdat10>
80006874:	00022183          	lw	gp,0(tp) # 0 <_entry_offset>
80006878:	58213eb7          	lui	t4,0x58213
8000687c:	098e8e93          	add	t4,t4,152 # 58213098 <_entry_offset+0x58213098>
80006880:	00b00e13          	li	t3,11
80006884:	2fd19463          	bne	gp,t4,80006b6c <fail>

80006888 <test_12>:
80006888:	00c00e13          	li	t3,12
8000688c:	00000213          	li	tp,0
80006890:	aabbdfb7          	lui	t6,0xaabbd
80006894:	cddf8f93          	add	t6,t6,-803 # aabbccdd <_end+0x2aba9cdd>
80006898:	00004117          	auipc	sp,0x4
8000689c:	30c10113          	add	sp,sp,780 # 8000aba4 <tdat>
800068a0:	01f12023          	sw	t6,0(sp)
800068a4:	00012183          	lw	gp,0(sp)
800068a8:	aabbdeb7          	lui	t4,0xaabbd
800068ac:	cdde8e93          	add	t4,t4,-803 # aabbccdd <_end+0x2aba9cdd>
800068b0:	2bd19e63          	bne	gp,t4,80006b6c <fail>
800068b4:	00120213          	add	tp,tp,1 # 1 <_entry_offset+0x1>
800068b8:	00200293          	li	t0,2
800068bc:	fc521ae3          	bne	tp,t0,80006890 <test_12+0x8>

800068c0 <test_13>:
800068c0:	00d00e13          	li	t3,13
800068c4:	00000213          	li	tp,0
800068c8:	daabcfb7          	lui	t6,0xdaabc
800068cc:	ccdf8f93          	add	t6,t6,-819 # daabbccd <_end+0x5aaa8ccd>
800068d0:	00004117          	auipc	sp,0x4
800068d4:	2d410113          	add	sp,sp,724 # 8000aba4 <tdat>
800068d8:	00000013          	nop
800068dc:	01f12223          	sw	t6,4(sp)
800068e0:	00412183          	lw	gp,4(sp)
800068e4:	daabceb7          	lui	t4,0xdaabc
800068e8:	ccde8e93          	add	t4,t4,-819 # daabbccd <_end+0x5aaa8ccd>
800068ec:	29d19063          	bne	gp,t4,80006b6c <fail>
800068f0:	00120213          	add	tp,tp,1 # 1 <_entry_offset+0x1>
800068f4:	00200293          	li	t0,2
800068f8:	fc5218e3          	bne	tp,t0,800068c8 <test_13+0x8>

800068fc <test_14>:
800068fc:	00e00e13          	li	t3,14
80006900:	00000213          	li	tp,0
80006904:	ddaacfb7          	lui	t6,0xddaac
80006908:	bccf8f93          	add	t6,t6,-1076 # ddaabbcc <_end+0x5da98bcc>
8000690c:	00004117          	auipc	sp,0x4
80006910:	29810113          	add	sp,sp,664 # 8000aba4 <tdat>
80006914:	00000013          	nop
80006918:	00000013          	nop
8000691c:	01f12423          	sw	t6,8(sp)
80006920:	00812183          	lw	gp,8(sp)
80006924:	ddaaceb7          	lui	t4,0xddaac
80006928:	bcce8e93          	add	t4,t4,-1076 # ddaabbcc <_end+0x5da98bcc>
8000692c:	25d19063          	bne	gp,t4,80006b6c <fail>
80006930:	00120213          	add	tp,tp,1 # 1 <_entry_offset+0x1>
80006934:	00200293          	li	t0,2
80006938:	fc5216e3          	bne	tp,t0,80006904 <test_14+0x8>

8000693c <test_15>:
8000693c:	00f00e13          	li	t3,15
80006940:	00000213          	li	tp,0
80006944:	cddabfb7          	lui	t6,0xcddab
80006948:	bbcf8f93          	add	t6,t6,-1092 # cddaabbc <_end+0x4dd97bbc>
8000694c:	00000013          	nop
80006950:	00004117          	auipc	sp,0x4
80006954:	25410113          	add	sp,sp,596 # 8000aba4 <tdat>
80006958:	01f12623          	sw	t6,12(sp)
8000695c:	00c12183          	lw	gp,12(sp)
80006960:	cddabeb7          	lui	t4,0xcddab
80006964:	bbce8e93          	add	t4,t4,-1092 # cddaabbc <_end+0x4dd97bbc>
80006968:	21d19263          	bne	gp,t4,80006b6c <fail>
8000696c:	00120213          	add	tp,tp,1 # 1 <_entry_offset+0x1>
80006970:	00200293          	li	t0,2
80006974:	fc5218e3          	bne	tp,t0,80006944 <test_15+0x8>

80006978 <test_16>:
80006978:	01000e13          	li	t3,16
8000697c:	00000213          	li	tp,0
80006980:	ccddbfb7          	lui	t6,0xccddb
80006984:	abbf8f93          	add	t6,t6,-1349 # ccddaabb <_end+0x4cdc7abb>
80006988:	00000013          	nop
8000698c:	00004117          	auipc	sp,0x4
80006990:	21810113          	add	sp,sp,536 # 8000aba4 <tdat>
80006994:	00000013          	nop
80006998:	01f12823          	sw	t6,16(sp)
8000699c:	01012183          	lw	gp,16(sp)
800069a0:	ccddbeb7          	lui	t4,0xccddb
800069a4:	abbe8e93          	add	t4,t4,-1349 # ccddaabb <_end+0x4cdc7abb>
800069a8:	1dd19263          	bne	gp,t4,80006b6c <fail>
800069ac:	00120213          	add	tp,tp,1 # 1 <_entry_offset+0x1>
800069b0:	00200293          	li	t0,2
800069b4:	fc5216e3          	bne	tp,t0,80006980 <test_16+0x8>

800069b8 <test_17>:
800069b8:	01100e13          	li	t3,17
800069bc:	00000213          	li	tp,0
800069c0:	bccdefb7          	lui	t6,0xbccde
800069c4:	aabf8f93          	add	t6,t6,-1365 # bccddaab <_end+0x3cccaaab>
800069c8:	00000013          	nop
800069cc:	00000013          	nop
800069d0:	00004117          	auipc	sp,0x4
800069d4:	1d410113          	add	sp,sp,468 # 8000aba4 <tdat>
800069d8:	01f12a23          	sw	t6,20(sp)
800069dc:	01412183          	lw	gp,20(sp)
800069e0:	bccdeeb7          	lui	t4,0xbccde
800069e4:	aabe8e93          	add	t4,t4,-1365 # bccddaab <_end+0x3cccaaab>
800069e8:	19d19263          	bne	gp,t4,80006b6c <fail>
800069ec:	00120213          	add	tp,tp,1 # 1 <_entry_offset+0x1>
800069f0:	00200293          	li	t0,2
800069f4:	fc5216e3          	bne	tp,t0,800069c0 <test_17+0x8>

800069f8 <test_18>:
800069f8:	01200e13          	li	t3,18
800069fc:	00000213          	li	tp,0
80006a00:	00004117          	auipc	sp,0x4
80006a04:	1a410113          	add	sp,sp,420 # 8000aba4 <tdat>
80006a08:	00112fb7          	lui	t6,0x112
80006a0c:	233f8f93          	add	t6,t6,563 # 112233 <_entry_offset+0x112233>
80006a10:	01f12023          	sw	t6,0(sp)
80006a14:	00012183          	lw	gp,0(sp)
80006a18:	00112eb7          	lui	t4,0x112
80006a1c:	233e8e93          	add	t4,t4,563 # 112233 <_entry_offset+0x112233>
80006a20:	15d19663          	bne	gp,t4,80006b6c <fail>
80006a24:	00120213          	add	tp,tp,1 # 1 <_entry_offset+0x1>
80006a28:	00200293          	li	t0,2
80006a2c:	fc521ae3          	bne	tp,t0,80006a00 <test_18+0x8>

80006a30 <test_19>:
80006a30:	01300e13          	li	t3,19
80006a34:	00000213          	li	tp,0
80006a38:	00004117          	auipc	sp,0x4
80006a3c:	16c10113          	add	sp,sp,364 # 8000aba4 <tdat>
80006a40:	30011fb7          	lui	t6,0x30011
80006a44:	223f8f93          	add	t6,t6,547 # 30011223 <_entry_offset+0x30011223>
80006a48:	00000013          	nop
80006a4c:	01f12223          	sw	t6,4(sp)
80006a50:	00412183          	lw	gp,4(sp)
80006a54:	30011eb7          	lui	t4,0x30011
80006a58:	223e8e93          	add	t4,t4,547 # 30011223 <_entry_offset+0x30011223>
80006a5c:	11d19863          	bne	gp,t4,80006b6c <fail>
80006a60:	00120213          	add	tp,tp,1 # 1 <_entry_offset+0x1>
80006a64:	00200293          	li	t0,2
80006a68:	fc5218e3          	bne	tp,t0,80006a38 <test_19+0x8>

80006a6c <test_20>:
80006a6c:	01400e13          	li	t3,20
80006a70:	00000213          	li	tp,0
80006a74:	00004117          	auipc	sp,0x4
80006a78:	13010113          	add	sp,sp,304 # 8000aba4 <tdat>
80006a7c:	33001fb7          	lui	t6,0x33001
80006a80:	122f8f93          	add	t6,t6,290 # 33001122 <_entry_offset+0x33001122>
80006a84:	00000013          	nop
80006a88:	00000013          	nop
80006a8c:	01f12423          	sw	t6,8(sp)
80006a90:	00812183          	lw	gp,8(sp)
80006a94:	33001eb7          	lui	t4,0x33001
80006a98:	122e8e93          	add	t4,t4,290 # 33001122 <_entry_offset+0x33001122>
80006a9c:	0dd19863          	bne	gp,t4,80006b6c <fail>
80006aa0:	00120213          	add	tp,tp,1 # 1 <_entry_offset+0x1>
80006aa4:	00200293          	li	t0,2
80006aa8:	fc5216e3          	bne	tp,t0,80006a74 <test_20+0x8>

80006aac <test_21>:
80006aac:	01500e13          	li	t3,21
80006ab0:	00000213          	li	tp,0
80006ab4:	00004117          	auipc	sp,0x4
80006ab8:	0f010113          	add	sp,sp,240 # 8000aba4 <tdat>
80006abc:	00000013          	nop
80006ac0:	23300fb7          	lui	t6,0x23300
80006ac4:	112f8f93          	add	t6,t6,274 # 23300112 <_entry_offset+0x23300112>
80006ac8:	01f12623          	sw	t6,12(sp)
80006acc:	00c12183          	lw	gp,12(sp)
80006ad0:	23300eb7          	lui	t4,0x23300
80006ad4:	112e8e93          	add	t4,t4,274 # 23300112 <_entry_offset+0x23300112>
80006ad8:	09d19a63          	bne	gp,t4,80006b6c <fail>
80006adc:	00120213          	add	tp,tp,1 # 1 <_entry_offset+0x1>
80006ae0:	00200293          	li	t0,2
80006ae4:	fc5218e3          	bne	tp,t0,80006ab4 <test_21+0x8>

80006ae8 <test_22>:
80006ae8:	01600e13          	li	t3,22
80006aec:	00000213          	li	tp,0
80006af0:	00004117          	auipc	sp,0x4
80006af4:	0b410113          	add	sp,sp,180 # 8000aba4 <tdat>
80006af8:	00000013          	nop
80006afc:	22330fb7          	lui	t6,0x22330
80006b00:	011f8f93          	add	t6,t6,17 # 22330011 <_entry_offset+0x22330011>
80006b04:	00000013          	nop
80006b08:	01f12823          	sw	t6,16(sp)
80006b0c:	01012183          	lw	gp,16(sp)
80006b10:	22330eb7          	lui	t4,0x22330
80006b14:	011e8e93          	add	t4,t4,17 # 22330011 <_entry_offset+0x22330011>
80006b18:	05d19a63          	bne	gp,t4,80006b6c <fail>
80006b1c:	00120213          	add	tp,tp,1 # 1 <_entry_offset+0x1>
80006b20:	00200293          	li	t0,2
80006b24:	fc5216e3          	bne	tp,t0,80006af0 <test_22+0x8>

80006b28 <test_23>:
80006b28:	01700e13          	li	t3,23
80006b2c:	00000213          	li	tp,0
80006b30:	00004117          	auipc	sp,0x4
80006b34:	07410113          	add	sp,sp,116 # 8000aba4 <tdat>
80006b38:	00000013          	nop
80006b3c:	00000013          	nop
80006b40:	12233fb7          	lui	t6,0x12233
80006b44:	001f8f93          	add	t6,t6,1 # 12233001 <_entry_offset+0x12233001>
80006b48:	01f12a23          	sw	t6,20(sp)
80006b4c:	01412183          	lw	gp,20(sp)
80006b50:	12233eb7          	lui	t4,0x12233
80006b54:	001e8e93          	add	t4,t4,1 # 12233001 <_entry_offset+0x12233001>
80006b58:	01d19a63          	bne	gp,t4,80006b6c <fail>
80006b5c:	00120213          	add	tp,tp,1 # 1 <_entry_offset+0x1>
80006b60:	00200293          	li	t0,2
80006b64:	fc5216e3          	bne	tp,t0,80006b30 <test_23+0x8>
80006b68:	0100006f          	j	80006b78 <pass>

80006b6c <fail>:
80006b6c:	fff00513          	li	a0,-1
80006b70:	00100073          	ebreak
80006b74:	ff9ff06f          	j	80006b6c <fail>

80006b78 <pass>:
80006b78:	00000513          	li	a0,0
80006b7c:	00008067          	ret

80006b80 <jalr>:
80006b80:	00200e13          	li	t3,2
80006b84:	00000f93          	li	t6,0
80006b88:	00000117          	auipc	sp,0x0
80006b8c:	01810113          	add	sp,sp,24 # 80006ba0 <target_2>

80006b90 <linkaddr_2>:
80006b90:	000109e7          	jalr	s3,sp
80006b94:	00000013          	nop
80006b98:	00000013          	nop
80006b9c:	0e40006f          	j	80006c80 <fail>

80006ba0 <target_2>:
80006ba0:	00000f97          	auipc	t6,0x0
80006ba4:	ff0f8f93          	add	t6,t6,-16 # 80006b90 <linkaddr_2>
80006ba8:	004f8f93          	add	t6,t6,4
80006bac:	0d3f9a63          	bne	t6,s3,80006c80 <fail>

80006bb0 <test_3>:
80006bb0:	00300e13          	li	t3,3
80006bb4:	00000f93          	li	t6,0
80006bb8:	00000197          	auipc	gp,0x0
80006bbc:	01418193          	add	gp,gp,20 # 80006bcc <target_3>

80006bc0 <linkaddr_3>:
80006bc0:	00018067          	jr	gp
80006bc4:	00000013          	nop
80006bc8:	0b80006f          	j	80006c80 <fail>

80006bcc <target_3>:
80006bcc:	0a0f9a63          	bnez	t6,80006c80 <fail>

80006bd0 <test_4>:
80006bd0:	00400e13          	li	t3,4
80006bd4:	00000213          	li	tp,0
80006bd8:	00000317          	auipc	t1,0x0
80006bdc:	01030313          	add	t1,t1,16 # 80006be8 <test_4+0x18>
80006be0:	000309e7          	jalr	s3,t1
80006be4:	09c01e63          	bne	zero,t3,80006c80 <fail>
80006be8:	00120213          	add	tp,tp,1 # 1 <_entry_offset+0x1>
80006bec:	00200293          	li	t0,2
80006bf0:	fe5214e3          	bne	tp,t0,80006bd8 <test_4+0x8>

80006bf4 <test_5>:
80006bf4:	00500e13          	li	t3,5
80006bf8:	00000213          	li	tp,0
80006bfc:	00000317          	auipc	t1,0x0
80006c00:	01430313          	add	t1,t1,20 # 80006c10 <test_5+0x1c>
80006c04:	00000013          	nop
80006c08:	000309e7          	jalr	s3,t1
80006c0c:	07c01a63          	bne	zero,t3,80006c80 <fail>
80006c10:	00120213          	add	tp,tp,1 # 1 <_entry_offset+0x1>
80006c14:	00200293          	li	t0,2
80006c18:	fe5212e3          	bne	tp,t0,80006bfc <test_5+0x8>

80006c1c <test_6>:
80006c1c:	00600e13          	li	t3,6
80006c20:	00000213          	li	tp,0
80006c24:	00000317          	auipc	t1,0x0
80006c28:	01830313          	add	t1,t1,24 # 80006c3c <test_6+0x20>
80006c2c:	00000013          	nop
80006c30:	00000013          	nop
80006c34:	000309e7          	jalr	s3,t1
80006c38:	05c01463          	bne	zero,t3,80006c80 <fail>
80006c3c:	00120213          	add	tp,tp,1 # 1 <_entry_offset+0x1>
80006c40:	00200293          	li	t0,2
80006c44:	fe5210e3          	bne	tp,t0,80006c24 <test_6+0x8>

80006c48 <test_7>:
80006c48:	00100f93          	li	t6,1
80006c4c:	00000117          	auipc	sp,0x0
80006c50:	01c10113          	add	sp,sp,28 # 80006c68 <test_7+0x20>
80006c54:	ffc109e7          	jalr	s3,-4(sp)
80006c58:	001f8f93          	add	t6,t6,1
80006c5c:	001f8f93          	add	t6,t6,1
80006c60:	001f8f93          	add	t6,t6,1
80006c64:	001f8f93          	add	t6,t6,1
80006c68:	001f8f93          	add	t6,t6,1
80006c6c:	001f8f93          	add	t6,t6,1
80006c70:	00400e93          	li	t4,4
80006c74:	00700e13          	li	t3,7
80006c78:	01df9463          	bne	t6,t4,80006c80 <fail>
80006c7c:	0100006f          	j	80006c8c <pass>

80006c80 <fail>:
80006c80:	fff00513          	li	a0,-1
80006c84:	00100073          	ebreak
80006c88:	ff9ff06f          	j	80006c80 <fail>

80006c8c <pass>:
80006c8c:	00000513          	li	a0,0
80006c90:	00008067          	ret

80006c94 <remu>:
80006c94:	01400f93          	li	t6,20
80006c98:	00600113          	li	sp,6
80006c9c:	022ff1b3          	remu	gp,t6,sp
80006ca0:	00200e93          	li	t4,2
80006ca4:	00200e13          	li	t3,2
80006ca8:	0dd19463          	bne	gp,t4,80006d70 <fail>

80006cac <test_3>:
80006cac:	fec00f93          	li	t6,-20
80006cb0:	00600113          	li	sp,6
80006cb4:	022ff1b3          	remu	gp,t6,sp
80006cb8:	00200e93          	li	t4,2
80006cbc:	00300e13          	li	t3,3
80006cc0:	0bd19863          	bne	gp,t4,80006d70 <fail>

80006cc4 <test_4>:
80006cc4:	01400f93          	li	t6,20
80006cc8:	ffa00113          	li	sp,-6
80006ccc:	022ff1b3          	remu	gp,t6,sp
80006cd0:	01400e93          	li	t4,20
80006cd4:	00400e13          	li	t3,4
80006cd8:	09d19c63          	bne	gp,t4,80006d70 <fail>

80006cdc <test_5>:
80006cdc:	fec00f93          	li	t6,-20
80006ce0:	ffa00113          	li	sp,-6
80006ce4:	022ff1b3          	remu	gp,t6,sp
80006ce8:	fec00e93          	li	t4,-20
80006cec:	00500e13          	li	t3,5
80006cf0:	09d19063          	bne	gp,t4,80006d70 <fail>

80006cf4 <test_6>:
80006cf4:	80000fb7          	lui	t6,0x80000
80006cf8:	00100113          	li	sp,1
80006cfc:	022ff1b3          	remu	gp,t6,sp
80006d00:	00000e93          	li	t4,0
80006d04:	00600e13          	li	t3,6
80006d08:	07d19463          	bne	gp,t4,80006d70 <fail>

80006d0c <test_7>:
80006d0c:	80000fb7          	lui	t6,0x80000
80006d10:	fff00113          	li	sp,-1
80006d14:	022ff1b3          	remu	gp,t6,sp
80006d18:	80000eb7          	lui	t4,0x80000
80006d1c:	00700e13          	li	t3,7
80006d20:	05d19863          	bne	gp,t4,80006d70 <fail>

80006d24 <test_8>:
80006d24:	80000fb7          	lui	t6,0x80000
80006d28:	00000113          	li	sp,0
80006d2c:	022ff1b3          	remu	gp,t6,sp
80006d30:	80000eb7          	lui	t4,0x80000
80006d34:	00800e13          	li	t3,8
80006d38:	03d19c63          	bne	gp,t4,80006d70 <fail>

80006d3c <test_9>:
80006d3c:	00100f93          	li	t6,1
80006d40:	00000113          	li	sp,0
80006d44:	022ff1b3          	remu	gp,t6,sp
80006d48:	00100e93          	li	t4,1
80006d4c:	00900e13          	li	t3,9
80006d50:	03d19063          	bne	gp,t4,80006d70 <fail>

80006d54 <test_10>:
80006d54:	00000f93          	li	t6,0
80006d58:	00000113          	li	sp,0
80006d5c:	022ff1b3          	remu	gp,t6,sp
80006d60:	00000e93          	li	t4,0
80006d64:	00a00e13          	li	t3,10
80006d68:	01d19463          	bne	gp,t4,80006d70 <fail>
80006d6c:	0100006f          	j	80006d7c <pass>

80006d70 <fail>:
80006d70:	fff00513          	li	a0,-1
80006d74:	00100073          	ebreak
80006d78:	ff9ff06f          	j	80006d70 <fail>

80006d7c <pass>:
80006d7c:	00000513          	li	a0,0
80006d80:	00008067          	ret

80006d84 <main>:
80006d84:	6c9000ef          	jal	80007c4c <add>
80006d88:	4f4020ef          	jal	8000927c <addi>
80006d8c:	e98fd0ef          	jal	80004424 <and>
80006d90:	3cd030ef          	jal	8000a95c <andi>
80006d94:	adcfc0ef          	jal	80003070 <auipc>
80006d98:	ff8f90ef          	jal	80000590 <beq>
80006d9c:	3a4010ef          	jal	80008140 <bge>
80006da0:	c99fb0ef          	jal	80002a38 <bgeu>
80006da4:	6d0010ef          	jal	80008474 <blt>
80006da8:	c29fc0ef          	jal	800039d0 <bltu>
80006dac:	f38fe0ef          	jal	800054e4 <bne>
80006db0:	928ff0ef          	jal	80005ed8 <div>
80006db4:	195010ef          	jal	80008748 <divu>
80006db8:	e18ff0ef          	jal	800063d0 <j>
80006dbc:	281010ef          	jal	8000883c <jal>
80006dc0:	dc1ff0ef          	jal	80006b80 <jalr>
80006dc4:	7c1010ef          	jal	80008d84 <lb>
80006dc8:	08c000ef          	jal	80006e54 <lbu>
80006dcc:	f6df90ef          	jal	80000d38 <lh>
80006dd0:	f09fc0ef          	jal	80003cd8 <lhu>
80006dd4:	9e9fe0ef          	jal	800057bc <lui>
80006dd8:	9e0fa0ef          	jal	80000fb8 <lw>
80006ddc:	911fa0ef          	jal	800016ec <mul>
80006de0:	738020ef          	jal	80009518 <mulh>
80006de4:	2c5010ef          	jal	800088a8 <mulhsu>
80006de8:	698030ef          	jal	8000a480 <mulhu>
80006dec:	189000ef          	jal	80007774 <or>
80006df0:	ef9fe0ef          	jal	80005ce8 <ori>
80006df4:	2c0000ef          	jal	800070b4 <rem>
80006df8:	e9dff0ef          	jal	80006c94 <remu>
80006dfc:	9ccff0ef          	jal	80005fc8 <sb>
80006e00:	c60fa0ef          	jal	80001260 <sh>
80006e04:	c54fa0ef          	jal	80001258 <simple>
80006e08:	a08f90ef          	jal	80000010 <sll>
80006e0c:	1d8020ef          	jal	80008fe4 <slli>
80006e10:	194030ef          	jal	80009fa4 <slt>
80006e14:	cc8fb0ef          	jal	800022dc <slti>
80006e18:	3dd020ef          	jal	800099f4 <sra>
80006e1c:	f85fb0ef          	jal	80002da0 <srai>
80006e20:	384000ef          	jal	800071a4 <srl>
80006e24:	dfcff0ef          	jal	80006420 <srli>
80006e28:	f3cfb0ef          	jal	80002564 <sub>
80006e2c:	8bdff0ef          	jal	800066e8 <sw>
80006e30:	a35f90ef          	jal	80000864 <xor>
80006e34:	a94fc0ef          	jal	800030c8 <xori>
80006e38:	c88fc0ef          	jal	800032c0 <csrrw>
80006e3c:	f6dfd0ef          	jal	80004da8 <csrrs>
80006e40:	d89fa0ef          	jal	80001bc8 <csrrc>
80006e44:	aadfd0ef          	jal	800048f0 <csrrwi>
80006e48:	9e9fe0ef          	jal	80005830 <csrrsi>
80006e4c:	920fd0ef          	jal	80003f6c <csrrci>

80006e50 <end_loop>:
80006e50:	00100073          	ebreak

80006e54 <lbu>:
80006e54:	00004f97          	auipc	t6,0x4
80006e58:	d78f8f93          	add	t6,t6,-648 # 8000abcc <tdat>
80006e5c:	000fc183          	lbu	gp,0(t6)
80006e60:	0ff00e93          	li	t4,255
80006e64:	00200e13          	li	t3,2
80006e68:	23d19c63          	bne	gp,t4,800070a0 <fail>

80006e6c <test_3>:
80006e6c:	00004f97          	auipc	t6,0x4
80006e70:	d60f8f93          	add	t6,t6,-672 # 8000abcc <tdat>
80006e74:	001fc183          	lbu	gp,1(t6)
80006e78:	00000e93          	li	t4,0
80006e7c:	00300e13          	li	t3,3
80006e80:	23d19063          	bne	gp,t4,800070a0 <fail>

80006e84 <test_4>:
80006e84:	00004f97          	auipc	t6,0x4
80006e88:	d48f8f93          	add	t6,t6,-696 # 8000abcc <tdat>
80006e8c:	002fc183          	lbu	gp,2(t6)
80006e90:	0f000e93          	li	t4,240
80006e94:	00400e13          	li	t3,4
80006e98:	21d19463          	bne	gp,t4,800070a0 <fail>

80006e9c <test_5>:
80006e9c:	00004f97          	auipc	t6,0x4
80006ea0:	d30f8f93          	add	t6,t6,-720 # 8000abcc <tdat>
80006ea4:	003fc183          	lbu	gp,3(t6)
80006ea8:	00f00e93          	li	t4,15
80006eac:	00500e13          	li	t3,5
80006eb0:	1fd19863          	bne	gp,t4,800070a0 <fail>

80006eb4 <test_6>:
80006eb4:	00004f97          	auipc	t6,0x4
80006eb8:	d1bf8f93          	add	t6,t6,-741 # 8000abcf <tdat4>
80006ebc:	ffdfc183          	lbu	gp,-3(t6)
80006ec0:	0ff00e93          	li	t4,255
80006ec4:	00600e13          	li	t3,6
80006ec8:	1dd19c63          	bne	gp,t4,800070a0 <fail>

80006ecc <test_7>:
80006ecc:	00004f97          	auipc	t6,0x4
80006ed0:	d03f8f93          	add	t6,t6,-765 # 8000abcf <tdat4>
80006ed4:	ffefc183          	lbu	gp,-2(t6)
80006ed8:	00000e93          	li	t4,0
80006edc:	00700e13          	li	t3,7
80006ee0:	1dd19063          	bne	gp,t4,800070a0 <fail>

80006ee4 <test_8>:
80006ee4:	00004f97          	auipc	t6,0x4
80006ee8:	cebf8f93          	add	t6,t6,-789 # 8000abcf <tdat4>
80006eec:	ffffc183          	lbu	gp,-1(t6)
80006ef0:	0f000e93          	li	t4,240
80006ef4:	00800e13          	li	t3,8
80006ef8:	1bd19463          	bne	gp,t4,800070a0 <fail>

80006efc <test_9>:
80006efc:	00004f97          	auipc	t6,0x4
80006f00:	cd3f8f93          	add	t6,t6,-813 # 8000abcf <tdat4>
80006f04:	000fc183          	lbu	gp,0(t6)
80006f08:	00f00e93          	li	t4,15
80006f0c:	00900e13          	li	t3,9
80006f10:	19d19863          	bne	gp,t4,800070a0 <fail>

80006f14 <test_10>:
80006f14:	00004f97          	auipc	t6,0x4
80006f18:	cb8f8f93          	add	t6,t6,-840 # 8000abcc <tdat>
80006f1c:	fe0f8f93          	add	t6,t6,-32
80006f20:	020fc183          	lbu	gp,32(t6)
80006f24:	0ff00e93          	li	t4,255
80006f28:	00a00e13          	li	t3,10
80006f2c:	17d19a63          	bne	gp,t4,800070a0 <fail>

80006f30 <test_11>:
80006f30:	00004f97          	auipc	t6,0x4
80006f34:	c9cf8f93          	add	t6,t6,-868 # 8000abcc <tdat>
80006f38:	ffaf8f93          	add	t6,t6,-6
80006f3c:	007fc183          	lbu	gp,7(t6)
80006f40:	00000e93          	li	t4,0
80006f44:	00b00e13          	li	t3,11
80006f48:	15d19c63          	bne	gp,t4,800070a0 <fail>

80006f4c <test_12>:
80006f4c:	00c00e13          	li	t3,12
80006f50:	00000213          	li	tp,0
80006f54:	00004f97          	auipc	t6,0x4
80006f58:	c79f8f93          	add	t6,t6,-903 # 8000abcd <tdat2>
80006f5c:	001fc183          	lbu	gp,1(t6)
80006f60:	00018313          	mv	t1,gp
80006f64:	0f000e93          	li	t4,240
80006f68:	13d31c63          	bne	t1,t4,800070a0 <fail>
80006f6c:	00120213          	add	tp,tp,1 # 1 <_entry_offset+0x1>
80006f70:	00200293          	li	t0,2
80006f74:	fe5210e3          	bne	tp,t0,80006f54 <test_12+0x8>

80006f78 <test_13>:
80006f78:	00d00e13          	li	t3,13
80006f7c:	00000213          	li	tp,0
80006f80:	00004f97          	auipc	t6,0x4
80006f84:	c4ef8f93          	add	t6,t6,-946 # 8000abce <tdat3>
80006f88:	001fc183          	lbu	gp,1(t6)
80006f8c:	00000013          	nop
80006f90:	00018313          	mv	t1,gp
80006f94:	00f00e93          	li	t4,15
80006f98:	11d31463          	bne	t1,t4,800070a0 <fail>
80006f9c:	00120213          	add	tp,tp,1 # 1 <_entry_offset+0x1>
80006fa0:	00200293          	li	t0,2
80006fa4:	fc521ee3          	bne	tp,t0,80006f80 <test_13+0x8>

80006fa8 <test_14>:
80006fa8:	00e00e13          	li	t3,14
80006fac:	00000213          	li	tp,0
80006fb0:	00004f97          	auipc	t6,0x4
80006fb4:	c1cf8f93          	add	t6,t6,-996 # 8000abcc <tdat>
80006fb8:	001fc183          	lbu	gp,1(t6)
80006fbc:	00000013          	nop
80006fc0:	00000013          	nop
80006fc4:	00018313          	mv	t1,gp
80006fc8:	00000e93          	li	t4,0
80006fcc:	0dd31a63          	bne	t1,t4,800070a0 <fail>
80006fd0:	00120213          	add	tp,tp,1 # 1 <_entry_offset+0x1>
80006fd4:	00200293          	li	t0,2
80006fd8:	fc521ce3          	bne	tp,t0,80006fb0 <test_14+0x8>

80006fdc <test_15>:
80006fdc:	00f00e13          	li	t3,15
80006fe0:	00000213          	li	tp,0
80006fe4:	00004f97          	auipc	t6,0x4
80006fe8:	be9f8f93          	add	t6,t6,-1047 # 8000abcd <tdat2>
80006fec:	001fc183          	lbu	gp,1(t6)
80006ff0:	0f000e93          	li	t4,240
80006ff4:	0bd19663          	bne	gp,t4,800070a0 <fail>
80006ff8:	00120213          	add	tp,tp,1 # 1 <_entry_offset+0x1>
80006ffc:	00200293          	li	t0,2
80007000:	fe5212e3          	bne	tp,t0,80006fe4 <test_15+0x8>

80007004 <test_16>:
80007004:	01000e13          	li	t3,16
80007008:	00000213          	li	tp,0
8000700c:	00004f97          	auipc	t6,0x4
80007010:	bc2f8f93          	add	t6,t6,-1086 # 8000abce <tdat3>
80007014:	00000013          	nop
80007018:	001fc183          	lbu	gp,1(t6)
8000701c:	00f00e93          	li	t4,15
80007020:	09d19063          	bne	gp,t4,800070a0 <fail>
80007024:	00120213          	add	tp,tp,1 # 1 <_entry_offset+0x1>
80007028:	00200293          	li	t0,2
8000702c:	fe5210e3          	bne	tp,t0,8000700c <test_16+0x8>

80007030 <test_17>:
80007030:	01100e13          	li	t3,17
80007034:	00000213          	li	tp,0
80007038:	00004f97          	auipc	t6,0x4
8000703c:	b94f8f93          	add	t6,t6,-1132 # 8000abcc <tdat>
80007040:	00000013          	nop
80007044:	00000013          	nop
80007048:	001fc183          	lbu	gp,1(t6)
8000704c:	00000e93          	li	t4,0
80007050:	05d19863          	bne	gp,t4,800070a0 <fail>
80007054:	00120213          	add	tp,tp,1 # 1 <_entry_offset+0x1>
80007058:	00200293          	li	t0,2
8000705c:	fc521ee3          	bne	tp,t0,80007038 <test_17+0x8>

80007060 <test_18>:
80007060:	00004197          	auipc	gp,0x4
80007064:	b6c18193          	add	gp,gp,-1172 # 8000abcc <tdat>
80007068:	0001c103          	lbu	sp,0(gp)
8000706c:	00200113          	li	sp,2
80007070:	00200e93          	li	t4,2
80007074:	01200e13          	li	t3,18
80007078:	03d11463          	bne	sp,t4,800070a0 <fail>

8000707c <test_19>:
8000707c:	00004197          	auipc	gp,0x4
80007080:	b5018193          	add	gp,gp,-1200 # 8000abcc <tdat>
80007084:	0001c103          	lbu	sp,0(gp)
80007088:	00000013          	nop
8000708c:	00200113          	li	sp,2
80007090:	00200e93          	li	t4,2
80007094:	01300e13          	li	t3,19
80007098:	01d11463          	bne	sp,t4,800070a0 <fail>
8000709c:	0100006f          	j	800070ac <pass>

800070a0 <fail>:
800070a0:	fff00513          	li	a0,-1
800070a4:	00100073          	ebreak
800070a8:	ff9ff06f          	j	800070a0 <fail>

800070ac <pass>:
800070ac:	00000513          	li	a0,0
800070b0:	00008067          	ret

800070b4 <rem>:
800070b4:	01400f93          	li	t6,20
800070b8:	00600113          	li	sp,6
800070bc:	022fe1b3          	rem	gp,t6,sp
800070c0:	00200e93          	li	t4,2
800070c4:	00200e13          	li	t3,2
800070c8:	0dd19463          	bne	gp,t4,80007190 <fail>

800070cc <test_3>:
800070cc:	fec00f93          	li	t6,-20
800070d0:	00600113          	li	sp,6
800070d4:	022fe1b3          	rem	gp,t6,sp
800070d8:	ffe00e93          	li	t4,-2
800070dc:	00300e13          	li	t3,3
800070e0:	0bd19863          	bne	gp,t4,80007190 <fail>

800070e4 <test_4>:
800070e4:	01400f93          	li	t6,20
800070e8:	ffa00113          	li	sp,-6
800070ec:	022fe1b3          	rem	gp,t6,sp
800070f0:	00200e93          	li	t4,2
800070f4:	00400e13          	li	t3,4
800070f8:	09d19c63          	bne	gp,t4,80007190 <fail>

800070fc <test_5>:
800070fc:	fec00f93          	li	t6,-20
80007100:	ffa00113          	li	sp,-6
80007104:	022fe1b3          	rem	gp,t6,sp
80007108:	ffe00e93          	li	t4,-2
8000710c:	00500e13          	li	t3,5
80007110:	09d19063          	bne	gp,t4,80007190 <fail>

80007114 <test_6>:
80007114:	80000fb7          	lui	t6,0x80000
80007118:	00100113          	li	sp,1
8000711c:	022fe1b3          	rem	gp,t6,sp
80007120:	00000e93          	li	t4,0
80007124:	00600e13          	li	t3,6
80007128:	07d19463          	bne	gp,t4,80007190 <fail>

8000712c <test_7>:
8000712c:	80000fb7          	lui	t6,0x80000
80007130:	fff00113          	li	sp,-1
80007134:	022fe1b3          	rem	gp,t6,sp
80007138:	00000e93          	li	t4,0
8000713c:	00700e13          	li	t3,7
80007140:	05d19863          	bne	gp,t4,80007190 <fail>

80007144 <test_8>:
80007144:	80000fb7          	lui	t6,0x80000
80007148:	00000113          	li	sp,0
8000714c:	022fe1b3          	rem	gp,t6,sp
80007150:	80000eb7          	lui	t4,0x80000
80007154:	00800e13          	li	t3,8
80007158:	03d19c63          	bne	gp,t4,80007190 <fail>

8000715c <test_9>:
8000715c:	00100f93          	li	t6,1
80007160:	00000113          	li	sp,0
80007164:	022fe1b3          	rem	gp,t6,sp
80007168:	00100e93          	li	t4,1
8000716c:	00900e13          	li	t3,9
80007170:	03d19063          	bne	gp,t4,80007190 <fail>

80007174 <test_10>:
80007174:	00000f93          	li	t6,0
80007178:	00000113          	li	sp,0
8000717c:	022fe1b3          	rem	gp,t6,sp
80007180:	00000e93          	li	t4,0
80007184:	00a00e13          	li	t3,10
80007188:	01d19463          	bne	gp,t4,80007190 <fail>
8000718c:	0100006f          	j	8000719c <pass>

80007190 <fail>:
80007190:	fff00513          	li	a0,-1
80007194:	00100073          	ebreak
80007198:	ff9ff06f          	j	80007190 <fail>

8000719c <pass>:
8000719c:	00000513          	li	a0,0
800071a0:	00008067          	ret

800071a4 <srl>:
800071a4:	ffff8fb7          	lui	t6,0xffff8
800071a8:	00000113          	li	sp,0
800071ac:	002fd1b3          	srl	gp,t6,sp
800071b0:	ffff8eb7          	lui	t4,0xffff8
800071b4:	00200e13          	li	t3,2
800071b8:	5bd19463          	bne	gp,t4,80007760 <fail>

800071bc <test_3>:
800071bc:	ffff8fb7          	lui	t6,0xffff8
800071c0:	00100113          	li	sp,1
800071c4:	002fd1b3          	srl	gp,t6,sp
800071c8:	7fffceb7          	lui	t4,0x7fffc
800071cc:	00300e13          	li	t3,3
800071d0:	59d19863          	bne	gp,t4,80007760 <fail>

800071d4 <test_4>:
800071d4:	ffff8fb7          	lui	t6,0xffff8
800071d8:	00700113          	li	sp,7
800071dc:	002fd1b3          	srl	gp,t6,sp
800071e0:	02000eb7          	lui	t4,0x2000
800071e4:	f00e8e93          	add	t4,t4,-256 # 1ffff00 <_entry_offset+0x1ffff00>
800071e8:	00400e13          	li	t3,4
800071ec:	57d19a63          	bne	gp,t4,80007760 <fail>

800071f0 <test_5>:
800071f0:	ffff8fb7          	lui	t6,0xffff8
800071f4:	00e00113          	li	sp,14
800071f8:	002fd1b3          	srl	gp,t6,sp
800071fc:	00040eb7          	lui	t4,0x40
80007200:	ffee8e93          	add	t4,t4,-2 # 3fffe <_entry_offset+0x3fffe>
80007204:	00500e13          	li	t3,5
80007208:	55d19c63          	bne	gp,t4,80007760 <fail>

8000720c <test_6>:
8000720c:	ffff8fb7          	lui	t6,0xffff8
80007210:	001f8f93          	add	t6,t6,1 # ffff8001 <_end+0x7ffe5001>
80007214:	00f00113          	li	sp,15
80007218:	002fd1b3          	srl	gp,t6,sp
8000721c:	00020eb7          	lui	t4,0x20
80007220:	fffe8e93          	add	t4,t4,-1 # 1ffff <_entry_offset+0x1ffff>
80007224:	00600e13          	li	t3,6
80007228:	53d19c63          	bne	gp,t4,80007760 <fail>

8000722c <test_7>:
8000722c:	fff00f93          	li	t6,-1
80007230:	00000113          	li	sp,0
80007234:	002fd1b3          	srl	gp,t6,sp
80007238:	fff00e93          	li	t4,-1
8000723c:	00700e13          	li	t3,7
80007240:	53d19063          	bne	gp,t4,80007760 <fail>

80007244 <test_8>:
80007244:	fff00f93          	li	t6,-1
80007248:	00100113          	li	sp,1
8000724c:	002fd1b3          	srl	gp,t6,sp
80007250:	80000eb7          	lui	t4,0x80000
80007254:	fffe8e93          	add	t4,t4,-1 # 7fffffff <_entry_offset+0x7fffffff>
80007258:	00800e13          	li	t3,8
8000725c:	51d19263          	bne	gp,t4,80007760 <fail>

80007260 <test_9>:
80007260:	fff00f93          	li	t6,-1
80007264:	00700113          	li	sp,7
80007268:	002fd1b3          	srl	gp,t6,sp
8000726c:	02000eb7          	lui	t4,0x2000
80007270:	fffe8e93          	add	t4,t4,-1 # 1ffffff <_entry_offset+0x1ffffff>
80007274:	00900e13          	li	t3,9
80007278:	4fd19463          	bne	gp,t4,80007760 <fail>

8000727c <test_10>:
8000727c:	fff00f93          	li	t6,-1
80007280:	00e00113          	li	sp,14
80007284:	002fd1b3          	srl	gp,t6,sp
80007288:	00040eb7          	lui	t4,0x40
8000728c:	fffe8e93          	add	t4,t4,-1 # 3ffff <_entry_offset+0x3ffff>
80007290:	00a00e13          	li	t3,10
80007294:	4dd19663          	bne	gp,t4,80007760 <fail>

80007298 <test_11>:
80007298:	fff00f93          	li	t6,-1
8000729c:	01f00113          	li	sp,31
800072a0:	002fd1b3          	srl	gp,t6,sp
800072a4:	00100e93          	li	t4,1
800072a8:	00b00e13          	li	t3,11
800072ac:	4bd19a63          	bne	gp,t4,80007760 <fail>

800072b0 <test_12>:
800072b0:	21212fb7          	lui	t6,0x21212
800072b4:	121f8f93          	add	t6,t6,289 # 21212121 <_entry_offset+0x21212121>
800072b8:	00000113          	li	sp,0
800072bc:	002fd1b3          	srl	gp,t6,sp
800072c0:	21212eb7          	lui	t4,0x21212
800072c4:	121e8e93          	add	t4,t4,289 # 21212121 <_entry_offset+0x21212121>
800072c8:	00c00e13          	li	t3,12
800072cc:	49d19a63          	bne	gp,t4,80007760 <fail>

800072d0 <test_13>:
800072d0:	21212fb7          	lui	t6,0x21212
800072d4:	121f8f93          	add	t6,t6,289 # 21212121 <_entry_offset+0x21212121>
800072d8:	00100113          	li	sp,1
800072dc:	002fd1b3          	srl	gp,t6,sp
800072e0:	10909eb7          	lui	t4,0x10909
800072e4:	090e8e93          	add	t4,t4,144 # 10909090 <_entry_offset+0x10909090>
800072e8:	00d00e13          	li	t3,13
800072ec:	47d19a63          	bne	gp,t4,80007760 <fail>

800072f0 <test_14>:
800072f0:	21212fb7          	lui	t6,0x21212
800072f4:	121f8f93          	add	t6,t6,289 # 21212121 <_entry_offset+0x21212121>
800072f8:	00700113          	li	sp,7
800072fc:	002fd1b3          	srl	gp,t6,sp
80007300:	00424eb7          	lui	t4,0x424
80007304:	242e8e93          	add	t4,t4,578 # 424242 <_entry_offset+0x424242>
80007308:	00e00e13          	li	t3,14
8000730c:	45d19a63          	bne	gp,t4,80007760 <fail>

80007310 <test_15>:
80007310:	21212fb7          	lui	t6,0x21212
80007314:	121f8f93          	add	t6,t6,289 # 21212121 <_entry_offset+0x21212121>
80007318:	00e00113          	li	sp,14
8000731c:	002fd1b3          	srl	gp,t6,sp
80007320:	00008eb7          	lui	t4,0x8
80007324:	484e8e93          	add	t4,t4,1156 # 8484 <_entry_offset+0x8484>
80007328:	00f00e13          	li	t3,15
8000732c:	43d19a63          	bne	gp,t4,80007760 <fail>

80007330 <test_16>:
80007330:	21212fb7          	lui	t6,0x21212
80007334:	121f8f93          	add	t6,t6,289 # 21212121 <_entry_offset+0x21212121>
80007338:	01f00113          	li	sp,31
8000733c:	002fd1b3          	srl	gp,t6,sp
80007340:	00000e93          	li	t4,0
80007344:	01000e13          	li	t3,16
80007348:	41d19c63          	bne	gp,t4,80007760 <fail>

8000734c <test_17>:
8000734c:	21212fb7          	lui	t6,0x21212
80007350:	121f8f93          	add	t6,t6,289 # 21212121 <_entry_offset+0x21212121>
80007354:	fe000113          	li	sp,-32
80007358:	002fd1b3          	srl	gp,t6,sp
8000735c:	21212eb7          	lui	t4,0x21212
80007360:	121e8e93          	add	t4,t4,289 # 21212121 <_entry_offset+0x21212121>
80007364:	01100e13          	li	t3,17
80007368:	3fd19c63          	bne	gp,t4,80007760 <fail>

8000736c <test_18>:
8000736c:	21212fb7          	lui	t6,0x21212
80007370:	121f8f93          	add	t6,t6,289 # 21212121 <_entry_offset+0x21212121>
80007374:	fe100113          	li	sp,-31
80007378:	002fd1b3          	srl	gp,t6,sp
8000737c:	10909eb7          	lui	t4,0x10909
80007380:	090e8e93          	add	t4,t4,144 # 10909090 <_entry_offset+0x10909090>
80007384:	01200e13          	li	t3,18
80007388:	3dd19c63          	bne	gp,t4,80007760 <fail>

8000738c <test_19>:
8000738c:	21212fb7          	lui	t6,0x21212
80007390:	121f8f93          	add	t6,t6,289 # 21212121 <_entry_offset+0x21212121>
80007394:	fe700113          	li	sp,-25
80007398:	002fd1b3          	srl	gp,t6,sp
8000739c:	00424eb7          	lui	t4,0x424
800073a0:	242e8e93          	add	t4,t4,578 # 424242 <_entry_offset+0x424242>
800073a4:	01300e13          	li	t3,19
800073a8:	3bd19c63          	bne	gp,t4,80007760 <fail>

800073ac <test_20>:
800073ac:	21212fb7          	lui	t6,0x21212
800073b0:	121f8f93          	add	t6,t6,289 # 21212121 <_entry_offset+0x21212121>
800073b4:	fee00113          	li	sp,-18
800073b8:	002fd1b3          	srl	gp,t6,sp
800073bc:	00008eb7          	lui	t4,0x8
800073c0:	484e8e93          	add	t4,t4,1156 # 8484 <_entry_offset+0x8484>
800073c4:	01400e13          	li	t3,20
800073c8:	39d19c63          	bne	gp,t4,80007760 <fail>

800073cc <test_21>:
800073cc:	21212fb7          	lui	t6,0x21212
800073d0:	121f8f93          	add	t6,t6,289 # 21212121 <_entry_offset+0x21212121>
800073d4:	fff00113          	li	sp,-1
800073d8:	002fd1b3          	srl	gp,t6,sp
800073dc:	00000e93          	li	t4,0
800073e0:	01500e13          	li	t3,21
800073e4:	37d19e63          	bne	gp,t4,80007760 <fail>

800073e8 <test_22>:
800073e8:	ffff8fb7          	lui	t6,0xffff8
800073ec:	00100113          	li	sp,1
800073f0:	002fdfb3          	srl	t6,t6,sp
800073f4:	7fffceb7          	lui	t4,0x7fffc
800073f8:	01600e13          	li	t3,22
800073fc:	37df9263          	bne	t6,t4,80007760 <fail>

80007400 <test_23>:
80007400:	ffff8fb7          	lui	t6,0xffff8
80007404:	00e00113          	li	sp,14
80007408:	002fd133          	srl	sp,t6,sp
8000740c:	00040eb7          	lui	t4,0x40
80007410:	ffee8e93          	add	t4,t4,-2 # 3fffe <_entry_offset+0x3fffe>
80007414:	01700e13          	li	t3,23
80007418:	35d11463          	bne	sp,t4,80007760 <fail>

8000741c <test_24>:
8000741c:	00700f93          	li	t6,7
80007420:	01ffdfb3          	srl	t6,t6,t6
80007424:	00000e93          	li	t4,0
80007428:	01800e13          	li	t3,24
8000742c:	33df9a63          	bne	t6,t4,80007760 <fail>

80007430 <test_25>:
80007430:	00000213          	li	tp,0
80007434:	ffff8fb7          	lui	t6,0xffff8
80007438:	00100113          	li	sp,1
8000743c:	002fd1b3          	srl	gp,t6,sp
80007440:	00018313          	mv	t1,gp
80007444:	00120213          	add	tp,tp,1 # 1 <_entry_offset+0x1>
80007448:	00200293          	li	t0,2
8000744c:	fe5214e3          	bne	tp,t0,80007434 <test_25+0x4>
80007450:	7fffceb7          	lui	t4,0x7fffc
80007454:	01900e13          	li	t3,25
80007458:	31d31463          	bne	t1,t4,80007760 <fail>

8000745c <test_26>:
8000745c:	00000213          	li	tp,0
80007460:	ffff8fb7          	lui	t6,0xffff8
80007464:	00e00113          	li	sp,14
80007468:	002fd1b3          	srl	gp,t6,sp
8000746c:	00000013          	nop
80007470:	00018313          	mv	t1,gp
80007474:	00120213          	add	tp,tp,1 # 1 <_entry_offset+0x1>
80007478:	00200293          	li	t0,2
8000747c:	fe5212e3          	bne	tp,t0,80007460 <test_26+0x4>
80007480:	00040eb7          	lui	t4,0x40
80007484:	ffee8e93          	add	t4,t4,-2 # 3fffe <_entry_offset+0x3fffe>
80007488:	01a00e13          	li	t3,26
8000748c:	2dd31a63          	bne	t1,t4,80007760 <fail>

80007490 <test_27>:
80007490:	00000213          	li	tp,0
80007494:	ffff8fb7          	lui	t6,0xffff8
80007498:	00f00113          	li	sp,15
8000749c:	002fd1b3          	srl	gp,t6,sp
800074a0:	00000013          	nop
800074a4:	00000013          	nop
800074a8:	00018313          	mv	t1,gp
800074ac:	00120213          	add	tp,tp,1 # 1 <_entry_offset+0x1>
800074b0:	00200293          	li	t0,2
800074b4:	fe5210e3          	bne	tp,t0,80007494 <test_27+0x4>
800074b8:	00020eb7          	lui	t4,0x20
800074bc:	fffe8e93          	add	t4,t4,-1 # 1ffff <_entry_offset+0x1ffff>
800074c0:	01b00e13          	li	t3,27
800074c4:	29d31e63          	bne	t1,t4,80007760 <fail>

800074c8 <test_28>:
800074c8:	00000213          	li	tp,0
800074cc:	ffff8fb7          	lui	t6,0xffff8
800074d0:	00100113          	li	sp,1
800074d4:	002fd1b3          	srl	gp,t6,sp
800074d8:	00120213          	add	tp,tp,1 # 1 <_entry_offset+0x1>
800074dc:	00200293          	li	t0,2
800074e0:	fe5216e3          	bne	tp,t0,800074cc <test_28+0x4>
800074e4:	7fffceb7          	lui	t4,0x7fffc
800074e8:	01c00e13          	li	t3,28
800074ec:	27d19a63          	bne	gp,t4,80007760 <fail>

800074f0 <test_29>:
800074f0:	00000213          	li	tp,0
800074f4:	ffff8fb7          	lui	t6,0xffff8
800074f8:	00700113          	li	sp,7
800074fc:	00000013          	nop
80007500:	002fd1b3          	srl	gp,t6,sp
80007504:	00120213          	add	tp,tp,1 # 1 <_entry_offset+0x1>
80007508:	00200293          	li	t0,2
8000750c:	fe5214e3          	bne	tp,t0,800074f4 <test_29+0x4>
80007510:	02000eb7          	lui	t4,0x2000
80007514:	f00e8e93          	add	t4,t4,-256 # 1ffff00 <_entry_offset+0x1ffff00>
80007518:	01d00e13          	li	t3,29
8000751c:	25d19263          	bne	gp,t4,80007760 <fail>

80007520 <test_30>:
80007520:	00000213          	li	tp,0
80007524:	ffff8fb7          	lui	t6,0xffff8
80007528:	00f00113          	li	sp,15
8000752c:	00000013          	nop
80007530:	00000013          	nop
80007534:	002fd1b3          	srl	gp,t6,sp
80007538:	00120213          	add	tp,tp,1 # 1 <_entry_offset+0x1>
8000753c:	00200293          	li	t0,2
80007540:	fe5212e3          	bne	tp,t0,80007524 <test_30+0x4>
80007544:	00020eb7          	lui	t4,0x20
80007548:	fffe8e93          	add	t4,t4,-1 # 1ffff <_entry_offset+0x1ffff>
8000754c:	01e00e13          	li	t3,30
80007550:	21d19863          	bne	gp,t4,80007760 <fail>

80007554 <test_31>:
80007554:	00000213          	li	tp,0
80007558:	ffff8fb7          	lui	t6,0xffff8
8000755c:	00000013          	nop
80007560:	00100113          	li	sp,1
80007564:	002fd1b3          	srl	gp,t6,sp
80007568:	00120213          	add	tp,tp,1 # 1 <_entry_offset+0x1>
8000756c:	00200293          	li	t0,2
80007570:	fe5214e3          	bne	tp,t0,80007558 <test_31+0x4>
80007574:	7fffceb7          	lui	t4,0x7fffc
80007578:	01f00e13          	li	t3,31
8000757c:	1fd19263          	bne	gp,t4,80007760 <fail>

80007580 <test_32>:
80007580:	00000213          	li	tp,0
80007584:	ffff8fb7          	lui	t6,0xffff8
80007588:	00000013          	nop
8000758c:	00700113          	li	sp,7
80007590:	00000013          	nop
80007594:	002fd1b3          	srl	gp,t6,sp
80007598:	00120213          	add	tp,tp,1 # 1 <_entry_offset+0x1>
8000759c:	00200293          	li	t0,2
800075a0:	fe5212e3          	bne	tp,t0,80007584 <test_32+0x4>
800075a4:	02000eb7          	lui	t4,0x2000
800075a8:	f00e8e93          	add	t4,t4,-256 # 1ffff00 <_entry_offset+0x1ffff00>
800075ac:	02000e13          	li	t3,32
800075b0:	1bd19863          	bne	gp,t4,80007760 <fail>

800075b4 <test_33>:
800075b4:	00000213          	li	tp,0
800075b8:	ffff8fb7          	lui	t6,0xffff8
800075bc:	00000013          	nop
800075c0:	00000013          	nop
800075c4:	00f00113          	li	sp,15
800075c8:	002fd1b3          	srl	gp,t6,sp
800075cc:	00120213          	add	tp,tp,1 # 1 <_entry_offset+0x1>
800075d0:	00200293          	li	t0,2
800075d4:	fe5212e3          	bne	tp,t0,800075b8 <test_33+0x4>
800075d8:	00020eb7          	lui	t4,0x20
800075dc:	fffe8e93          	add	t4,t4,-1 # 1ffff <_entry_offset+0x1ffff>
800075e0:	02100e13          	li	t3,33
800075e4:	17d19e63          	bne	gp,t4,80007760 <fail>

800075e8 <test_34>:
800075e8:	00000213          	li	tp,0
800075ec:	00100113          	li	sp,1
800075f0:	ffff8fb7          	lui	t6,0xffff8
800075f4:	002fd1b3          	srl	gp,t6,sp
800075f8:	00120213          	add	tp,tp,1 # 1 <_entry_offset+0x1>
800075fc:	00200293          	li	t0,2
80007600:	fe5216e3          	bne	tp,t0,800075ec <test_34+0x4>
80007604:	7fffceb7          	lui	t4,0x7fffc
80007608:	02200e13          	li	t3,34
8000760c:	15d19a63          	bne	gp,t4,80007760 <fail>

80007610 <test_35>:
80007610:	00000213          	li	tp,0
80007614:	00700113          	li	sp,7
80007618:	ffff8fb7          	lui	t6,0xffff8
8000761c:	00000013          	nop
80007620:	002fd1b3          	srl	gp,t6,sp
80007624:	00120213          	add	tp,tp,1 # 1 <_entry_offset+0x1>
80007628:	00200293          	li	t0,2
8000762c:	fe5214e3          	bne	tp,t0,80007614 <test_35+0x4>
80007630:	02000eb7          	lui	t4,0x2000
80007634:	f00e8e93          	add	t4,t4,-256 # 1ffff00 <_entry_offset+0x1ffff00>
80007638:	02300e13          	li	t3,35
8000763c:	13d19263          	bne	gp,t4,80007760 <fail>

80007640 <test_36>:
80007640:	00000213          	li	tp,0
80007644:	00f00113          	li	sp,15
80007648:	ffff8fb7          	lui	t6,0xffff8
8000764c:	00000013          	nop
80007650:	00000013          	nop
80007654:	002fd1b3          	srl	gp,t6,sp
80007658:	00120213          	add	tp,tp,1 # 1 <_entry_offset+0x1>
8000765c:	00200293          	li	t0,2
80007660:	fe5212e3          	bne	tp,t0,80007644 <test_36+0x4>
80007664:	00020eb7          	lui	t4,0x20
80007668:	fffe8e93          	add	t4,t4,-1 # 1ffff <_entry_offset+0x1ffff>
8000766c:	02400e13          	li	t3,36
80007670:	0fd19863          	bne	gp,t4,80007760 <fail>

80007674 <test_37>:
80007674:	00000213          	li	tp,0
80007678:	00100113          	li	sp,1
8000767c:	00000013          	nop
80007680:	ffff8fb7          	lui	t6,0xffff8
80007684:	002fd1b3          	srl	gp,t6,sp
80007688:	00120213          	add	tp,tp,1 # 1 <_entry_offset+0x1>
8000768c:	00200293          	li	t0,2
80007690:	fe5214e3          	bne	tp,t0,80007678 <test_37+0x4>
80007694:	7fffceb7          	lui	t4,0x7fffc
80007698:	02500e13          	li	t3,37
8000769c:	0dd19263          	bne	gp,t4,80007760 <fail>

800076a0 <test_38>:
800076a0:	00000213          	li	tp,0
800076a4:	00700113          	li	sp,7
800076a8:	00000013          	nop
800076ac:	ffff8fb7          	lui	t6,0xffff8
800076b0:	00000013          	nop
800076b4:	002fd1b3          	srl	gp,t6,sp
800076b8:	00120213          	add	tp,tp,1 # 1 <_entry_offset+0x1>
800076bc:	00200293          	li	t0,2
800076c0:	fe5212e3          	bne	tp,t0,800076a4 <test_38+0x4>
800076c4:	02000eb7          	lui	t4,0x2000
800076c8:	f00e8e93          	add	t4,t4,-256 # 1ffff00 <_entry_offset+0x1ffff00>
800076cc:	02600e13          	li	t3,38
800076d0:	09d19863          	bne	gp,t4,80007760 <fail>

800076d4 <test_39>:
800076d4:	00000213          	li	tp,0
800076d8:	00f00113          	li	sp,15
800076dc:	00000013          	nop
800076e0:	00000013          	nop
800076e4:	ffff8fb7          	lui	t6,0xffff8
800076e8:	002fd1b3          	srl	gp,t6,sp
800076ec:	00120213          	add	tp,tp,1 # 1 <_entry_offset+0x1>
800076f0:	00200293          	li	t0,2
800076f4:	fe5212e3          	bne	tp,t0,800076d8 <test_39+0x4>
800076f8:	00020eb7          	lui	t4,0x20
800076fc:	fffe8e93          	add	t4,t4,-1 # 1ffff <_entry_offset+0x1ffff>
80007700:	02700e13          	li	t3,39
80007704:	05d19e63          	bne	gp,t4,80007760 <fail>

80007708 <test_40>:
80007708:	00f00f93          	li	t6,15
8000770c:	01f05133          	srl	sp,zero,t6
80007710:	00000e93          	li	t4,0
80007714:	02800e13          	li	t3,40
80007718:	05d11463          	bne	sp,t4,80007760 <fail>

8000771c <test_41>:
8000771c:	02000f93          	li	t6,32
80007720:	000fd133          	srl	sp,t6,zero
80007724:	02000e93          	li	t4,32
80007728:	02900e13          	li	t3,41
8000772c:	03d11a63          	bne	sp,t4,80007760 <fail>

80007730 <test_42>:
80007730:	00005fb3          	srl	t6,zero,zero
80007734:	00000e93          	li	t4,0
80007738:	02a00e13          	li	t3,42
8000773c:	03df9263          	bne	t6,t4,80007760 <fail>

80007740 <test_43>:
80007740:	40000f93          	li	t6,1024
80007744:	00001137          	lui	sp,0x1
80007748:	80010113          	add	sp,sp,-2048 # 800 <_entry_offset+0x800>
8000774c:	002fd033          	srl	zero,t6,sp
80007750:	00000e93          	li	t4,0
80007754:	02b00e13          	li	t3,43
80007758:	01d01463          	bne	zero,t4,80007760 <fail>
8000775c:	0100006f          	j	8000776c <pass>

80007760 <fail>:
80007760:	fff00513          	li	a0,-1
80007764:	00100073          	ebreak
80007768:	ff9ff06f          	j	80007760 <fail>

8000776c <pass>:
8000776c:	00000513          	li	a0,0
80007770:	00008067          	ret

80007774 <or>:
80007774:	ff010fb7          	lui	t6,0xff010
80007778:	f00f8f93          	add	t6,t6,-256 # ff00ff00 <_end+0x7effcf00>
8000777c:	0f0f1137          	lui	sp,0xf0f1
80007780:	f0f10113          	add	sp,sp,-241 # f0f0f0f <_entry_offset+0xf0f0f0f>
80007784:	002fe1b3          	or	gp,t6,sp
80007788:	ff100eb7          	lui	t4,0xff100
8000778c:	f0fe8e93          	add	t4,t4,-241 # ff0fff0f <_end+0x7f0ecf0f>
80007790:	00200e13          	li	t3,2
80007794:	4bd19263          	bne	gp,t4,80007c38 <fail>

80007798 <test_3>:
80007798:	0ff01fb7          	lui	t6,0xff01
8000779c:	ff0f8f93          	add	t6,t6,-16 # ff00ff0 <_entry_offset+0xff00ff0>
800077a0:	f0f0f137          	lui	sp,0xf0f0f
800077a4:	0f010113          	add	sp,sp,240 # f0f0f0f0 <_end+0x70efc0f0>
800077a8:	002fe1b3          	or	gp,t6,sp
800077ac:	fff10eb7          	lui	t4,0xfff10
800077b0:	ff0e8e93          	add	t4,t4,-16 # fff0fff0 <_end+0x7fefcff0>
800077b4:	00300e13          	li	t3,3
800077b8:	49d19063          	bne	gp,t4,80007c38 <fail>

800077bc <test_4>:
800077bc:	00ff0fb7          	lui	t6,0xff0
800077c0:	0fff8f93          	add	t6,t6,255 # ff00ff <_entry_offset+0xff00ff>
800077c4:	0f0f1137          	lui	sp,0xf0f1
800077c8:	f0f10113          	add	sp,sp,-241 # f0f0f0f <_entry_offset+0xf0f0f0f>
800077cc:	002fe1b3          	or	gp,t6,sp
800077d0:	0fff1eb7          	lui	t4,0xfff1
800077d4:	fffe8e93          	add	t4,t4,-1 # fff0fff <_entry_offset+0xfff0fff>
800077d8:	00400e13          	li	t3,4
800077dc:	45d19e63          	bne	gp,t4,80007c38 <fail>

800077e0 <test_5>:
800077e0:	f00fffb7          	lui	t6,0xf00ff
800077e4:	00ff8f93          	add	t6,t6,15 # f00ff00f <_end+0x700ec00f>
800077e8:	f0f0f137          	lui	sp,0xf0f0f
800077ec:	0f010113          	add	sp,sp,240 # f0f0f0f0 <_end+0x70efc0f0>
800077f0:	002fe1b3          	or	gp,t6,sp
800077f4:	f0fffeb7          	lui	t4,0xf0fff
800077f8:	0ffe8e93          	add	t4,t4,255 # f0fff0ff <_end+0x70fec0ff>
800077fc:	00500e13          	li	t3,5
80007800:	43d19c63          	bne	gp,t4,80007c38 <fail>

80007804 <test_6>:
80007804:	ff010fb7          	lui	t6,0xff010
80007808:	f00f8f93          	add	t6,t6,-256 # ff00ff00 <_end+0x7effcf00>
8000780c:	0f0f1137          	lui	sp,0xf0f1
80007810:	f0f10113          	add	sp,sp,-241 # f0f0f0f <_entry_offset+0xf0f0f0f>
80007814:	002fefb3          	or	t6,t6,sp
80007818:	ff100eb7          	lui	t4,0xff100
8000781c:	f0fe8e93          	add	t4,t4,-241 # ff0fff0f <_end+0x7f0ecf0f>
80007820:	00600e13          	li	t3,6
80007824:	41df9a63          	bne	t6,t4,80007c38 <fail>

80007828 <test_7>:
80007828:	ff010fb7          	lui	t6,0xff010
8000782c:	f00f8f93          	add	t6,t6,-256 # ff00ff00 <_end+0x7effcf00>
80007830:	0f0f1137          	lui	sp,0xf0f1
80007834:	f0f10113          	add	sp,sp,-241 # f0f0f0f <_entry_offset+0xf0f0f0f>
80007838:	002fe133          	or	sp,t6,sp
8000783c:	ff100eb7          	lui	t4,0xff100
80007840:	f0fe8e93          	add	t4,t4,-241 # ff0fff0f <_end+0x7f0ecf0f>
80007844:	00700e13          	li	t3,7
80007848:	3fd11863          	bne	sp,t4,80007c38 <fail>

8000784c <test_8>:
8000784c:	ff010fb7          	lui	t6,0xff010
80007850:	f00f8f93          	add	t6,t6,-256 # ff00ff00 <_end+0x7effcf00>
80007854:	01ffefb3          	or	t6,t6,t6
80007858:	ff010eb7          	lui	t4,0xff010
8000785c:	f00e8e93          	add	t4,t4,-256 # ff00ff00 <_end+0x7effcf00>
80007860:	00800e13          	li	t3,8
80007864:	3ddf9a63          	bne	t6,t4,80007c38 <fail>

80007868 <test_9>:
80007868:	00000213          	li	tp,0
8000786c:	ff010fb7          	lui	t6,0xff010
80007870:	f00f8f93          	add	t6,t6,-256 # ff00ff00 <_end+0x7effcf00>
80007874:	0f0f1137          	lui	sp,0xf0f1
80007878:	f0f10113          	add	sp,sp,-241 # f0f0f0f <_entry_offset+0xf0f0f0f>
8000787c:	002fe1b3          	or	gp,t6,sp
80007880:	00018313          	mv	t1,gp
80007884:	00120213          	add	tp,tp,1 # 1 <_entry_offset+0x1>
80007888:	00200293          	li	t0,2
8000788c:	fe5210e3          	bne	tp,t0,8000786c <test_9+0x4>
80007890:	ff100eb7          	lui	t4,0xff100
80007894:	f0fe8e93          	add	t4,t4,-241 # ff0fff0f <_end+0x7f0ecf0f>
80007898:	00900e13          	li	t3,9
8000789c:	39d31e63          	bne	t1,t4,80007c38 <fail>

800078a0 <test_10>:
800078a0:	00000213          	li	tp,0
800078a4:	0ff01fb7          	lui	t6,0xff01
800078a8:	ff0f8f93          	add	t6,t6,-16 # ff00ff0 <_entry_offset+0xff00ff0>
800078ac:	f0f0f137          	lui	sp,0xf0f0f
800078b0:	0f010113          	add	sp,sp,240 # f0f0f0f0 <_end+0x70efc0f0>
800078b4:	002fe1b3          	or	gp,t6,sp
800078b8:	00000013          	nop
800078bc:	00018313          	mv	t1,gp
800078c0:	00120213          	add	tp,tp,1 # 1 <_entry_offset+0x1>
800078c4:	00200293          	li	t0,2
800078c8:	fc521ee3          	bne	tp,t0,800078a4 <test_10+0x4>
800078cc:	fff10eb7          	lui	t4,0xfff10
800078d0:	ff0e8e93          	add	t4,t4,-16 # fff0fff0 <_end+0x7fefcff0>
800078d4:	00a00e13          	li	t3,10
800078d8:	37d31063          	bne	t1,t4,80007c38 <fail>

800078dc <test_11>:
800078dc:	00000213          	li	tp,0
800078e0:	00ff0fb7          	lui	t6,0xff0
800078e4:	0fff8f93          	add	t6,t6,255 # ff00ff <_entry_offset+0xff00ff>
800078e8:	0f0f1137          	lui	sp,0xf0f1
800078ec:	f0f10113          	add	sp,sp,-241 # f0f0f0f <_entry_offset+0xf0f0f0f>
800078f0:	002fe1b3          	or	gp,t6,sp
800078f4:	00000013          	nop
800078f8:	00000013          	nop
800078fc:	00018313          	mv	t1,gp
80007900:	00120213          	add	tp,tp,1 # 1 <_entry_offset+0x1>
80007904:	00200293          	li	t0,2
80007908:	fc521ce3          	bne	tp,t0,800078e0 <test_11+0x4>
8000790c:	0fff1eb7          	lui	t4,0xfff1
80007910:	fffe8e93          	add	t4,t4,-1 # fff0fff <_entry_offset+0xfff0fff>
80007914:	00b00e13          	li	t3,11
80007918:	33d31063          	bne	t1,t4,80007c38 <fail>

8000791c <test_12>:
8000791c:	00000213          	li	tp,0
80007920:	ff010fb7          	lui	t6,0xff010
80007924:	f00f8f93          	add	t6,t6,-256 # ff00ff00 <_end+0x7effcf00>
80007928:	0f0f1137          	lui	sp,0xf0f1
8000792c:	f0f10113          	add	sp,sp,-241 # f0f0f0f <_entry_offset+0xf0f0f0f>
80007930:	002fe1b3          	or	gp,t6,sp
80007934:	00120213          	add	tp,tp,1 # 1 <_entry_offset+0x1>
80007938:	00200293          	li	t0,2
8000793c:	fe5212e3          	bne	tp,t0,80007920 <test_12+0x4>
80007940:	ff100eb7          	lui	t4,0xff100
80007944:	f0fe8e93          	add	t4,t4,-241 # ff0fff0f <_end+0x7f0ecf0f>
80007948:	00c00e13          	li	t3,12
8000794c:	2fd19663          	bne	gp,t4,80007c38 <fail>

80007950 <test_13>:
80007950:	00000213          	li	tp,0
80007954:	0ff01fb7          	lui	t6,0xff01
80007958:	ff0f8f93          	add	t6,t6,-16 # ff00ff0 <_entry_offset+0xff00ff0>
8000795c:	f0f0f137          	lui	sp,0xf0f0f
80007960:	0f010113          	add	sp,sp,240 # f0f0f0f0 <_end+0x70efc0f0>
80007964:	00000013          	nop
80007968:	002fe1b3          	or	gp,t6,sp
8000796c:	00120213          	add	tp,tp,1 # 1 <_entry_offset+0x1>
80007970:	00200293          	li	t0,2
80007974:	fe5210e3          	bne	tp,t0,80007954 <test_13+0x4>
80007978:	fff10eb7          	lui	t4,0xfff10
8000797c:	ff0e8e93          	add	t4,t4,-16 # fff0fff0 <_end+0x7fefcff0>
80007980:	00d00e13          	li	t3,13
80007984:	2bd19a63          	bne	gp,t4,80007c38 <fail>

80007988 <test_14>:
80007988:	00000213          	li	tp,0
8000798c:	00ff0fb7          	lui	t6,0xff0
80007990:	0fff8f93          	add	t6,t6,255 # ff00ff <_entry_offset+0xff00ff>
80007994:	0f0f1137          	lui	sp,0xf0f1
80007998:	f0f10113          	add	sp,sp,-241 # f0f0f0f <_entry_offset+0xf0f0f0f>
8000799c:	00000013          	nop
800079a0:	00000013          	nop
800079a4:	002fe1b3          	or	gp,t6,sp
800079a8:	00120213          	add	tp,tp,1 # 1 <_entry_offset+0x1>
800079ac:	00200293          	li	t0,2
800079b0:	fc521ee3          	bne	tp,t0,8000798c <test_14+0x4>
800079b4:	0fff1eb7          	lui	t4,0xfff1
800079b8:	fffe8e93          	add	t4,t4,-1 # fff0fff <_entry_offset+0xfff0fff>
800079bc:	00e00e13          	li	t3,14
800079c0:	27d19c63          	bne	gp,t4,80007c38 <fail>

800079c4 <test_15>:
800079c4:	00000213          	li	tp,0
800079c8:	ff010fb7          	lui	t6,0xff010
800079cc:	f00f8f93          	add	t6,t6,-256 # ff00ff00 <_end+0x7effcf00>
800079d0:	00000013          	nop
800079d4:	0f0f1137          	lui	sp,0xf0f1
800079d8:	f0f10113          	add	sp,sp,-241 # f0f0f0f <_entry_offset+0xf0f0f0f>
800079dc:	002fe1b3          	or	gp,t6,sp
800079e0:	00120213          	add	tp,tp,1 # 1 <_entry_offset+0x1>
800079e4:	00200293          	li	t0,2
800079e8:	fe5210e3          	bne	tp,t0,800079c8 <test_15+0x4>
800079ec:	ff100eb7          	lui	t4,0xff100
800079f0:	f0fe8e93          	add	t4,t4,-241 # ff0fff0f <_end+0x7f0ecf0f>
800079f4:	00f00e13          	li	t3,15
800079f8:	25d19063          	bne	gp,t4,80007c38 <fail>

800079fc <test_16>:
800079fc:	00000213          	li	tp,0
80007a00:	0ff01fb7          	lui	t6,0xff01
80007a04:	ff0f8f93          	add	t6,t6,-16 # ff00ff0 <_entry_offset+0xff00ff0>
80007a08:	00000013          	nop
80007a0c:	f0f0f137          	lui	sp,0xf0f0f
80007a10:	0f010113          	add	sp,sp,240 # f0f0f0f0 <_end+0x70efc0f0>
80007a14:	00000013          	nop
80007a18:	002fe1b3          	or	gp,t6,sp
80007a1c:	00120213          	add	tp,tp,1 # 1 <_entry_offset+0x1>
80007a20:	00200293          	li	t0,2
80007a24:	fc521ee3          	bne	tp,t0,80007a00 <test_16+0x4>
80007a28:	fff10eb7          	lui	t4,0xfff10
80007a2c:	ff0e8e93          	add	t4,t4,-16 # fff0fff0 <_end+0x7fefcff0>
80007a30:	01000e13          	li	t3,16
80007a34:	21d19263          	bne	gp,t4,80007c38 <fail>

80007a38 <test_17>:
80007a38:	00000213          	li	tp,0
80007a3c:	00ff0fb7          	lui	t6,0xff0
80007a40:	0fff8f93          	add	t6,t6,255 # ff00ff <_entry_offset+0xff00ff>
80007a44:	00000013          	nop
80007a48:	00000013          	nop
80007a4c:	0f0f1137          	lui	sp,0xf0f1
80007a50:	f0f10113          	add	sp,sp,-241 # f0f0f0f <_entry_offset+0xf0f0f0f>
80007a54:	002fe1b3          	or	gp,t6,sp
80007a58:	00120213          	add	tp,tp,1 # 1 <_entry_offset+0x1>
80007a5c:	00200293          	li	t0,2
80007a60:	fc521ee3          	bne	tp,t0,80007a3c <test_17+0x4>
80007a64:	0fff1eb7          	lui	t4,0xfff1
80007a68:	fffe8e93          	add	t4,t4,-1 # fff0fff <_entry_offset+0xfff0fff>
80007a6c:	01100e13          	li	t3,17
80007a70:	1dd19463          	bne	gp,t4,80007c38 <fail>

80007a74 <test_18>:
80007a74:	00000213          	li	tp,0
80007a78:	0f0f1137          	lui	sp,0xf0f1
80007a7c:	f0f10113          	add	sp,sp,-241 # f0f0f0f <_entry_offset+0xf0f0f0f>
80007a80:	ff010fb7          	lui	t6,0xff010
80007a84:	f00f8f93          	add	t6,t6,-256 # ff00ff00 <_end+0x7effcf00>
80007a88:	002fe1b3          	or	gp,t6,sp
80007a8c:	00120213          	add	tp,tp,1 # 1 <_entry_offset+0x1>
80007a90:	00200293          	li	t0,2
80007a94:	fe5212e3          	bne	tp,t0,80007a78 <test_18+0x4>
80007a98:	ff100eb7          	lui	t4,0xff100
80007a9c:	f0fe8e93          	add	t4,t4,-241 # ff0fff0f <_end+0x7f0ecf0f>
80007aa0:	01200e13          	li	t3,18
80007aa4:	19d19a63          	bne	gp,t4,80007c38 <fail>

80007aa8 <test_19>:
80007aa8:	00000213          	li	tp,0
80007aac:	f0f0f137          	lui	sp,0xf0f0f
80007ab0:	0f010113          	add	sp,sp,240 # f0f0f0f0 <_end+0x70efc0f0>
80007ab4:	0ff01fb7          	lui	t6,0xff01
80007ab8:	ff0f8f93          	add	t6,t6,-16 # ff00ff0 <_entry_offset+0xff00ff0>
80007abc:	00000013          	nop
80007ac0:	002fe1b3          	or	gp,t6,sp
80007ac4:	00120213          	add	tp,tp,1 # 1 <_entry_offset+0x1>
80007ac8:	00200293          	li	t0,2
80007acc:	fe5210e3          	bne	tp,t0,80007aac <test_19+0x4>
80007ad0:	fff10eb7          	lui	t4,0xfff10
80007ad4:	ff0e8e93          	add	t4,t4,-16 # fff0fff0 <_end+0x7fefcff0>
80007ad8:	01300e13          	li	t3,19
80007adc:	15d19e63          	bne	gp,t4,80007c38 <fail>

80007ae0 <test_20>:
80007ae0:	00000213          	li	tp,0
80007ae4:	0f0f1137          	lui	sp,0xf0f1
80007ae8:	f0f10113          	add	sp,sp,-241 # f0f0f0f <_entry_offset+0xf0f0f0f>
80007aec:	00ff0fb7          	lui	t6,0xff0
80007af0:	0fff8f93          	add	t6,t6,255 # ff00ff <_entry_offset+0xff00ff>
80007af4:	00000013          	nop
80007af8:	00000013          	nop
80007afc:	002fe1b3          	or	gp,t6,sp
80007b00:	00120213          	add	tp,tp,1 # 1 <_entry_offset+0x1>
80007b04:	00200293          	li	t0,2
80007b08:	fc521ee3          	bne	tp,t0,80007ae4 <test_20+0x4>
80007b0c:	0fff1eb7          	lui	t4,0xfff1
80007b10:	fffe8e93          	add	t4,t4,-1 # fff0fff <_entry_offset+0xfff0fff>
80007b14:	01400e13          	li	t3,20
80007b18:	13d19063          	bne	gp,t4,80007c38 <fail>

80007b1c <test_21>:
80007b1c:	00000213          	li	tp,0
80007b20:	0f0f1137          	lui	sp,0xf0f1
80007b24:	f0f10113          	add	sp,sp,-241 # f0f0f0f <_entry_offset+0xf0f0f0f>
80007b28:	00000013          	nop
80007b2c:	ff010fb7          	lui	t6,0xff010
80007b30:	f00f8f93          	add	t6,t6,-256 # ff00ff00 <_end+0x7effcf00>
80007b34:	002fe1b3          	or	gp,t6,sp
80007b38:	00120213          	add	tp,tp,1 # 1 <_entry_offset+0x1>
80007b3c:	00200293          	li	t0,2
80007b40:	fe5210e3          	bne	tp,t0,80007b20 <test_21+0x4>
80007b44:	ff100eb7          	lui	t4,0xff100
80007b48:	f0fe8e93          	add	t4,t4,-241 # ff0fff0f <_end+0x7f0ecf0f>
80007b4c:	01500e13          	li	t3,21
80007b50:	0fd19463          	bne	gp,t4,80007c38 <fail>

80007b54 <test_22>:
80007b54:	00000213          	li	tp,0
80007b58:	f0f0f137          	lui	sp,0xf0f0f
80007b5c:	0f010113          	add	sp,sp,240 # f0f0f0f0 <_end+0x70efc0f0>
80007b60:	00000013          	nop
80007b64:	0ff01fb7          	lui	t6,0xff01
80007b68:	ff0f8f93          	add	t6,t6,-16 # ff00ff0 <_entry_offset+0xff00ff0>
80007b6c:	00000013          	nop
80007b70:	002fe1b3          	or	gp,t6,sp
80007b74:	00120213          	add	tp,tp,1 # 1 <_entry_offset+0x1>
80007b78:	00200293          	li	t0,2
80007b7c:	fc521ee3          	bne	tp,t0,80007b58 <test_22+0x4>
80007b80:	fff10eb7          	lui	t4,0xfff10
80007b84:	ff0e8e93          	add	t4,t4,-16 # fff0fff0 <_end+0x7fefcff0>
80007b88:	01600e13          	li	t3,22
80007b8c:	0bd19663          	bne	gp,t4,80007c38 <fail>

80007b90 <test_23>:
80007b90:	00000213          	li	tp,0
80007b94:	0f0f1137          	lui	sp,0xf0f1
80007b98:	f0f10113          	add	sp,sp,-241 # f0f0f0f <_entry_offset+0xf0f0f0f>
80007b9c:	00000013          	nop
80007ba0:	00000013          	nop
80007ba4:	00ff0fb7          	lui	t6,0xff0
80007ba8:	0fff8f93          	add	t6,t6,255 # ff00ff <_entry_offset+0xff00ff>
80007bac:	002fe1b3          	or	gp,t6,sp
80007bb0:	00120213          	add	tp,tp,1 # 1 <_entry_offset+0x1>
80007bb4:	00200293          	li	t0,2
80007bb8:	fc521ee3          	bne	tp,t0,80007b94 <test_23+0x4>
80007bbc:	0fff1eb7          	lui	t4,0xfff1
80007bc0:	fffe8e93          	add	t4,t4,-1 # fff0fff <_entry_offset+0xfff0fff>
80007bc4:	01700e13          	li	t3,23
80007bc8:	07d19863          	bne	gp,t4,80007c38 <fail>

80007bcc <test_24>:
80007bcc:	ff010fb7          	lui	t6,0xff010
80007bd0:	f00f8f93          	add	t6,t6,-256 # ff00ff00 <_end+0x7effcf00>
80007bd4:	01f06133          	or	sp,zero,t6
80007bd8:	ff010eb7          	lui	t4,0xff010
80007bdc:	f00e8e93          	add	t4,t4,-256 # ff00ff00 <_end+0x7effcf00>
80007be0:	01800e13          	li	t3,24
80007be4:	05d11a63          	bne	sp,t4,80007c38 <fail>

80007be8 <test_25>:
80007be8:	00ff0fb7          	lui	t6,0xff0
80007bec:	0fff8f93          	add	t6,t6,255 # ff00ff <_entry_offset+0xff00ff>
80007bf0:	000fe133          	or	sp,t6,zero
80007bf4:	00ff0eb7          	lui	t4,0xff0
80007bf8:	0ffe8e93          	add	t4,t4,255 # ff00ff <_entry_offset+0xff00ff>
80007bfc:	01900e13          	li	t3,25
80007c00:	03d11c63          	bne	sp,t4,80007c38 <fail>

80007c04 <test_26>:
80007c04:	00006fb3          	or	t6,zero,zero
80007c08:	00000e93          	li	t4,0
80007c0c:	01a00e13          	li	t3,26
80007c10:	03df9463          	bne	t6,t4,80007c38 <fail>

80007c14 <test_27>:
80007c14:	11111fb7          	lui	t6,0x11111
80007c18:	111f8f93          	add	t6,t6,273 # 11111111 <_entry_offset+0x11111111>
80007c1c:	22222137          	lui	sp,0x22222
80007c20:	22210113          	add	sp,sp,546 # 22222222 <_entry_offset+0x22222222>
80007c24:	002fe033          	or	zero,t6,sp
80007c28:	00000e93          	li	t4,0
80007c2c:	01b00e13          	li	t3,27
80007c30:	01d01463          	bne	zero,t4,80007c38 <fail>
80007c34:	0100006f          	j	80007c44 <pass>

80007c38 <fail>:
80007c38:	fff00513          	li	a0,-1
80007c3c:	00100073          	ebreak
80007c40:	ff9ff06f          	j	80007c38 <fail>

80007c44 <pass>:
80007c44:	00000513          	li	a0,0
80007c48:	00008067          	ret

80007c4c <add>:
80007c4c:	00000f93          	li	t6,0
80007c50:	00000113          	li	sp,0
80007c54:	002f81b3          	add	gp,t6,sp
80007c58:	00000e93          	li	t4,0
80007c5c:	00200e13          	li	t3,2
80007c60:	4dd19663          	bne	gp,t4,8000812c <fail>

80007c64 <test_3>:
80007c64:	00100f93          	li	t6,1
80007c68:	00100113          	li	sp,1
80007c6c:	002f81b3          	add	gp,t6,sp
80007c70:	00200e93          	li	t4,2
80007c74:	00300e13          	li	t3,3
80007c78:	4bd19a63          	bne	gp,t4,8000812c <fail>

80007c7c <test_4>:
80007c7c:	00300f93          	li	t6,3
80007c80:	00700113          	li	sp,7
80007c84:	002f81b3          	add	gp,t6,sp
80007c88:	00a00e93          	li	t4,10
80007c8c:	00400e13          	li	t3,4
80007c90:	49d19e63          	bne	gp,t4,8000812c <fail>

80007c94 <test_5>:
80007c94:	00000f93          	li	t6,0
80007c98:	ffff8137          	lui	sp,0xffff8
80007c9c:	002f81b3          	add	gp,t6,sp
80007ca0:	ffff8eb7          	lui	t4,0xffff8
80007ca4:	00500e13          	li	t3,5
80007ca8:	49d19263          	bne	gp,t4,8000812c <fail>

80007cac <test_6>:
80007cac:	80000fb7          	lui	t6,0x80000
80007cb0:	00000113          	li	sp,0
80007cb4:	002f81b3          	add	gp,t6,sp
80007cb8:	80000eb7          	lui	t4,0x80000
80007cbc:	00600e13          	li	t3,6
80007cc0:	47d19663          	bne	gp,t4,8000812c <fail>

80007cc4 <test_7>:
80007cc4:	80000fb7          	lui	t6,0x80000
80007cc8:	ffff8137          	lui	sp,0xffff8
80007ccc:	002f81b3          	add	gp,t6,sp
80007cd0:	7fff8eb7          	lui	t4,0x7fff8
80007cd4:	00700e13          	li	t3,7
80007cd8:	45d19a63          	bne	gp,t4,8000812c <fail>

80007cdc <test_8>:
80007cdc:	00000f93          	li	t6,0
80007ce0:	00008137          	lui	sp,0x8
80007ce4:	fff10113          	add	sp,sp,-1 # 7fff <_entry_offset+0x7fff>
80007ce8:	002f81b3          	add	gp,t6,sp
80007cec:	00008eb7          	lui	t4,0x8
80007cf0:	fffe8e93          	add	t4,t4,-1 # 7fff <_entry_offset+0x7fff>
80007cf4:	00800e13          	li	t3,8
80007cf8:	43d19a63          	bne	gp,t4,8000812c <fail>

80007cfc <test_9>:
80007cfc:	80000fb7          	lui	t6,0x80000
80007d00:	ffff8f93          	add	t6,t6,-1 # 7fffffff <_entry_offset+0x7fffffff>
80007d04:	00000113          	li	sp,0
80007d08:	002f81b3          	add	gp,t6,sp
80007d0c:	80000eb7          	lui	t4,0x80000
80007d10:	fffe8e93          	add	t4,t4,-1 # 7fffffff <_entry_offset+0x7fffffff>
80007d14:	00900e13          	li	t3,9
80007d18:	41d19a63          	bne	gp,t4,8000812c <fail>

80007d1c <test_10>:
80007d1c:	80000fb7          	lui	t6,0x80000
80007d20:	ffff8f93          	add	t6,t6,-1 # 7fffffff <_entry_offset+0x7fffffff>
80007d24:	00008137          	lui	sp,0x8
80007d28:	fff10113          	add	sp,sp,-1 # 7fff <_entry_offset+0x7fff>
80007d2c:	002f81b3          	add	gp,t6,sp
80007d30:	80008eb7          	lui	t4,0x80008
80007d34:	ffee8e93          	add	t4,t4,-2 # 80007ffe <test_30+0xe>
80007d38:	00a00e13          	li	t3,10
80007d3c:	3fd19863          	bne	gp,t4,8000812c <fail>

80007d40 <test_11>:
80007d40:	80000fb7          	lui	t6,0x80000
80007d44:	00008137          	lui	sp,0x8
80007d48:	fff10113          	add	sp,sp,-1 # 7fff <_entry_offset+0x7fff>
80007d4c:	002f81b3          	add	gp,t6,sp
80007d50:	80008eb7          	lui	t4,0x80008
80007d54:	fffe8e93          	add	t4,t4,-1 # 80007fff <test_30+0xf>
80007d58:	00b00e13          	li	t3,11
80007d5c:	3dd19863          	bne	gp,t4,8000812c <fail>

80007d60 <test_12>:
80007d60:	80000fb7          	lui	t6,0x80000
80007d64:	ffff8f93          	add	t6,t6,-1 # 7fffffff <_entry_offset+0x7fffffff>
80007d68:	ffff8137          	lui	sp,0xffff8
80007d6c:	002f81b3          	add	gp,t6,sp
80007d70:	7fff8eb7          	lui	t4,0x7fff8
80007d74:	fffe8e93          	add	t4,t4,-1 # 7fff7fff <_entry_offset+0x7fff7fff>
80007d78:	00c00e13          	li	t3,12
80007d7c:	3bd19863          	bne	gp,t4,8000812c <fail>

80007d80 <test_13>:
80007d80:	00000f93          	li	t6,0
80007d84:	fff00113          	li	sp,-1
80007d88:	002f81b3          	add	gp,t6,sp
80007d8c:	fff00e93          	li	t4,-1
80007d90:	00d00e13          	li	t3,13
80007d94:	39d19c63          	bne	gp,t4,8000812c <fail>

80007d98 <test_14>:
80007d98:	fff00f93          	li	t6,-1
80007d9c:	00100113          	li	sp,1
80007da0:	002f81b3          	add	gp,t6,sp
80007da4:	00000e93          	li	t4,0
80007da8:	00e00e13          	li	t3,14
80007dac:	39d19063          	bne	gp,t4,8000812c <fail>

80007db0 <test_15>:
80007db0:	fff00f93          	li	t6,-1
80007db4:	fff00113          	li	sp,-1
80007db8:	002f81b3          	add	gp,t6,sp
80007dbc:	ffe00e93          	li	t4,-2
80007dc0:	00f00e13          	li	t3,15
80007dc4:	37d19463          	bne	gp,t4,8000812c <fail>

80007dc8 <test_16>:
80007dc8:	00100f93          	li	t6,1
80007dcc:	80000137          	lui	sp,0x80000
80007dd0:	fff10113          	add	sp,sp,-1 # 7fffffff <_entry_offset+0x7fffffff>
80007dd4:	002f81b3          	add	gp,t6,sp
80007dd8:	80000eb7          	lui	t4,0x80000
80007ddc:	01000e13          	li	t3,16
80007de0:	35d19663          	bne	gp,t4,8000812c <fail>

80007de4 <test_17>:
80007de4:	00d00f93          	li	t6,13
80007de8:	00b00113          	li	sp,11
80007dec:	002f8fb3          	add	t6,t6,sp
80007df0:	01800e93          	li	t4,24
80007df4:	01100e13          	li	t3,17
80007df8:	33df9a63          	bne	t6,t4,8000812c <fail>

80007dfc <test_18>:
80007dfc:	00e00f93          	li	t6,14
80007e00:	00b00113          	li	sp,11
80007e04:	002f8133          	add	sp,t6,sp
80007e08:	01900e93          	li	t4,25
80007e0c:	01200e13          	li	t3,18
80007e10:	31d11e63          	bne	sp,t4,8000812c <fail>

80007e14 <test_19>:
80007e14:	00d00f93          	li	t6,13
80007e18:	01ff8fb3          	add	t6,t6,t6
80007e1c:	01a00e93          	li	t4,26
80007e20:	01300e13          	li	t3,19
80007e24:	31df9463          	bne	t6,t4,8000812c <fail>

80007e28 <test_20>:
80007e28:	00000213          	li	tp,0
80007e2c:	00d00f93          	li	t6,13
80007e30:	00b00113          	li	sp,11
80007e34:	002f81b3          	add	gp,t6,sp
80007e38:	00018313          	mv	t1,gp
80007e3c:	00120213          	add	tp,tp,1 # 1 <_entry_offset+0x1>
80007e40:	00200293          	li	t0,2
80007e44:	fe5214e3          	bne	tp,t0,80007e2c <test_20+0x4>
80007e48:	01800e93          	li	t4,24
80007e4c:	01400e13          	li	t3,20
80007e50:	2dd31e63          	bne	t1,t4,8000812c <fail>

80007e54 <test_21>:
80007e54:	00000213          	li	tp,0
80007e58:	00e00f93          	li	t6,14
80007e5c:	00b00113          	li	sp,11
80007e60:	002f81b3          	add	gp,t6,sp
80007e64:	00000013          	nop
80007e68:	00018313          	mv	t1,gp
80007e6c:	00120213          	add	tp,tp,1 # 1 <_entry_offset+0x1>
80007e70:	00200293          	li	t0,2
80007e74:	fe5212e3          	bne	tp,t0,80007e58 <test_21+0x4>
80007e78:	01900e93          	li	t4,25
80007e7c:	01500e13          	li	t3,21
80007e80:	2bd31663          	bne	t1,t4,8000812c <fail>

80007e84 <test_22>:
80007e84:	00000213          	li	tp,0
80007e88:	00f00f93          	li	t6,15
80007e8c:	00b00113          	li	sp,11
80007e90:	002f81b3          	add	gp,t6,sp
80007e94:	00000013          	nop
80007e98:	00000013          	nop
80007e9c:	00018313          	mv	t1,gp
80007ea0:	00120213          	add	tp,tp,1 # 1 <_entry_offset+0x1>
80007ea4:	00200293          	li	t0,2
80007ea8:	fe5210e3          	bne	tp,t0,80007e88 <test_22+0x4>
80007eac:	01a00e93          	li	t4,26
80007eb0:	01600e13          	li	t3,22
80007eb4:	27d31c63          	bne	t1,t4,8000812c <fail>

80007eb8 <test_23>:
80007eb8:	00000213          	li	tp,0
80007ebc:	00d00f93          	li	t6,13
80007ec0:	00b00113          	li	sp,11
80007ec4:	002f81b3          	add	gp,t6,sp
80007ec8:	00120213          	add	tp,tp,1 # 1 <_entry_offset+0x1>
80007ecc:	00200293          	li	t0,2
80007ed0:	fe5216e3          	bne	tp,t0,80007ebc <test_23+0x4>
80007ed4:	01800e93          	li	t4,24
80007ed8:	01700e13          	li	t3,23
80007edc:	25d19863          	bne	gp,t4,8000812c <fail>

80007ee0 <test_24>:
80007ee0:	00000213          	li	tp,0
80007ee4:	00e00f93          	li	t6,14
80007ee8:	00b00113          	li	sp,11
80007eec:	00000013          	nop
80007ef0:	002f81b3          	add	gp,t6,sp
80007ef4:	00120213          	add	tp,tp,1 # 1 <_entry_offset+0x1>
80007ef8:	00200293          	li	t0,2
80007efc:	fe5214e3          	bne	tp,t0,80007ee4 <test_24+0x4>
80007f00:	01900e93          	li	t4,25
80007f04:	01800e13          	li	t3,24
80007f08:	23d19263          	bne	gp,t4,8000812c <fail>

80007f0c <test_25>:
80007f0c:	00000213          	li	tp,0
80007f10:	00f00f93          	li	t6,15
80007f14:	00b00113          	li	sp,11
80007f18:	00000013          	nop
80007f1c:	00000013          	nop
80007f20:	002f81b3          	add	gp,t6,sp
80007f24:	00120213          	add	tp,tp,1 # 1 <_entry_offset+0x1>
80007f28:	00200293          	li	t0,2
80007f2c:	fe5212e3          	bne	tp,t0,80007f10 <test_25+0x4>
80007f30:	01a00e93          	li	t4,26
80007f34:	01900e13          	li	t3,25
80007f38:	1fd19a63          	bne	gp,t4,8000812c <fail>

80007f3c <test_26>:
80007f3c:	00000213          	li	tp,0
80007f40:	00d00f93          	li	t6,13
80007f44:	00000013          	nop
80007f48:	00b00113          	li	sp,11
80007f4c:	002f81b3          	add	gp,t6,sp
80007f50:	00120213          	add	tp,tp,1 # 1 <_entry_offset+0x1>
80007f54:	00200293          	li	t0,2
80007f58:	fe5214e3          	bne	tp,t0,80007f40 <test_26+0x4>
80007f5c:	01800e93          	li	t4,24
80007f60:	01a00e13          	li	t3,26
80007f64:	1dd19463          	bne	gp,t4,8000812c <fail>

80007f68 <test_27>:
80007f68:	00000213          	li	tp,0
80007f6c:	00e00f93          	li	t6,14
80007f70:	00000013          	nop
80007f74:	00b00113          	li	sp,11
80007f78:	00000013          	nop
80007f7c:	002f81b3          	add	gp,t6,sp
80007f80:	00120213          	add	tp,tp,1 # 1 <_entry_offset+0x1>
80007f84:	00200293          	li	t0,2
80007f88:	fe5212e3          	bne	tp,t0,80007f6c <test_27+0x4>
80007f8c:	01900e93          	li	t4,25
80007f90:	01b00e13          	li	t3,27
80007f94:	19d19c63          	bne	gp,t4,8000812c <fail>

80007f98 <test_28>:
80007f98:	00000213          	li	tp,0
80007f9c:	00f00f93          	li	t6,15
80007fa0:	00000013          	nop
80007fa4:	00000013          	nop
80007fa8:	00b00113          	li	sp,11
80007fac:	002f81b3          	add	gp,t6,sp
80007fb0:	00120213          	add	tp,tp,1 # 1 <_entry_offset+0x1>
80007fb4:	00200293          	li	t0,2
80007fb8:	fe5212e3          	bne	tp,t0,80007f9c <test_28+0x4>
80007fbc:	01a00e93          	li	t4,26
80007fc0:	01c00e13          	li	t3,28
80007fc4:	17d19463          	bne	gp,t4,8000812c <fail>

80007fc8 <test_29>:
80007fc8:	00000213          	li	tp,0
80007fcc:	00b00113          	li	sp,11
80007fd0:	00d00f93          	li	t6,13
80007fd4:	002f81b3          	add	gp,t6,sp
80007fd8:	00120213          	add	tp,tp,1 # 1 <_entry_offset+0x1>
80007fdc:	00200293          	li	t0,2
80007fe0:	fe5216e3          	bne	tp,t0,80007fcc <test_29+0x4>
80007fe4:	01800e93          	li	t4,24
80007fe8:	01d00e13          	li	t3,29
80007fec:	15d19063          	bne	gp,t4,8000812c <fail>

80007ff0 <test_30>:
80007ff0:	00000213          	li	tp,0
80007ff4:	00b00113          	li	sp,11
80007ff8:	00e00f93          	li	t6,14
80007ffc:	00000013          	nop
80008000:	002f81b3          	add	gp,t6,sp
80008004:	00120213          	add	tp,tp,1 # 1 <_entry_offset+0x1>
80008008:	00200293          	li	t0,2
8000800c:	fe5214e3          	bne	tp,t0,80007ff4 <test_30+0x4>
80008010:	01900e93          	li	t4,25
80008014:	01e00e13          	li	t3,30
80008018:	11d19a63          	bne	gp,t4,8000812c <fail>

8000801c <test_31>:
8000801c:	00000213          	li	tp,0
80008020:	00b00113          	li	sp,11
80008024:	00f00f93          	li	t6,15
80008028:	00000013          	nop
8000802c:	00000013          	nop
80008030:	002f81b3          	add	gp,t6,sp
80008034:	00120213          	add	tp,tp,1 # 1 <_entry_offset+0x1>
80008038:	00200293          	li	t0,2
8000803c:	fe5212e3          	bne	tp,t0,80008020 <test_31+0x4>
80008040:	01a00e93          	li	t4,26
80008044:	01f00e13          	li	t3,31
80008048:	0fd19263          	bne	gp,t4,8000812c <fail>

8000804c <test_32>:
8000804c:	00000213          	li	tp,0
80008050:	00b00113          	li	sp,11
80008054:	00000013          	nop
80008058:	00d00f93          	li	t6,13
8000805c:	002f81b3          	add	gp,t6,sp
80008060:	00120213          	add	tp,tp,1 # 1 <_entry_offset+0x1>
80008064:	00200293          	li	t0,2
80008068:	fe5214e3          	bne	tp,t0,80008050 <test_32+0x4>
8000806c:	01800e93          	li	t4,24
80008070:	02000e13          	li	t3,32
80008074:	0bd19c63          	bne	gp,t4,8000812c <fail>

80008078 <test_33>:
80008078:	00000213          	li	tp,0
8000807c:	00b00113          	li	sp,11
80008080:	00000013          	nop
80008084:	00e00f93          	li	t6,14
80008088:	00000013          	nop
8000808c:	002f81b3          	add	gp,t6,sp
80008090:	00120213          	add	tp,tp,1 # 1 <_entry_offset+0x1>
80008094:	00200293          	li	t0,2
80008098:	fe5212e3          	bne	tp,t0,8000807c <test_33+0x4>
8000809c:	01900e93          	li	t4,25
800080a0:	02100e13          	li	t3,33
800080a4:	09d19463          	bne	gp,t4,8000812c <fail>

800080a8 <test_34>:
800080a8:	00000213          	li	tp,0
800080ac:	00b00113          	li	sp,11
800080b0:	00000013          	nop
800080b4:	00000013          	nop
800080b8:	00f00f93          	li	t6,15
800080bc:	002f81b3          	add	gp,t6,sp
800080c0:	00120213          	add	tp,tp,1 # 1 <_entry_offset+0x1>
800080c4:	00200293          	li	t0,2
800080c8:	fe5212e3          	bne	tp,t0,800080ac <test_34+0x4>
800080cc:	01a00e93          	li	t4,26
800080d0:	02200e13          	li	t3,34
800080d4:	05d19c63          	bne	gp,t4,8000812c <fail>

800080d8 <test_35>:
800080d8:	00f00f93          	li	t6,15
800080dc:	01f00133          	add	sp,zero,t6
800080e0:	00f00e93          	li	t4,15
800080e4:	02300e13          	li	t3,35
800080e8:	05d11263          	bne	sp,t4,8000812c <fail>

800080ec <test_36>:
800080ec:	02000f93          	li	t6,32
800080f0:	000f8133          	add	sp,t6,zero
800080f4:	02000e93          	li	t4,32
800080f8:	02400e13          	li	t3,36
800080fc:	03d11863          	bne	sp,t4,8000812c <fail>

80008100 <test_37>:
80008100:	00000fb3          	add	t6,zero,zero
80008104:	00000e93          	li	t4,0
80008108:	02500e13          	li	t3,37
8000810c:	03df9063          	bne	t6,t4,8000812c <fail>

80008110 <test_38>:
80008110:	01000f93          	li	t6,16
80008114:	01e00113          	li	sp,30
80008118:	002f8033          	add	zero,t6,sp
8000811c:	00000e93          	li	t4,0
80008120:	02600e13          	li	t3,38
80008124:	01d01463          	bne	zero,t4,8000812c <fail>
80008128:	0100006f          	j	80008138 <pass>

8000812c <fail>:
8000812c:	fff00513          	li	a0,-1
80008130:	00100073          	ebreak
80008134:	ff9ff06f          	j	8000812c <fail>

80008138 <pass>:
80008138:	00000513          	li	a0,0
8000813c:	00008067          	ret

80008140 <bge>:
80008140:	00200e13          	li	t3,2
80008144:	00000f93          	li	t6,0
80008148:	00000113          	li	sp,0
8000814c:	002fd663          	bge	t6,sp,80008158 <bge+0x18>
80008150:	31c01863          	bne	zero,t3,80008460 <fail>
80008154:	01c01663          	bne	zero,t3,80008160 <test_3>
80008158:	fe2fdee3          	bge	t6,sp,80008154 <bge+0x14>
8000815c:	31c01263          	bne	zero,t3,80008460 <fail>

80008160 <test_3>:
80008160:	00300e13          	li	t3,3
80008164:	00100f93          	li	t6,1
80008168:	00100113          	li	sp,1
8000816c:	002fd663          	bge	t6,sp,80008178 <test_3+0x18>
80008170:	2fc01863          	bne	zero,t3,80008460 <fail>
80008174:	01c01663          	bne	zero,t3,80008180 <test_4>
80008178:	fe2fdee3          	bge	t6,sp,80008174 <test_3+0x14>
8000817c:	2fc01263          	bne	zero,t3,80008460 <fail>

80008180 <test_4>:
80008180:	00400e13          	li	t3,4
80008184:	fff00f93          	li	t6,-1
80008188:	fff00113          	li	sp,-1
8000818c:	002fd663          	bge	t6,sp,80008198 <test_4+0x18>
80008190:	2dc01863          	bne	zero,t3,80008460 <fail>
80008194:	01c01663          	bne	zero,t3,800081a0 <test_5>
80008198:	fe2fdee3          	bge	t6,sp,80008194 <test_4+0x14>
8000819c:	2dc01263          	bne	zero,t3,80008460 <fail>

800081a0 <test_5>:
800081a0:	00500e13          	li	t3,5
800081a4:	00100f93          	li	t6,1
800081a8:	00000113          	li	sp,0
800081ac:	002fd663          	bge	t6,sp,800081b8 <test_5+0x18>
800081b0:	2bc01863          	bne	zero,t3,80008460 <fail>
800081b4:	01c01663          	bne	zero,t3,800081c0 <test_6>
800081b8:	fe2fdee3          	bge	t6,sp,800081b4 <test_5+0x14>
800081bc:	2bc01263          	bne	zero,t3,80008460 <fail>

800081c0 <test_6>:
800081c0:	00600e13          	li	t3,6
800081c4:	00100f93          	li	t6,1
800081c8:	fff00113          	li	sp,-1
800081cc:	002fd663          	bge	t6,sp,800081d8 <test_6+0x18>
800081d0:	29c01863          	bne	zero,t3,80008460 <fail>
800081d4:	01c01663          	bne	zero,t3,800081e0 <test_7>
800081d8:	fe2fdee3          	bge	t6,sp,800081d4 <test_6+0x14>
800081dc:	29c01263          	bne	zero,t3,80008460 <fail>

800081e0 <test_7>:
800081e0:	00700e13          	li	t3,7
800081e4:	fff00f93          	li	t6,-1
800081e8:	ffe00113          	li	sp,-2
800081ec:	002fd663          	bge	t6,sp,800081f8 <test_7+0x18>
800081f0:	27c01863          	bne	zero,t3,80008460 <fail>
800081f4:	01c01663          	bne	zero,t3,80008200 <test_8>
800081f8:	fe2fdee3          	bge	t6,sp,800081f4 <test_7+0x14>
800081fc:	27c01263          	bne	zero,t3,80008460 <fail>

80008200 <test_8>:
80008200:	00800e13          	li	t3,8
80008204:	00000f93          	li	t6,0
80008208:	00100113          	li	sp,1
8000820c:	002fd463          	bge	t6,sp,80008214 <test_8+0x14>
80008210:	01c01463          	bne	zero,t3,80008218 <test_8+0x18>
80008214:	25c01663          	bne	zero,t3,80008460 <fail>
80008218:	fe2fdee3          	bge	t6,sp,80008214 <test_8+0x14>

8000821c <test_9>:
8000821c:	00900e13          	li	t3,9
80008220:	fff00f93          	li	t6,-1
80008224:	00100113          	li	sp,1
80008228:	002fd463          	bge	t6,sp,80008230 <test_9+0x14>
8000822c:	01c01463          	bne	zero,t3,80008234 <test_9+0x18>
80008230:	23c01863          	bne	zero,t3,80008460 <fail>
80008234:	fe2fdee3          	bge	t6,sp,80008230 <test_9+0x14>

80008238 <test_10>:
80008238:	00a00e13          	li	t3,10
8000823c:	ffe00f93          	li	t6,-2
80008240:	fff00113          	li	sp,-1
80008244:	002fd463          	bge	t6,sp,8000824c <test_10+0x14>
80008248:	01c01463          	bne	zero,t3,80008250 <test_10+0x18>
8000824c:	21c01a63          	bne	zero,t3,80008460 <fail>
80008250:	fe2fdee3          	bge	t6,sp,8000824c <test_10+0x14>

80008254 <test_11>:
80008254:	00b00e13          	li	t3,11
80008258:	ffe00f93          	li	t6,-2
8000825c:	00100113          	li	sp,1
80008260:	002fd463          	bge	t6,sp,80008268 <test_11+0x14>
80008264:	01c01463          	bne	zero,t3,8000826c <test_11+0x18>
80008268:	1fc01c63          	bne	zero,t3,80008460 <fail>
8000826c:	fe2fdee3          	bge	t6,sp,80008268 <test_11+0x14>

80008270 <test_12>:
80008270:	00c00e13          	li	t3,12
80008274:	00000213          	li	tp,0
80008278:	fff00f93          	li	t6,-1
8000827c:	00000113          	li	sp,0
80008280:	1e2fd063          	bge	t6,sp,80008460 <fail>
80008284:	00120213          	add	tp,tp,1 # 1 <_entry_offset+0x1>
80008288:	00200293          	li	t0,2
8000828c:	fe5216e3          	bne	tp,t0,80008278 <test_12+0x8>

80008290 <test_13>:
80008290:	00d00e13          	li	t3,13
80008294:	00000213          	li	tp,0
80008298:	fff00f93          	li	t6,-1
8000829c:	00000113          	li	sp,0
800082a0:	00000013          	nop
800082a4:	1a2fde63          	bge	t6,sp,80008460 <fail>
800082a8:	00120213          	add	tp,tp,1 # 1 <_entry_offset+0x1>
800082ac:	00200293          	li	t0,2
800082b0:	fe5214e3          	bne	tp,t0,80008298 <test_13+0x8>

800082b4 <test_14>:
800082b4:	00e00e13          	li	t3,14
800082b8:	00000213          	li	tp,0
800082bc:	fff00f93          	li	t6,-1
800082c0:	00000113          	li	sp,0
800082c4:	00000013          	nop
800082c8:	00000013          	nop
800082cc:	182fda63          	bge	t6,sp,80008460 <fail>
800082d0:	00120213          	add	tp,tp,1 # 1 <_entry_offset+0x1>
800082d4:	00200293          	li	t0,2
800082d8:	fe5212e3          	bne	tp,t0,800082bc <test_14+0x8>

800082dc <test_15>:
800082dc:	00f00e13          	li	t3,15
800082e0:	00000213          	li	tp,0
800082e4:	fff00f93          	li	t6,-1
800082e8:	00000013          	nop
800082ec:	00000113          	li	sp,0
800082f0:	162fd863          	bge	t6,sp,80008460 <fail>
800082f4:	00120213          	add	tp,tp,1 # 1 <_entry_offset+0x1>
800082f8:	00200293          	li	t0,2
800082fc:	fe5214e3          	bne	tp,t0,800082e4 <test_15+0x8>

80008300 <test_16>:
80008300:	01000e13          	li	t3,16
80008304:	00000213          	li	tp,0
80008308:	fff00f93          	li	t6,-1
8000830c:	00000013          	nop
80008310:	00000113          	li	sp,0
80008314:	00000013          	nop
80008318:	142fd463          	bge	t6,sp,80008460 <fail>
8000831c:	00120213          	add	tp,tp,1 # 1 <_entry_offset+0x1>
80008320:	00200293          	li	t0,2
80008324:	fe5212e3          	bne	tp,t0,80008308 <test_16+0x8>

80008328 <test_17>:
80008328:	01100e13          	li	t3,17
8000832c:	00000213          	li	tp,0
80008330:	fff00f93          	li	t6,-1
80008334:	00000013          	nop
80008338:	00000013          	nop
8000833c:	00000113          	li	sp,0
80008340:	122fd063          	bge	t6,sp,80008460 <fail>
80008344:	00120213          	add	tp,tp,1 # 1 <_entry_offset+0x1>
80008348:	00200293          	li	t0,2
8000834c:	fe5212e3          	bne	tp,t0,80008330 <test_17+0x8>

80008350 <test_18>:
80008350:	01200e13          	li	t3,18
80008354:	00000213          	li	tp,0
80008358:	fff00f93          	li	t6,-1
8000835c:	00000113          	li	sp,0
80008360:	102fd063          	bge	t6,sp,80008460 <fail>
80008364:	00120213          	add	tp,tp,1 # 1 <_entry_offset+0x1>
80008368:	00200293          	li	t0,2
8000836c:	fe5216e3          	bne	tp,t0,80008358 <test_18+0x8>

80008370 <test_19>:
80008370:	01300e13          	li	t3,19
80008374:	00000213          	li	tp,0
80008378:	fff00f93          	li	t6,-1
8000837c:	00000113          	li	sp,0
80008380:	00000013          	nop
80008384:	0c2fde63          	bge	t6,sp,80008460 <fail>
80008388:	00120213          	add	tp,tp,1 # 1 <_entry_offset+0x1>
8000838c:	00200293          	li	t0,2
80008390:	fe5214e3          	bne	tp,t0,80008378 <test_19+0x8>

80008394 <test_20>:
80008394:	01400e13          	li	t3,20
80008398:	00000213          	li	tp,0
8000839c:	fff00f93          	li	t6,-1
800083a0:	00000113          	li	sp,0
800083a4:	00000013          	nop
800083a8:	00000013          	nop
800083ac:	0a2fda63          	bge	t6,sp,80008460 <fail>
800083b0:	00120213          	add	tp,tp,1 # 1 <_entry_offset+0x1>
800083b4:	00200293          	li	t0,2
800083b8:	fe5212e3          	bne	tp,t0,8000839c <test_20+0x8>

800083bc <test_21>:
800083bc:	01500e13          	li	t3,21
800083c0:	00000213          	li	tp,0
800083c4:	fff00f93          	li	t6,-1
800083c8:	00000013          	nop
800083cc:	00000113          	li	sp,0
800083d0:	082fd863          	bge	t6,sp,80008460 <fail>
800083d4:	00120213          	add	tp,tp,1 # 1 <_entry_offset+0x1>
800083d8:	00200293          	li	t0,2
800083dc:	fe5214e3          	bne	tp,t0,800083c4 <test_21+0x8>

800083e0 <test_22>:
800083e0:	01600e13          	li	t3,22
800083e4:	00000213          	li	tp,0
800083e8:	fff00f93          	li	t6,-1
800083ec:	00000013          	nop
800083f0:	00000113          	li	sp,0
800083f4:	00000013          	nop
800083f8:	062fd463          	bge	t6,sp,80008460 <fail>
800083fc:	00120213          	add	tp,tp,1 # 1 <_entry_offset+0x1>
80008400:	00200293          	li	t0,2
80008404:	fe5212e3          	bne	tp,t0,800083e8 <test_22+0x8>

80008408 <test_23>:
80008408:	01700e13          	li	t3,23
8000840c:	00000213          	li	tp,0
80008410:	fff00f93          	li	t6,-1
80008414:	00000013          	nop
80008418:	00000013          	nop
8000841c:	00000113          	li	sp,0
80008420:	042fd063          	bge	t6,sp,80008460 <fail>
80008424:	00120213          	add	tp,tp,1 # 1 <_entry_offset+0x1>
80008428:	00200293          	li	t0,2
8000842c:	fe5212e3          	bne	tp,t0,80008410 <test_23+0x8>

80008430 <test_24>:
80008430:	00100f93          	li	t6,1
80008434:	000fda63          	bgez	t6,80008448 <test_24+0x18>
80008438:	001f8f93          	add	t6,t6,1
8000843c:	001f8f93          	add	t6,t6,1
80008440:	001f8f93          	add	t6,t6,1
80008444:	001f8f93          	add	t6,t6,1
80008448:	001f8f93          	add	t6,t6,1
8000844c:	001f8f93          	add	t6,t6,1
80008450:	00300e93          	li	t4,3
80008454:	01800e13          	li	t3,24
80008458:	01df9463          	bne	t6,t4,80008460 <fail>
8000845c:	0100006f          	j	8000846c <pass>

80008460 <fail>:
80008460:	fff00513          	li	a0,-1
80008464:	00100073          	ebreak
80008468:	ff9ff06f          	j	80008460 <fail>

8000846c <pass>:
8000846c:	00000513          	li	a0,0
80008470:	00008067          	ret

80008474 <blt>:
80008474:	00200e13          	li	t3,2
80008478:	00000f93          	li	t6,0
8000847c:	00100113          	li	sp,1
80008480:	002fc663          	blt	t6,sp,8000848c <blt+0x18>
80008484:	2bc01863          	bne	zero,t3,80008734 <fail>
80008488:	01c01663          	bne	zero,t3,80008494 <test_3>
8000848c:	fe2fcee3          	blt	t6,sp,80008488 <blt+0x14>
80008490:	2bc01263          	bne	zero,t3,80008734 <fail>

80008494 <test_3>:
80008494:	00300e13          	li	t3,3
80008498:	fff00f93          	li	t6,-1
8000849c:	00100113          	li	sp,1
800084a0:	002fc663          	blt	t6,sp,800084ac <test_3+0x18>
800084a4:	29c01863          	bne	zero,t3,80008734 <fail>
800084a8:	01c01663          	bne	zero,t3,800084b4 <test_4>
800084ac:	fe2fcee3          	blt	t6,sp,800084a8 <test_3+0x14>
800084b0:	29c01263          	bne	zero,t3,80008734 <fail>

800084b4 <test_4>:
800084b4:	00400e13          	li	t3,4
800084b8:	ffe00f93          	li	t6,-2
800084bc:	fff00113          	li	sp,-1
800084c0:	002fc663          	blt	t6,sp,800084cc <test_4+0x18>
800084c4:	27c01863          	bne	zero,t3,80008734 <fail>
800084c8:	01c01663          	bne	zero,t3,800084d4 <test_5>
800084cc:	fe2fcee3          	blt	t6,sp,800084c8 <test_4+0x14>
800084d0:	27c01263          	bne	zero,t3,80008734 <fail>

800084d4 <test_5>:
800084d4:	00500e13          	li	t3,5
800084d8:	00100f93          	li	t6,1
800084dc:	00000113          	li	sp,0
800084e0:	002fc463          	blt	t6,sp,800084e8 <test_5+0x14>
800084e4:	01c01463          	bne	zero,t3,800084ec <test_5+0x18>
800084e8:	25c01663          	bne	zero,t3,80008734 <fail>
800084ec:	fe2fcee3          	blt	t6,sp,800084e8 <test_5+0x14>

800084f0 <test_6>:
800084f0:	00600e13          	li	t3,6
800084f4:	00100f93          	li	t6,1
800084f8:	fff00113          	li	sp,-1
800084fc:	002fc463          	blt	t6,sp,80008504 <test_6+0x14>
80008500:	01c01463          	bne	zero,t3,80008508 <test_6+0x18>
80008504:	23c01863          	bne	zero,t3,80008734 <fail>
80008508:	fe2fcee3          	blt	t6,sp,80008504 <test_6+0x14>

8000850c <test_7>:
8000850c:	00700e13          	li	t3,7
80008510:	fff00f93          	li	t6,-1
80008514:	ffe00113          	li	sp,-2
80008518:	002fc463          	blt	t6,sp,80008520 <test_7+0x14>
8000851c:	01c01463          	bne	zero,t3,80008524 <test_7+0x18>
80008520:	21c01a63          	bne	zero,t3,80008734 <fail>
80008524:	fe2fcee3          	blt	t6,sp,80008520 <test_7+0x14>

80008528 <test_8>:
80008528:	00800e13          	li	t3,8
8000852c:	00100f93          	li	t6,1
80008530:	ffe00113          	li	sp,-2
80008534:	002fc463          	blt	t6,sp,8000853c <test_8+0x14>
80008538:	01c01463          	bne	zero,t3,80008540 <test_8+0x18>
8000853c:	1fc01c63          	bne	zero,t3,80008734 <fail>
80008540:	fe2fcee3          	blt	t6,sp,8000853c <test_8+0x14>

80008544 <test_9>:
80008544:	00900e13          	li	t3,9
80008548:	00000213          	li	tp,0
8000854c:	00000f93          	li	t6,0
80008550:	fff00113          	li	sp,-1
80008554:	1e2fc063          	blt	t6,sp,80008734 <fail>
80008558:	00120213          	add	tp,tp,1 # 1 <_entry_offset+0x1>
8000855c:	00200293          	li	t0,2
80008560:	fe5216e3          	bne	tp,t0,8000854c <test_9+0x8>

80008564 <test_10>:
80008564:	00a00e13          	li	t3,10
80008568:	00000213          	li	tp,0
8000856c:	00000f93          	li	t6,0
80008570:	fff00113          	li	sp,-1
80008574:	00000013          	nop
80008578:	1a2fce63          	blt	t6,sp,80008734 <fail>
8000857c:	00120213          	add	tp,tp,1 # 1 <_entry_offset+0x1>
80008580:	00200293          	li	t0,2
80008584:	fe5214e3          	bne	tp,t0,8000856c <test_10+0x8>

80008588 <test_11>:
80008588:	00b00e13          	li	t3,11
8000858c:	00000213          	li	tp,0
80008590:	00000f93          	li	t6,0
80008594:	fff00113          	li	sp,-1
80008598:	00000013          	nop
8000859c:	00000013          	nop
800085a0:	182fca63          	blt	t6,sp,80008734 <fail>
800085a4:	00120213          	add	tp,tp,1 # 1 <_entry_offset+0x1>
800085a8:	00200293          	li	t0,2
800085ac:	fe5212e3          	bne	tp,t0,80008590 <test_11+0x8>

800085b0 <test_12>:
800085b0:	00c00e13          	li	t3,12
800085b4:	00000213          	li	tp,0
800085b8:	00000f93          	li	t6,0
800085bc:	00000013          	nop
800085c0:	fff00113          	li	sp,-1
800085c4:	162fc863          	blt	t6,sp,80008734 <fail>
800085c8:	00120213          	add	tp,tp,1 # 1 <_entry_offset+0x1>
800085cc:	00200293          	li	t0,2
800085d0:	fe5214e3          	bne	tp,t0,800085b8 <test_12+0x8>

800085d4 <test_13>:
800085d4:	00d00e13          	li	t3,13
800085d8:	00000213          	li	tp,0
800085dc:	00000f93          	li	t6,0
800085e0:	00000013          	nop
800085e4:	fff00113          	li	sp,-1
800085e8:	00000013          	nop
800085ec:	142fc463          	blt	t6,sp,80008734 <fail>
800085f0:	00120213          	add	tp,tp,1 # 1 <_entry_offset+0x1>
800085f4:	00200293          	li	t0,2
800085f8:	fe5212e3          	bne	tp,t0,800085dc <test_13+0x8>

800085fc <test_14>:
800085fc:	00e00e13          	li	t3,14
80008600:	00000213          	li	tp,0
80008604:	00000f93          	li	t6,0
80008608:	00000013          	nop
8000860c:	00000013          	nop
80008610:	fff00113          	li	sp,-1
80008614:	122fc063          	blt	t6,sp,80008734 <fail>
80008618:	00120213          	add	tp,tp,1 # 1 <_entry_offset+0x1>
8000861c:	00200293          	li	t0,2
80008620:	fe5212e3          	bne	tp,t0,80008604 <test_14+0x8>

80008624 <test_15>:
80008624:	00f00e13          	li	t3,15
80008628:	00000213          	li	tp,0
8000862c:	00000f93          	li	t6,0
80008630:	fff00113          	li	sp,-1
80008634:	102fc063          	blt	t6,sp,80008734 <fail>
80008638:	00120213          	add	tp,tp,1 # 1 <_entry_offset+0x1>
8000863c:	00200293          	li	t0,2
80008640:	fe5216e3          	bne	tp,t0,8000862c <test_15+0x8>

80008644 <test_16>:
80008644:	01000e13          	li	t3,16
80008648:	00000213          	li	tp,0
8000864c:	00000f93          	li	t6,0
80008650:	fff00113          	li	sp,-1
80008654:	00000013          	nop
80008658:	0c2fce63          	blt	t6,sp,80008734 <fail>
8000865c:	00120213          	add	tp,tp,1 # 1 <_entry_offset+0x1>
80008660:	00200293          	li	t0,2
80008664:	fe5214e3          	bne	tp,t0,8000864c <test_16+0x8>

80008668 <test_17>:
80008668:	01100e13          	li	t3,17
8000866c:	00000213          	li	tp,0
80008670:	00000f93          	li	t6,0
80008674:	fff00113          	li	sp,-1
80008678:	00000013          	nop
8000867c:	00000013          	nop
80008680:	0a2fca63          	blt	t6,sp,80008734 <fail>
80008684:	00120213          	add	tp,tp,1 # 1 <_entry_offset+0x1>
80008688:	00200293          	li	t0,2
8000868c:	fe5212e3          	bne	tp,t0,80008670 <test_17+0x8>

80008690 <test_18>:
80008690:	01200e13          	li	t3,18
80008694:	00000213          	li	tp,0
80008698:	00000f93          	li	t6,0
8000869c:	00000013          	nop
800086a0:	fff00113          	li	sp,-1
800086a4:	082fc863          	blt	t6,sp,80008734 <fail>
800086a8:	00120213          	add	tp,tp,1 # 1 <_entry_offset+0x1>
800086ac:	00200293          	li	t0,2
800086b0:	fe5214e3          	bne	tp,t0,80008698 <test_18+0x8>

800086b4 <test_19>:
800086b4:	01300e13          	li	t3,19
800086b8:	00000213          	li	tp,0
800086bc:	00000f93          	li	t6,0
800086c0:	00000013          	nop
800086c4:	fff00113          	li	sp,-1
800086c8:	00000013          	nop
800086cc:	062fc463          	blt	t6,sp,80008734 <fail>
800086d0:	00120213          	add	tp,tp,1 # 1 <_entry_offset+0x1>
800086d4:	00200293          	li	t0,2
800086d8:	fe5212e3          	bne	tp,t0,800086bc <test_19+0x8>

800086dc <test_20>:
800086dc:	01400e13          	li	t3,20
800086e0:	00000213          	li	tp,0
800086e4:	00000f93          	li	t6,0
800086e8:	00000013          	nop
800086ec:	00000013          	nop
800086f0:	fff00113          	li	sp,-1
800086f4:	042fc063          	blt	t6,sp,80008734 <fail>
800086f8:	00120213          	add	tp,tp,1 # 1 <_entry_offset+0x1>
800086fc:	00200293          	li	t0,2
80008700:	fe5212e3          	bne	tp,t0,800086e4 <test_20+0x8>

80008704 <test_21>:
80008704:	00100f93          	li	t6,1
80008708:	01f04a63          	bgtz	t6,8000871c <test_21+0x18>
8000870c:	001f8f93          	add	t6,t6,1
80008710:	001f8f93          	add	t6,t6,1
80008714:	001f8f93          	add	t6,t6,1
80008718:	001f8f93          	add	t6,t6,1
8000871c:	001f8f93          	add	t6,t6,1
80008720:	001f8f93          	add	t6,t6,1
80008724:	00300e93          	li	t4,3
80008728:	01500e13          	li	t3,21
8000872c:	01df9463          	bne	t6,t4,80008734 <fail>
80008730:	0100006f          	j	80008740 <pass>

80008734 <fail>:
80008734:	fff00513          	li	a0,-1
80008738:	00100073          	ebreak
8000873c:	ff9ff06f          	j	80008734 <fail>

80008740 <pass>:
80008740:	00000513          	li	a0,0
80008744:	00008067          	ret

80008748 <divu>:
80008748:	01400f93          	li	t6,20
8000874c:	00600113          	li	sp,6
80008750:	022fd1b3          	divu	gp,t6,sp
80008754:	00300e93          	li	t4,3
80008758:	00200e13          	li	t3,2
8000875c:	0dd19663          	bne	gp,t4,80008828 <fail>

80008760 <test_3>:
80008760:	fec00f93          	li	t6,-20
80008764:	00600113          	li	sp,6
80008768:	022fd1b3          	divu	gp,t6,sp
8000876c:	2aaabeb7          	lui	t4,0x2aaab
80008770:	aa7e8e93          	add	t4,t4,-1369 # 2aaaaaa7 <_entry_offset+0x2aaaaaa7>
80008774:	00300e13          	li	t3,3
80008778:	0bd19863          	bne	gp,t4,80008828 <fail>

8000877c <test_4>:
8000877c:	01400f93          	li	t6,20
80008780:	ffa00113          	li	sp,-6
80008784:	022fd1b3          	divu	gp,t6,sp
80008788:	00000e93          	li	t4,0
8000878c:	00400e13          	li	t3,4
80008790:	09d19c63          	bne	gp,t4,80008828 <fail>

80008794 <test_5>:
80008794:	fec00f93          	li	t6,-20
80008798:	ffa00113          	li	sp,-6
8000879c:	022fd1b3          	divu	gp,t6,sp
800087a0:	00000e93          	li	t4,0
800087a4:	00500e13          	li	t3,5
800087a8:	09d19063          	bne	gp,t4,80008828 <fail>

800087ac <test_6>:
800087ac:	80000fb7          	lui	t6,0x80000
800087b0:	00100113          	li	sp,1
800087b4:	022fd1b3          	divu	gp,t6,sp
800087b8:	80000eb7          	lui	t4,0x80000
800087bc:	00600e13          	li	t3,6
800087c0:	07d19463          	bne	gp,t4,80008828 <fail>

800087c4 <test_7>:
800087c4:	80000fb7          	lui	t6,0x80000
800087c8:	fff00113          	li	sp,-1
800087cc:	022fd1b3          	divu	gp,t6,sp
800087d0:	00000e93          	li	t4,0
800087d4:	00700e13          	li	t3,7
800087d8:	05d19863          	bne	gp,t4,80008828 <fail>

800087dc <test_8>:
800087dc:	80000fb7          	lui	t6,0x80000
800087e0:	00000113          	li	sp,0
800087e4:	022fd1b3          	divu	gp,t6,sp
800087e8:	fff00e93          	li	t4,-1
800087ec:	00800e13          	li	t3,8
800087f0:	03d19c63          	bne	gp,t4,80008828 <fail>

800087f4 <test_9>:
800087f4:	00100f93          	li	t6,1
800087f8:	00000113          	li	sp,0
800087fc:	022fd1b3          	divu	gp,t6,sp
80008800:	fff00e93          	li	t4,-1
80008804:	00900e13          	li	t3,9
80008808:	03d19063          	bne	gp,t4,80008828 <fail>

8000880c <test_10>:
8000880c:	00000f93          	li	t6,0
80008810:	00000113          	li	sp,0
80008814:	022fd1b3          	divu	gp,t6,sp
80008818:	fff00e93          	li	t4,-1
8000881c:	00a00e13          	li	t3,10
80008820:	01d19463          	bne	gp,t4,80008828 <fail>
80008824:	0100006f          	j	80008834 <pass>

80008828 <fail>:
80008828:	fff00513          	li	a0,-1
8000882c:	00100073          	ebreak
80008830:	ff9ff06f          	j	80008828 <fail>

80008834 <pass>:
80008834:	00000513          	li	a0,0
80008838:	00008067          	ret

8000883c <jal>:
8000883c:	00200e13          	li	t3,2
80008840:	00000f93          	li	t6,0

80008844 <linkaddr_2>:
80008844:	01000fef          	jal	t6,80008854 <target_2>
80008848:	00000013          	nop
8000884c:	00000013          	nop
80008850:	0440006f          	j	80008894 <fail>

80008854 <target_2>:
80008854:	00000117          	auipc	sp,0x0
80008858:	ff010113          	add	sp,sp,-16 # 80008844 <linkaddr_2>
8000885c:	00410113          	add	sp,sp,4
80008860:	03f11a63          	bne	sp,t6,80008894 <fail>

80008864 <test_3>:
80008864:	00100113          	li	sp,1
80008868:	01400fef          	jal	t6,8000887c <test_3+0x18>
8000886c:	00110113          	add	sp,sp,1
80008870:	00110113          	add	sp,sp,1
80008874:	00110113          	add	sp,sp,1
80008878:	00110113          	add	sp,sp,1
8000887c:	00110113          	add	sp,sp,1
80008880:	00110113          	add	sp,sp,1
80008884:	00300e93          	li	t4,3
80008888:	00300e13          	li	t3,3
8000888c:	01d11463          	bne	sp,t4,80008894 <fail>
80008890:	0100006f          	j	800088a0 <pass>

80008894 <fail>:
80008894:	fff00513          	li	a0,-1
80008898:	00100073          	ebreak
8000889c:	ff9ff06f          	j	80008894 <fail>

800088a0 <pass>:
800088a0:	00000513          	li	a0,0
800088a4:	00008067          	ret

800088a8 <mulhsu>:
800088a8:	00000f93          	li	t6,0
800088ac:	00000113          	li	sp,0
800088b0:	022fa1b3          	mulhsu	gp,t6,sp
800088b4:	00000e93          	li	t4,0
800088b8:	00200e13          	li	t3,2
800088bc:	4bd19a63          	bne	gp,t4,80008d70 <fail>

800088c0 <test_3>:
800088c0:	00100f93          	li	t6,1
800088c4:	00100113          	li	sp,1
800088c8:	022fa1b3          	mulhsu	gp,t6,sp
800088cc:	00000e93          	li	t4,0
800088d0:	00300e13          	li	t3,3
800088d4:	49d19e63          	bne	gp,t4,80008d70 <fail>

800088d8 <test_4>:
800088d8:	00300f93          	li	t6,3
800088dc:	00700113          	li	sp,7
800088e0:	022fa1b3          	mulhsu	gp,t6,sp
800088e4:	00000e93          	li	t4,0
800088e8:	00400e13          	li	t3,4
800088ec:	49d19263          	bne	gp,t4,80008d70 <fail>

800088f0 <test_5>:
800088f0:	00000f93          	li	t6,0
800088f4:	ffff8137          	lui	sp,0xffff8
800088f8:	022fa1b3          	mulhsu	gp,t6,sp
800088fc:	00000e93          	li	t4,0
80008900:	00500e13          	li	t3,5
80008904:	47d19663          	bne	gp,t4,80008d70 <fail>

80008908 <test_6>:
80008908:	80000fb7          	lui	t6,0x80000
8000890c:	00000113          	li	sp,0
80008910:	022fa1b3          	mulhsu	gp,t6,sp
80008914:	00000e93          	li	t4,0
80008918:	00600e13          	li	t3,6
8000891c:	45d19a63          	bne	gp,t4,80008d70 <fail>

80008920 <test_7>:
80008920:	80000fb7          	lui	t6,0x80000
80008924:	ffff8137          	lui	sp,0xffff8
80008928:	022fa1b3          	mulhsu	gp,t6,sp
8000892c:	80004eb7          	lui	t4,0x80004
80008930:	00700e13          	li	t3,7
80008934:	43d19e63          	bne	gp,t4,80008d70 <fail>

80008938 <test_30>:
80008938:	aaaabfb7          	lui	t6,0xaaaab
8000893c:	aabf8f93          	add	t6,t6,-1365 # aaaaaaab <_end+0x2aa97aab>
80008940:	00030137          	lui	sp,0x30
80008944:	e7d10113          	add	sp,sp,-387 # 2fe7d <_entry_offset+0x2fe7d>
80008948:	022fa1b3          	mulhsu	gp,t6,sp
8000894c:	ffff0eb7          	lui	t4,0xffff0
80008950:	081e8e93          	add	t4,t4,129 # ffff0081 <_end+0x7ffdd081>
80008954:	01e00e13          	li	t3,30
80008958:	41d19c63          	bne	gp,t4,80008d70 <fail>

8000895c <test_31>:
8000895c:	00030fb7          	lui	t6,0x30
80008960:	e7df8f93          	add	t6,t6,-387 # 2fe7d <_entry_offset+0x2fe7d>
80008964:	aaaab137          	lui	sp,0xaaaab
80008968:	aab10113          	add	sp,sp,-1365 # aaaaaaab <_end+0x2aa97aab>
8000896c:	022fa1b3          	mulhsu	gp,t6,sp
80008970:	00020eb7          	lui	t4,0x20
80008974:	efee8e93          	add	t4,t4,-258 # 1fefe <_entry_offset+0x1fefe>
80008978:	01f00e13          	li	t3,31
8000897c:	3fd19a63          	bne	gp,t4,80008d70 <fail>

80008980 <test_32>:
80008980:	ff000fb7          	lui	t6,0xff000
80008984:	ff000137          	lui	sp,0xff000
80008988:	022fa1b3          	mulhsu	gp,t6,sp
8000898c:	ff010eb7          	lui	t4,0xff010
80008990:	02000e13          	li	t3,32
80008994:	3dd19e63          	bne	gp,t4,80008d70 <fail>

80008998 <test_33>:
80008998:	fff00f93          	li	t6,-1
8000899c:	fff00113          	li	sp,-1
800089a0:	022fa1b3          	mulhsu	gp,t6,sp
800089a4:	fff00e93          	li	t4,-1
800089a8:	02100e13          	li	t3,33
800089ac:	3dd19263          	bne	gp,t4,80008d70 <fail>

800089b0 <test_34>:
800089b0:	fff00f93          	li	t6,-1
800089b4:	00100113          	li	sp,1
800089b8:	022fa1b3          	mulhsu	gp,t6,sp
800089bc:	fff00e93          	li	t4,-1
800089c0:	02200e13          	li	t3,34
800089c4:	3bd19663          	bne	gp,t4,80008d70 <fail>

800089c8 <test_35>:
800089c8:	00100f93          	li	t6,1
800089cc:	fff00113          	li	sp,-1
800089d0:	022fa1b3          	mulhsu	gp,t6,sp
800089d4:	00000e93          	li	t4,0
800089d8:	02300e13          	li	t3,35
800089dc:	39d19a63          	bne	gp,t4,80008d70 <fail>

800089e0 <test_8>:
800089e0:	00d00fb7          	lui	t6,0xd00
800089e4:	00b00137          	lui	sp,0xb00
800089e8:	022fafb3          	mulhsu	t6,t6,sp
800089ec:	00009eb7          	lui	t4,0x9
800089f0:	f00e8e93          	add	t4,t4,-256 # 8f00 <_entry_offset+0x8f00>
800089f4:	00800e13          	li	t3,8
800089f8:	37df9c63          	bne	t6,t4,80008d70 <fail>

800089fc <test_9>:
800089fc:	00e00fb7          	lui	t6,0xe00
80008a00:	00b00137          	lui	sp,0xb00
80008a04:	022fa133          	mulhsu	sp,t6,sp
80008a08:	0000aeb7          	lui	t4,0xa
80008a0c:	a00e8e93          	add	t4,t4,-1536 # 9a00 <_entry_offset+0x9a00>
80008a10:	00900e13          	li	t3,9
80008a14:	35d11e63          	bne	sp,t4,80008d70 <fail>

80008a18 <test_10>:
80008a18:	00d00fb7          	lui	t6,0xd00
80008a1c:	03ffafb3          	mulhsu	t6,t6,t6
80008a20:	0000beb7          	lui	t4,0xb
80008a24:	900e8e93          	add	t4,t4,-1792 # a900 <_entry_offset+0xa900>
80008a28:	00a00e13          	li	t3,10
80008a2c:	35df9263          	bne	t6,t4,80008d70 <fail>

80008a30 <test_11>:
80008a30:	00000213          	li	tp,0
80008a34:	00d00fb7          	lui	t6,0xd00
80008a38:	00b00137          	lui	sp,0xb00
80008a3c:	022fa1b3          	mulhsu	gp,t6,sp
80008a40:	00018313          	mv	t1,gp
80008a44:	00120213          	add	tp,tp,1 # 1 <_entry_offset+0x1>
80008a48:	00200293          	li	t0,2
80008a4c:	fe5214e3          	bne	tp,t0,80008a34 <test_11+0x4>
80008a50:	00009eb7          	lui	t4,0x9
80008a54:	f00e8e93          	add	t4,t4,-256 # 8f00 <_entry_offset+0x8f00>
80008a58:	00b00e13          	li	t3,11
80008a5c:	31d31a63          	bne	t1,t4,80008d70 <fail>

80008a60 <test_12>:
80008a60:	00000213          	li	tp,0
80008a64:	00e00fb7          	lui	t6,0xe00
80008a68:	00b00137          	lui	sp,0xb00
80008a6c:	022fa1b3          	mulhsu	gp,t6,sp
80008a70:	00000013          	nop
80008a74:	00018313          	mv	t1,gp
80008a78:	00120213          	add	tp,tp,1 # 1 <_entry_offset+0x1>
80008a7c:	00200293          	li	t0,2
80008a80:	fe5212e3          	bne	tp,t0,80008a64 <test_12+0x4>
80008a84:	0000aeb7          	lui	t4,0xa
80008a88:	a00e8e93          	add	t4,t4,-1536 # 9a00 <_entry_offset+0x9a00>
80008a8c:	00c00e13          	li	t3,12
80008a90:	2fd31063          	bne	t1,t4,80008d70 <fail>

80008a94 <test_13>:
80008a94:	00000213          	li	tp,0
80008a98:	00f00fb7          	lui	t6,0xf00
80008a9c:	00b00137          	lui	sp,0xb00
80008aa0:	022fa1b3          	mulhsu	gp,t6,sp
80008aa4:	00000013          	nop
80008aa8:	00000013          	nop
80008aac:	00018313          	mv	t1,gp
80008ab0:	00120213          	add	tp,tp,1 # 1 <_entry_offset+0x1>
80008ab4:	00200293          	li	t0,2
80008ab8:	fe5210e3          	bne	tp,t0,80008a98 <test_13+0x4>
80008abc:	0000aeb7          	lui	t4,0xa
80008ac0:	500e8e93          	add	t4,t4,1280 # a500 <_entry_offset+0xa500>
80008ac4:	00d00e13          	li	t3,13
80008ac8:	2bd31463          	bne	t1,t4,80008d70 <fail>

80008acc <test_14>:
80008acc:	00000213          	li	tp,0
80008ad0:	00d00fb7          	lui	t6,0xd00
80008ad4:	00b00137          	lui	sp,0xb00
80008ad8:	022fa1b3          	mulhsu	gp,t6,sp
80008adc:	00120213          	add	tp,tp,1 # 1 <_entry_offset+0x1>
80008ae0:	00200293          	li	t0,2
80008ae4:	fe5216e3          	bne	tp,t0,80008ad0 <test_14+0x4>
80008ae8:	00009eb7          	lui	t4,0x9
80008aec:	f00e8e93          	add	t4,t4,-256 # 8f00 <_entry_offset+0x8f00>
80008af0:	00e00e13          	li	t3,14
80008af4:	27d19e63          	bne	gp,t4,80008d70 <fail>

80008af8 <test_15>:
80008af8:	00000213          	li	tp,0
80008afc:	00e00fb7          	lui	t6,0xe00
80008b00:	00b00137          	lui	sp,0xb00
80008b04:	00000013          	nop
80008b08:	022fa1b3          	mulhsu	gp,t6,sp
80008b0c:	00120213          	add	tp,tp,1 # 1 <_entry_offset+0x1>
80008b10:	00200293          	li	t0,2
80008b14:	fe5214e3          	bne	tp,t0,80008afc <test_15+0x4>
80008b18:	0000aeb7          	lui	t4,0xa
80008b1c:	a00e8e93          	add	t4,t4,-1536 # 9a00 <_entry_offset+0x9a00>
80008b20:	00f00e13          	li	t3,15
80008b24:	25d19663          	bne	gp,t4,80008d70 <fail>

80008b28 <test_16>:
80008b28:	00000213          	li	tp,0
80008b2c:	00f00fb7          	lui	t6,0xf00
80008b30:	00b00137          	lui	sp,0xb00
80008b34:	00000013          	nop
80008b38:	00000013          	nop
80008b3c:	022fa1b3          	mulhsu	gp,t6,sp
80008b40:	00120213          	add	tp,tp,1 # 1 <_entry_offset+0x1>
80008b44:	00200293          	li	t0,2
80008b48:	fe5212e3          	bne	tp,t0,80008b2c <test_16+0x4>
80008b4c:	0000aeb7          	lui	t4,0xa
80008b50:	500e8e93          	add	t4,t4,1280 # a500 <_entry_offset+0xa500>
80008b54:	01000e13          	li	t3,16
80008b58:	21d19c63          	bne	gp,t4,80008d70 <fail>

80008b5c <test_17>:
80008b5c:	00000213          	li	tp,0
80008b60:	00d00fb7          	lui	t6,0xd00
80008b64:	00000013          	nop
80008b68:	00b00137          	lui	sp,0xb00
80008b6c:	022fa1b3          	mulhsu	gp,t6,sp
80008b70:	00120213          	add	tp,tp,1 # 1 <_entry_offset+0x1>
80008b74:	00200293          	li	t0,2
80008b78:	fe5214e3          	bne	tp,t0,80008b60 <test_17+0x4>
80008b7c:	00009eb7          	lui	t4,0x9
80008b80:	f00e8e93          	add	t4,t4,-256 # 8f00 <_entry_offset+0x8f00>
80008b84:	01100e13          	li	t3,17
80008b88:	1fd19463          	bne	gp,t4,80008d70 <fail>

80008b8c <test_18>:
80008b8c:	00000213          	li	tp,0
80008b90:	00e00fb7          	lui	t6,0xe00
80008b94:	00000013          	nop
80008b98:	00b00137          	lui	sp,0xb00
80008b9c:	00000013          	nop
80008ba0:	022fa1b3          	mulhsu	gp,t6,sp
80008ba4:	00120213          	add	tp,tp,1 # 1 <_entry_offset+0x1>
80008ba8:	00200293          	li	t0,2
80008bac:	fe5212e3          	bne	tp,t0,80008b90 <test_18+0x4>
80008bb0:	0000aeb7          	lui	t4,0xa
80008bb4:	a00e8e93          	add	t4,t4,-1536 # 9a00 <_entry_offset+0x9a00>
80008bb8:	01200e13          	li	t3,18
80008bbc:	1bd19a63          	bne	gp,t4,80008d70 <fail>

80008bc0 <test_19>:
80008bc0:	00000213          	li	tp,0
80008bc4:	00f00fb7          	lui	t6,0xf00
80008bc8:	00000013          	nop
80008bcc:	00000013          	nop
80008bd0:	00b00137          	lui	sp,0xb00
80008bd4:	022fa1b3          	mulhsu	gp,t6,sp
80008bd8:	00120213          	add	tp,tp,1 # 1 <_entry_offset+0x1>
80008bdc:	00200293          	li	t0,2
80008be0:	fe5212e3          	bne	tp,t0,80008bc4 <test_19+0x4>
80008be4:	0000aeb7          	lui	t4,0xa
80008be8:	500e8e93          	add	t4,t4,1280 # a500 <_entry_offset+0xa500>
80008bec:	01300e13          	li	t3,19
80008bf0:	19d19063          	bne	gp,t4,80008d70 <fail>

80008bf4 <test_20>:
80008bf4:	00000213          	li	tp,0
80008bf8:	00b00137          	lui	sp,0xb00
80008bfc:	00d00fb7          	lui	t6,0xd00
80008c00:	022fa1b3          	mulhsu	gp,t6,sp
80008c04:	00120213          	add	tp,tp,1 # 1 <_entry_offset+0x1>
80008c08:	00200293          	li	t0,2
80008c0c:	fe5216e3          	bne	tp,t0,80008bf8 <test_20+0x4>
80008c10:	00009eb7          	lui	t4,0x9
80008c14:	f00e8e93          	add	t4,t4,-256 # 8f00 <_entry_offset+0x8f00>
80008c18:	01400e13          	li	t3,20
80008c1c:	15d19a63          	bne	gp,t4,80008d70 <fail>

80008c20 <test_21>:
80008c20:	00000213          	li	tp,0
80008c24:	00b00137          	lui	sp,0xb00
80008c28:	00e00fb7          	lui	t6,0xe00
80008c2c:	00000013          	nop
80008c30:	022fa1b3          	mulhsu	gp,t6,sp
80008c34:	00120213          	add	tp,tp,1 # 1 <_entry_offset+0x1>
80008c38:	00200293          	li	t0,2
80008c3c:	fe5214e3          	bne	tp,t0,80008c24 <test_21+0x4>
80008c40:	0000aeb7          	lui	t4,0xa
80008c44:	a00e8e93          	add	t4,t4,-1536 # 9a00 <_entry_offset+0x9a00>
80008c48:	01500e13          	li	t3,21
80008c4c:	13d19263          	bne	gp,t4,80008d70 <fail>

80008c50 <test_22>:
80008c50:	00000213          	li	tp,0
80008c54:	00b00137          	lui	sp,0xb00
80008c58:	00f00fb7          	lui	t6,0xf00
80008c5c:	00000013          	nop
80008c60:	00000013          	nop
80008c64:	022fa1b3          	mulhsu	gp,t6,sp
80008c68:	00120213          	add	tp,tp,1 # 1 <_entry_offset+0x1>
80008c6c:	00200293          	li	t0,2
80008c70:	fe5212e3          	bne	tp,t0,80008c54 <test_22+0x4>
80008c74:	0000aeb7          	lui	t4,0xa
80008c78:	500e8e93          	add	t4,t4,1280 # a500 <_entry_offset+0xa500>
80008c7c:	01600e13          	li	t3,22
80008c80:	0fd19863          	bne	gp,t4,80008d70 <fail>

80008c84 <test_23>:
80008c84:	00000213          	li	tp,0
80008c88:	00b00137          	lui	sp,0xb00
80008c8c:	00000013          	nop
80008c90:	00d00fb7          	lui	t6,0xd00
80008c94:	022fa1b3          	mulhsu	gp,t6,sp
80008c98:	00120213          	add	tp,tp,1 # 1 <_entry_offset+0x1>
80008c9c:	00200293          	li	t0,2
80008ca0:	fe5214e3          	bne	tp,t0,80008c88 <test_23+0x4>
80008ca4:	00009eb7          	lui	t4,0x9
80008ca8:	f00e8e93          	add	t4,t4,-256 # 8f00 <_entry_offset+0x8f00>
80008cac:	01700e13          	li	t3,23
80008cb0:	0dd19063          	bne	gp,t4,80008d70 <fail>

80008cb4 <test_24>:
80008cb4:	00000213          	li	tp,0
80008cb8:	00b00137          	lui	sp,0xb00
80008cbc:	00000013          	nop
80008cc0:	00e00fb7          	lui	t6,0xe00
80008cc4:	00000013          	nop
80008cc8:	022fa1b3          	mulhsu	gp,t6,sp
80008ccc:	00120213          	add	tp,tp,1 # 1 <_entry_offset+0x1>
80008cd0:	00200293          	li	t0,2
80008cd4:	fe5212e3          	bne	tp,t0,80008cb8 <test_24+0x4>
80008cd8:	0000aeb7          	lui	t4,0xa
80008cdc:	a00e8e93          	add	t4,t4,-1536 # 9a00 <_entry_offset+0x9a00>
80008ce0:	01800e13          	li	t3,24
80008ce4:	09d19663          	bne	gp,t4,80008d70 <fail>

80008ce8 <test_25>:
80008ce8:	00000213          	li	tp,0
80008cec:	00b00137          	lui	sp,0xb00
80008cf0:	00000013          	nop
80008cf4:	00000013          	nop
80008cf8:	00f00fb7          	lui	t6,0xf00
80008cfc:	022fa1b3          	mulhsu	gp,t6,sp
80008d00:	00120213          	add	tp,tp,1 # 1 <_entry_offset+0x1>
80008d04:	00200293          	li	t0,2
80008d08:	fe5212e3          	bne	tp,t0,80008cec <test_25+0x4>
80008d0c:	0000aeb7          	lui	t4,0xa
80008d10:	500e8e93          	add	t4,t4,1280 # a500 <_entry_offset+0xa500>
80008d14:	01900e13          	li	t3,25
80008d18:	05d19c63          	bne	gp,t4,80008d70 <fail>

80008d1c <test_26>:
80008d1c:	7c000fb7          	lui	t6,0x7c000
80008d20:	03f02133          	mulhsu	sp,zero,t6
80008d24:	00000e93          	li	t4,0
80008d28:	01a00e13          	li	t3,26
80008d2c:	05d11263          	bne	sp,t4,80008d70 <fail>

80008d30 <test_27>:
80008d30:	80000fb7          	lui	t6,0x80000
80008d34:	020fa133          	mulhsu	sp,t6,zero
80008d38:	00000e93          	li	t4,0
80008d3c:	01b00e13          	li	t3,27
80008d40:	03d11863          	bne	sp,t4,80008d70 <fail>

80008d44 <test_28>:
80008d44:	02002fb3          	mulhsu	t6,zero,zero
80008d48:	00000e93          	li	t4,0
80008d4c:	01c00e13          	li	t3,28
80008d50:	03df9063          	bne	t6,t4,80008d70 <fail>

80008d54 <test_29>:
80008d54:	02100fb7          	lui	t6,0x2100
80008d58:	02200137          	lui	sp,0x2200
80008d5c:	022fa033          	mulhsu	zero,t6,sp
80008d60:	00000e93          	li	t4,0
80008d64:	01d00e13          	li	t3,29
80008d68:	01d01463          	bne	zero,t4,80008d70 <fail>
80008d6c:	0100006f          	j	80008d7c <pass>

80008d70 <fail>:
80008d70:	fff00513          	li	a0,-1
80008d74:	00100073          	ebreak
80008d78:	ff9ff06f          	j	80008d70 <fail>

80008d7c <pass>:
80008d7c:	00000513          	li	a0,0
80008d80:	00008067          	ret

80008d84 <lb>:
80008d84:	00002f97          	auipc	t6,0x2
80008d88:	e4cf8f93          	add	t6,t6,-436 # 8000abd0 <tdat>
80008d8c:	000f8183          	lb	gp,0(t6)
80008d90:	fff00e93          	li	t4,-1
80008d94:	00200e13          	li	t3,2
80008d98:	23d19c63          	bne	gp,t4,80008fd0 <fail>

80008d9c <test_3>:
80008d9c:	00002f97          	auipc	t6,0x2
80008da0:	e34f8f93          	add	t6,t6,-460 # 8000abd0 <tdat>
80008da4:	001f8183          	lb	gp,1(t6)
80008da8:	00000e93          	li	t4,0
80008dac:	00300e13          	li	t3,3
80008db0:	23d19063          	bne	gp,t4,80008fd0 <fail>

80008db4 <test_4>:
80008db4:	00002f97          	auipc	t6,0x2
80008db8:	e1cf8f93          	add	t6,t6,-484 # 8000abd0 <tdat>
80008dbc:	002f8183          	lb	gp,2(t6)
80008dc0:	ff000e93          	li	t4,-16
80008dc4:	00400e13          	li	t3,4
80008dc8:	21d19463          	bne	gp,t4,80008fd0 <fail>

80008dcc <test_5>:
80008dcc:	00002f97          	auipc	t6,0x2
80008dd0:	e04f8f93          	add	t6,t6,-508 # 8000abd0 <tdat>
80008dd4:	003f8183          	lb	gp,3(t6)
80008dd8:	00f00e93          	li	t4,15
80008ddc:	00500e13          	li	t3,5
80008de0:	1fd19863          	bne	gp,t4,80008fd0 <fail>

80008de4 <test_6>:
80008de4:	00002f97          	auipc	t6,0x2
80008de8:	deff8f93          	add	t6,t6,-529 # 8000abd3 <tdat4>
80008dec:	ffdf8183          	lb	gp,-3(t6)
80008df0:	fff00e93          	li	t4,-1
80008df4:	00600e13          	li	t3,6
80008df8:	1dd19c63          	bne	gp,t4,80008fd0 <fail>

80008dfc <test_7>:
80008dfc:	00002f97          	auipc	t6,0x2
80008e00:	dd7f8f93          	add	t6,t6,-553 # 8000abd3 <tdat4>
80008e04:	ffef8183          	lb	gp,-2(t6)
80008e08:	00000e93          	li	t4,0
80008e0c:	00700e13          	li	t3,7
80008e10:	1dd19063          	bne	gp,t4,80008fd0 <fail>

80008e14 <test_8>:
80008e14:	00002f97          	auipc	t6,0x2
80008e18:	dbff8f93          	add	t6,t6,-577 # 8000abd3 <tdat4>
80008e1c:	ffff8183          	lb	gp,-1(t6)
80008e20:	ff000e93          	li	t4,-16
80008e24:	00800e13          	li	t3,8
80008e28:	1bd19463          	bne	gp,t4,80008fd0 <fail>

80008e2c <test_9>:
80008e2c:	00002f97          	auipc	t6,0x2
80008e30:	da7f8f93          	add	t6,t6,-601 # 8000abd3 <tdat4>
80008e34:	000f8183          	lb	gp,0(t6)
80008e38:	00f00e93          	li	t4,15
80008e3c:	00900e13          	li	t3,9
80008e40:	19d19863          	bne	gp,t4,80008fd0 <fail>

80008e44 <test_10>:
80008e44:	00002f97          	auipc	t6,0x2
80008e48:	d8cf8f93          	add	t6,t6,-628 # 8000abd0 <tdat>
80008e4c:	fe0f8f93          	add	t6,t6,-32
80008e50:	020f8183          	lb	gp,32(t6)
80008e54:	fff00e93          	li	t4,-1
80008e58:	00a00e13          	li	t3,10
80008e5c:	17d19a63          	bne	gp,t4,80008fd0 <fail>

80008e60 <test_11>:
80008e60:	00002f97          	auipc	t6,0x2
80008e64:	d70f8f93          	add	t6,t6,-656 # 8000abd0 <tdat>
80008e68:	ffaf8f93          	add	t6,t6,-6
80008e6c:	007f8183          	lb	gp,7(t6)
80008e70:	00000e93          	li	t4,0
80008e74:	00b00e13          	li	t3,11
80008e78:	15d19c63          	bne	gp,t4,80008fd0 <fail>

80008e7c <test_12>:
80008e7c:	00c00e13          	li	t3,12
80008e80:	00000213          	li	tp,0
80008e84:	00002f97          	auipc	t6,0x2
80008e88:	d4df8f93          	add	t6,t6,-691 # 8000abd1 <tdat2>
80008e8c:	001f8183          	lb	gp,1(t6)
80008e90:	00018313          	mv	t1,gp
80008e94:	ff000e93          	li	t4,-16
80008e98:	13d31c63          	bne	t1,t4,80008fd0 <fail>
80008e9c:	00120213          	add	tp,tp,1 # 1 <_entry_offset+0x1>
80008ea0:	00200293          	li	t0,2
80008ea4:	fe5210e3          	bne	tp,t0,80008e84 <test_12+0x8>

80008ea8 <test_13>:
80008ea8:	00d00e13          	li	t3,13
80008eac:	00000213          	li	tp,0
80008eb0:	00002f97          	auipc	t6,0x2
80008eb4:	d22f8f93          	add	t6,t6,-734 # 8000abd2 <tdat3>
80008eb8:	001f8183          	lb	gp,1(t6)
80008ebc:	00000013          	nop
80008ec0:	00018313          	mv	t1,gp
80008ec4:	00f00e93          	li	t4,15
80008ec8:	11d31463          	bne	t1,t4,80008fd0 <fail>
80008ecc:	00120213          	add	tp,tp,1 # 1 <_entry_offset+0x1>
80008ed0:	00200293          	li	t0,2
80008ed4:	fc521ee3          	bne	tp,t0,80008eb0 <test_13+0x8>

80008ed8 <test_14>:
80008ed8:	00e00e13          	li	t3,14
80008edc:	00000213          	li	tp,0
80008ee0:	00002f97          	auipc	t6,0x2
80008ee4:	cf0f8f93          	add	t6,t6,-784 # 8000abd0 <tdat>
80008ee8:	001f8183          	lb	gp,1(t6)
80008eec:	00000013          	nop
80008ef0:	00000013          	nop
80008ef4:	00018313          	mv	t1,gp
80008ef8:	00000e93          	li	t4,0
80008efc:	0dd31a63          	bne	t1,t4,80008fd0 <fail>
80008f00:	00120213          	add	tp,tp,1 # 1 <_entry_offset+0x1>
80008f04:	00200293          	li	t0,2
80008f08:	fc521ce3          	bne	tp,t0,80008ee0 <test_14+0x8>

80008f0c <test_15>:
80008f0c:	00f00e13          	li	t3,15
80008f10:	00000213          	li	tp,0
80008f14:	00002f97          	auipc	t6,0x2
80008f18:	cbdf8f93          	add	t6,t6,-835 # 8000abd1 <tdat2>
80008f1c:	001f8183          	lb	gp,1(t6)
80008f20:	ff000e93          	li	t4,-16
80008f24:	0bd19663          	bne	gp,t4,80008fd0 <fail>
80008f28:	00120213          	add	tp,tp,1 # 1 <_entry_offset+0x1>
80008f2c:	00200293          	li	t0,2
80008f30:	fe5212e3          	bne	tp,t0,80008f14 <test_15+0x8>

80008f34 <test_16>:
80008f34:	01000e13          	li	t3,16
80008f38:	00000213          	li	tp,0
80008f3c:	00002f97          	auipc	t6,0x2
80008f40:	c96f8f93          	add	t6,t6,-874 # 8000abd2 <tdat3>
80008f44:	00000013          	nop
80008f48:	001f8183          	lb	gp,1(t6)
80008f4c:	00f00e93          	li	t4,15
80008f50:	09d19063          	bne	gp,t4,80008fd0 <fail>
80008f54:	00120213          	add	tp,tp,1 # 1 <_entry_offset+0x1>
80008f58:	00200293          	li	t0,2
80008f5c:	fe5210e3          	bne	tp,t0,80008f3c <test_16+0x8>

80008f60 <test_17>:
80008f60:	01100e13          	li	t3,17
80008f64:	00000213          	li	tp,0
80008f68:	00002f97          	auipc	t6,0x2
80008f6c:	c68f8f93          	add	t6,t6,-920 # 8000abd0 <tdat>
80008f70:	00000013          	nop
80008f74:	00000013          	nop
80008f78:	001f8183          	lb	gp,1(t6)
80008f7c:	00000e93          	li	t4,0
80008f80:	05d19863          	bne	gp,t4,80008fd0 <fail>
80008f84:	00120213          	add	tp,tp,1 # 1 <_entry_offset+0x1>
80008f88:	00200293          	li	t0,2
80008f8c:	fc521ee3          	bne	tp,t0,80008f68 <test_17+0x8>

80008f90 <test_18>:
80008f90:	00002197          	auipc	gp,0x2
80008f94:	c4018193          	add	gp,gp,-960 # 8000abd0 <tdat>
80008f98:	00018103          	lb	sp,0(gp)
80008f9c:	00200113          	li	sp,2
80008fa0:	00200e93          	li	t4,2
80008fa4:	01200e13          	li	t3,18
80008fa8:	03d11463          	bne	sp,t4,80008fd0 <fail>

80008fac <test_19>:
80008fac:	00002197          	auipc	gp,0x2
80008fb0:	c2418193          	add	gp,gp,-988 # 8000abd0 <tdat>
80008fb4:	00018103          	lb	sp,0(gp)
80008fb8:	00000013          	nop
80008fbc:	00200113          	li	sp,2
80008fc0:	00200e93          	li	t4,2
80008fc4:	01300e13          	li	t3,19
80008fc8:	01d11463          	bne	sp,t4,80008fd0 <fail>
80008fcc:	0100006f          	j	80008fdc <pass>

80008fd0 <fail>:
80008fd0:	fff00513          	li	a0,-1
80008fd4:	00100073          	ebreak
80008fd8:	ff9ff06f          	j	80008fd0 <fail>

80008fdc <pass>:
80008fdc:	00000513          	li	a0,0
80008fe0:	00008067          	ret

80008fe4 <slli>:
80008fe4:	00100f93          	li	t6,1
80008fe8:	000f9193          	sll	gp,t6,0x0
80008fec:	00100e93          	li	t4,1
80008ff0:	00200e13          	li	t3,2
80008ff4:	27d19a63          	bne	gp,t4,80009268 <fail>

80008ff8 <test_3>:
80008ff8:	00100f93          	li	t6,1
80008ffc:	001f9193          	sll	gp,t6,0x1
80009000:	00200e93          	li	t4,2
80009004:	00300e13          	li	t3,3
80009008:	27d19063          	bne	gp,t4,80009268 <fail>

8000900c <test_4>:
8000900c:	00100f93          	li	t6,1
80009010:	007f9193          	sll	gp,t6,0x7
80009014:	08000e93          	li	t4,128
80009018:	00400e13          	li	t3,4
8000901c:	25d19663          	bne	gp,t4,80009268 <fail>

80009020 <test_5>:
80009020:	00100f93          	li	t6,1
80009024:	00ef9193          	sll	gp,t6,0xe
80009028:	00004eb7          	lui	t4,0x4
8000902c:	00500e13          	li	t3,5
80009030:	23d19c63          	bne	gp,t4,80009268 <fail>

80009034 <test_6>:
80009034:	00100f93          	li	t6,1
80009038:	01ff9193          	sll	gp,t6,0x1f
8000903c:	80000eb7          	lui	t4,0x80000
80009040:	00600e13          	li	t3,6
80009044:	23d19263          	bne	gp,t4,80009268 <fail>

80009048 <test_7>:
80009048:	fff00f93          	li	t6,-1
8000904c:	000f9193          	sll	gp,t6,0x0
80009050:	fff00e93          	li	t4,-1
80009054:	00700e13          	li	t3,7
80009058:	21d19863          	bne	gp,t4,80009268 <fail>

8000905c <test_8>:
8000905c:	fff00f93          	li	t6,-1
80009060:	001f9193          	sll	gp,t6,0x1
80009064:	ffe00e93          	li	t4,-2
80009068:	00800e13          	li	t3,8
8000906c:	1fd19e63          	bne	gp,t4,80009268 <fail>

80009070 <test_9>:
80009070:	fff00f93          	li	t6,-1
80009074:	007f9193          	sll	gp,t6,0x7
80009078:	f8000e93          	li	t4,-128
8000907c:	00900e13          	li	t3,9
80009080:	1fd19463          	bne	gp,t4,80009268 <fail>

80009084 <test_10>:
80009084:	fff00f93          	li	t6,-1
80009088:	00ef9193          	sll	gp,t6,0xe
8000908c:	ffffceb7          	lui	t4,0xffffc
80009090:	00a00e13          	li	t3,10
80009094:	1dd19a63          	bne	gp,t4,80009268 <fail>

80009098 <test_11>:
80009098:	fff00f93          	li	t6,-1
8000909c:	01ff9193          	sll	gp,t6,0x1f
800090a0:	80000eb7          	lui	t4,0x80000
800090a4:	00b00e13          	li	t3,11
800090a8:	1dd19063          	bne	gp,t4,80009268 <fail>

800090ac <test_12>:
800090ac:	21212fb7          	lui	t6,0x21212
800090b0:	121f8f93          	add	t6,t6,289 # 21212121 <_entry_offset+0x21212121>
800090b4:	000f9193          	sll	gp,t6,0x0
800090b8:	21212eb7          	lui	t4,0x21212
800090bc:	121e8e93          	add	t4,t4,289 # 21212121 <_entry_offset+0x21212121>
800090c0:	00c00e13          	li	t3,12
800090c4:	1bd19263          	bne	gp,t4,80009268 <fail>

800090c8 <test_13>:
800090c8:	21212fb7          	lui	t6,0x21212
800090cc:	121f8f93          	add	t6,t6,289 # 21212121 <_entry_offset+0x21212121>
800090d0:	001f9193          	sll	gp,t6,0x1
800090d4:	42424eb7          	lui	t4,0x42424
800090d8:	242e8e93          	add	t4,t4,578 # 42424242 <_entry_offset+0x42424242>
800090dc:	00d00e13          	li	t3,13
800090e0:	19d19463          	bne	gp,t4,80009268 <fail>

800090e4 <test_14>:
800090e4:	21212fb7          	lui	t6,0x21212
800090e8:	121f8f93          	add	t6,t6,289 # 21212121 <_entry_offset+0x21212121>
800090ec:	007f9193          	sll	gp,t6,0x7
800090f0:	90909eb7          	lui	t4,0x90909
800090f4:	080e8e93          	add	t4,t4,128 # 90909080 <_end+0x108f6080>
800090f8:	00e00e13          	li	t3,14
800090fc:	17d19663          	bne	gp,t4,80009268 <fail>

80009100 <test_15>:
80009100:	21212fb7          	lui	t6,0x21212
80009104:	121f8f93          	add	t6,t6,289 # 21212121 <_entry_offset+0x21212121>
80009108:	00ef9193          	sll	gp,t6,0xe
8000910c:	48484eb7          	lui	t4,0x48484
80009110:	00f00e13          	li	t3,15
80009114:	15d19a63          	bne	gp,t4,80009268 <fail>

80009118 <test_16>:
80009118:	21212fb7          	lui	t6,0x21212
8000911c:	121f8f93          	add	t6,t6,289 # 21212121 <_entry_offset+0x21212121>
80009120:	01ff9193          	sll	gp,t6,0x1f
80009124:	80000eb7          	lui	t4,0x80000
80009128:	01000e13          	li	t3,16
8000912c:	13d19e63          	bne	gp,t4,80009268 <fail>

80009130 <test_17>:
80009130:	00100f93          	li	t6,1
80009134:	007f9f93          	sll	t6,t6,0x7
80009138:	08000e93          	li	t4,128
8000913c:	01100e13          	li	t3,17
80009140:	13df9463          	bne	t6,t4,80009268 <fail>

80009144 <test_18>:
80009144:	00000213          	li	tp,0
80009148:	00100f93          	li	t6,1
8000914c:	007f9193          	sll	gp,t6,0x7
80009150:	00018313          	mv	t1,gp
80009154:	00120213          	add	tp,tp,1 # 1 <_entry_offset+0x1>
80009158:	00200293          	li	t0,2
8000915c:	fe5216e3          	bne	tp,t0,80009148 <test_18+0x4>
80009160:	08000e93          	li	t4,128
80009164:	01200e13          	li	t3,18
80009168:	11d31063          	bne	t1,t4,80009268 <fail>

8000916c <test_19>:
8000916c:	00000213          	li	tp,0
80009170:	00100f93          	li	t6,1
80009174:	00ef9193          	sll	gp,t6,0xe
80009178:	00000013          	nop
8000917c:	00018313          	mv	t1,gp
80009180:	00120213          	add	tp,tp,1 # 1 <_entry_offset+0x1>
80009184:	00200293          	li	t0,2
80009188:	fe5214e3          	bne	tp,t0,80009170 <test_19+0x4>
8000918c:	00004eb7          	lui	t4,0x4
80009190:	01300e13          	li	t3,19
80009194:	0dd31a63          	bne	t1,t4,80009268 <fail>

80009198 <test_20>:
80009198:	00000213          	li	tp,0
8000919c:	00100f93          	li	t6,1
800091a0:	01ff9193          	sll	gp,t6,0x1f
800091a4:	00000013          	nop
800091a8:	00000013          	nop
800091ac:	00018313          	mv	t1,gp
800091b0:	00120213          	add	tp,tp,1 # 1 <_entry_offset+0x1>
800091b4:	00200293          	li	t0,2
800091b8:	fe5212e3          	bne	tp,t0,8000919c <test_20+0x4>
800091bc:	80000eb7          	lui	t4,0x80000
800091c0:	01400e13          	li	t3,20
800091c4:	0bd31263          	bne	t1,t4,80009268 <fail>

800091c8 <test_21>:
800091c8:	00000213          	li	tp,0
800091cc:	00100f93          	li	t6,1
800091d0:	007f9193          	sll	gp,t6,0x7
800091d4:	00120213          	add	tp,tp,1 # 1 <_entry_offset+0x1>
800091d8:	00200293          	li	t0,2
800091dc:	fe5218e3          	bne	tp,t0,800091cc <test_21+0x4>
800091e0:	08000e93          	li	t4,128
800091e4:	01500e13          	li	t3,21
800091e8:	09d19063          	bne	gp,t4,80009268 <fail>

800091ec <test_22>:
800091ec:	00000213          	li	tp,0
800091f0:	00100f93          	li	t6,1
800091f4:	00000013          	nop
800091f8:	00ef9193          	sll	gp,t6,0xe
800091fc:	00120213          	add	tp,tp,1 # 1 <_entry_offset+0x1>
80009200:	00200293          	li	t0,2
80009204:	fe5216e3          	bne	tp,t0,800091f0 <test_22+0x4>
80009208:	00004eb7          	lui	t4,0x4
8000920c:	01600e13          	li	t3,22
80009210:	05d19c63          	bne	gp,t4,80009268 <fail>

80009214 <test_23>:
80009214:	00000213          	li	tp,0
80009218:	00100f93          	li	t6,1
8000921c:	00000013          	nop
80009220:	00000013          	nop
80009224:	01ff9193          	sll	gp,t6,0x1f
80009228:	00120213          	add	tp,tp,1 # 1 <_entry_offset+0x1>
8000922c:	00200293          	li	t0,2
80009230:	fe5214e3          	bne	tp,t0,80009218 <test_23+0x4>
80009234:	80000eb7          	lui	t4,0x80000
80009238:	01700e13          	li	t3,23
8000923c:	03d19663          	bne	gp,t4,80009268 <fail>

80009240 <test_24>:
80009240:	01f01f93          	sll	t6,zero,0x1f
80009244:	00000e93          	li	t4,0
80009248:	01800e13          	li	t3,24
8000924c:	01df9e63          	bne	t6,t4,80009268 <fail>

80009250 <test_25>:
80009250:	02100f93          	li	t6,33
80009254:	014f9013          	sll	zero,t6,0x14
80009258:	00000e93          	li	t4,0
8000925c:	01900e13          	li	t3,25
80009260:	01d01463          	bne	zero,t4,80009268 <fail>
80009264:	0100006f          	j	80009274 <pass>

80009268 <fail>:
80009268:	fff00513          	li	a0,-1
8000926c:	00100073          	ebreak
80009270:	ff9ff06f          	j	80009268 <fail>

80009274 <pass>:
80009274:	00000513          	li	a0,0
80009278:	00008067          	ret

8000927c <addi>:
8000927c:	00000f93          	li	t6,0
80009280:	000f8193          	mv	gp,t6
80009284:	00000e93          	li	t4,0
80009288:	00200e13          	li	t3,2
8000928c:	27d19c63          	bne	gp,t4,80009504 <fail>

80009290 <test_3>:
80009290:	00100f93          	li	t6,1
80009294:	001f8193          	add	gp,t6,1
80009298:	00200e93          	li	t4,2
8000929c:	00300e13          	li	t3,3
800092a0:	27d19263          	bne	gp,t4,80009504 <fail>

800092a4 <test_4>:
800092a4:	00300f93          	li	t6,3
800092a8:	007f8193          	add	gp,t6,7
800092ac:	00a00e93          	li	t4,10
800092b0:	00400e13          	li	t3,4
800092b4:	25d19863          	bne	gp,t4,80009504 <fail>

800092b8 <test_5>:
800092b8:	00000f93          	li	t6,0
800092bc:	800f8193          	add	gp,t6,-2048
800092c0:	80000e93          	li	t4,-2048
800092c4:	00500e13          	li	t3,5
800092c8:	23d19e63          	bne	gp,t4,80009504 <fail>

800092cc <test_6>:
800092cc:	80000fb7          	lui	t6,0x80000
800092d0:	000f8193          	mv	gp,t6
800092d4:	80000eb7          	lui	t4,0x80000
800092d8:	00600e13          	li	t3,6
800092dc:	23d19463          	bne	gp,t4,80009504 <fail>

800092e0 <test_7>:
800092e0:	80000fb7          	lui	t6,0x80000
800092e4:	800f8193          	add	gp,t6,-2048 # 7ffff800 <_entry_offset+0x7ffff800>
800092e8:	80000eb7          	lui	t4,0x80000
800092ec:	800e8e93          	add	t4,t4,-2048 # 7ffff800 <_entry_offset+0x7ffff800>
800092f0:	00700e13          	li	t3,7
800092f4:	21d19863          	bne	gp,t4,80009504 <fail>

800092f8 <test_8>:
800092f8:	00000f93          	li	t6,0
800092fc:	7fff8193          	add	gp,t6,2047
80009300:	7ff00e93          	li	t4,2047
80009304:	00800e13          	li	t3,8
80009308:	1fd19e63          	bne	gp,t4,80009504 <fail>

8000930c <test_9>:
8000930c:	80000fb7          	lui	t6,0x80000
80009310:	ffff8f93          	add	t6,t6,-1 # 7fffffff <_entry_offset+0x7fffffff>
80009314:	000f8193          	mv	gp,t6
80009318:	80000eb7          	lui	t4,0x80000
8000931c:	fffe8e93          	add	t4,t4,-1 # 7fffffff <_entry_offset+0x7fffffff>
80009320:	00900e13          	li	t3,9
80009324:	1fd19063          	bne	gp,t4,80009504 <fail>

80009328 <test_10>:
80009328:	80000fb7          	lui	t6,0x80000
8000932c:	ffff8f93          	add	t6,t6,-1 # 7fffffff <_entry_offset+0x7fffffff>
80009330:	7fff8193          	add	gp,t6,2047
80009334:	80000eb7          	lui	t4,0x80000
80009338:	7fee8e93          	add	t4,t4,2046 # 800007fe <test_20+0x6>
8000933c:	00a00e13          	li	t3,10
80009340:	1dd19263          	bne	gp,t4,80009504 <fail>

80009344 <test_11>:
80009344:	80000fb7          	lui	t6,0x80000
80009348:	7fff8193          	add	gp,t6,2047 # 800007ff <test_20+0x7>
8000934c:	80000eb7          	lui	t4,0x80000
80009350:	7ffe8e93          	add	t4,t4,2047 # 800007ff <test_20+0x7>
80009354:	00b00e13          	li	t3,11
80009358:	1bd19663          	bne	gp,t4,80009504 <fail>

8000935c <test_12>:
8000935c:	80000fb7          	lui	t6,0x80000
80009360:	ffff8f93          	add	t6,t6,-1 # 7fffffff <_entry_offset+0x7fffffff>
80009364:	800f8193          	add	gp,t6,-2048
80009368:	7ffffeb7          	lui	t4,0x7ffff
8000936c:	7ffe8e93          	add	t4,t4,2047 # 7ffff7ff <_entry_offset+0x7ffff7ff>
80009370:	00c00e13          	li	t3,12
80009374:	19d19863          	bne	gp,t4,80009504 <fail>

80009378 <test_13>:
80009378:	00000f93          	li	t6,0
8000937c:	ffff8193          	add	gp,t6,-1
80009380:	fff00e93          	li	t4,-1
80009384:	00d00e13          	li	t3,13
80009388:	17d19e63          	bne	gp,t4,80009504 <fail>

8000938c <test_14>:
8000938c:	fff00f93          	li	t6,-1
80009390:	001f8193          	add	gp,t6,1
80009394:	00000e93          	li	t4,0
80009398:	00e00e13          	li	t3,14
8000939c:	17d19463          	bne	gp,t4,80009504 <fail>

800093a0 <test_15>:
800093a0:	fff00f93          	li	t6,-1
800093a4:	ffff8193          	add	gp,t6,-1
800093a8:	ffe00e93          	li	t4,-2
800093ac:	00f00e13          	li	t3,15
800093b0:	15d19a63          	bne	gp,t4,80009504 <fail>

800093b4 <test_16>:
800093b4:	80000fb7          	lui	t6,0x80000
800093b8:	ffff8f93          	add	t6,t6,-1 # 7fffffff <_entry_offset+0x7fffffff>
800093bc:	001f8193          	add	gp,t6,1
800093c0:	80000eb7          	lui	t4,0x80000
800093c4:	01000e13          	li	t3,16
800093c8:	13d19e63          	bne	gp,t4,80009504 <fail>

800093cc <test_17>:
800093cc:	00d00f93          	li	t6,13
800093d0:	00bf8f93          	add	t6,t6,11
800093d4:	01800e93          	li	t4,24
800093d8:	01100e13          	li	t3,17
800093dc:	13df9463          	bne	t6,t4,80009504 <fail>

800093e0 <test_18>:
800093e0:	00000213          	li	tp,0
800093e4:	00d00f93          	li	t6,13
800093e8:	00bf8193          	add	gp,t6,11
800093ec:	00018313          	mv	t1,gp
800093f0:	00120213          	add	tp,tp,1 # 1 <_entry_offset+0x1>
800093f4:	00200293          	li	t0,2
800093f8:	fe5216e3          	bne	tp,t0,800093e4 <test_18+0x4>
800093fc:	01800e93          	li	t4,24
80009400:	01200e13          	li	t3,18
80009404:	11d31063          	bne	t1,t4,80009504 <fail>

80009408 <test_19>:
80009408:	00000213          	li	tp,0
8000940c:	00d00f93          	li	t6,13
80009410:	00af8193          	add	gp,t6,10
80009414:	00000013          	nop
80009418:	00018313          	mv	t1,gp
8000941c:	00120213          	add	tp,tp,1 # 1 <_entry_offset+0x1>
80009420:	00200293          	li	t0,2
80009424:	fe5214e3          	bne	tp,t0,8000940c <test_19+0x4>
80009428:	01700e93          	li	t4,23
8000942c:	01300e13          	li	t3,19
80009430:	0dd31a63          	bne	t1,t4,80009504 <fail>

80009434 <test_20>:
80009434:	00000213          	li	tp,0
80009438:	00d00f93          	li	t6,13
8000943c:	009f8193          	add	gp,t6,9
80009440:	00000013          	nop
80009444:	00000013          	nop
80009448:	00018313          	mv	t1,gp
8000944c:	00120213          	add	tp,tp,1 # 1 <_entry_offset+0x1>
80009450:	00200293          	li	t0,2
80009454:	fe5212e3          	bne	tp,t0,80009438 <test_20+0x4>
80009458:	01600e93          	li	t4,22
8000945c:	01400e13          	li	t3,20
80009460:	0bd31263          	bne	t1,t4,80009504 <fail>

80009464 <test_21>:
80009464:	00000213          	li	tp,0
80009468:	00d00f93          	li	t6,13
8000946c:	00bf8193          	add	gp,t6,11
80009470:	00120213          	add	tp,tp,1 # 1 <_entry_offset+0x1>
80009474:	00200293          	li	t0,2
80009478:	fe5218e3          	bne	tp,t0,80009468 <test_21+0x4>
8000947c:	01800e93          	li	t4,24
80009480:	01500e13          	li	t3,21
80009484:	09d19063          	bne	gp,t4,80009504 <fail>

80009488 <test_22>:
80009488:	00000213          	li	tp,0
8000948c:	00d00f93          	li	t6,13
80009490:	00000013          	nop
80009494:	00af8193          	add	gp,t6,10
80009498:	00120213          	add	tp,tp,1 # 1 <_entry_offset+0x1>
8000949c:	00200293          	li	t0,2
800094a0:	fe5216e3          	bne	tp,t0,8000948c <test_22+0x4>
800094a4:	01700e93          	li	t4,23
800094a8:	01600e13          	li	t3,22
800094ac:	05d19c63          	bne	gp,t4,80009504 <fail>

800094b0 <test_23>:
800094b0:	00000213          	li	tp,0
800094b4:	00d00f93          	li	t6,13
800094b8:	00000013          	nop
800094bc:	00000013          	nop
800094c0:	009f8193          	add	gp,t6,9
800094c4:	00120213          	add	tp,tp,1 # 1 <_entry_offset+0x1>
800094c8:	00200293          	li	t0,2
800094cc:	fe5214e3          	bne	tp,t0,800094b4 <test_23+0x4>
800094d0:	01600e93          	li	t4,22
800094d4:	01700e13          	li	t3,23
800094d8:	03d19663          	bne	gp,t4,80009504 <fail>

800094dc <test_24>:
800094dc:	02000f93          	li	t6,32
800094e0:	02000e93          	li	t4,32
800094e4:	01800e13          	li	t3,24
800094e8:	01df9e63          	bne	t6,t4,80009504 <fail>

800094ec <test_25>:
800094ec:	02100f93          	li	t6,33
800094f0:	032f8013          	add	zero,t6,50
800094f4:	00000e93          	li	t4,0
800094f8:	01900e13          	li	t3,25
800094fc:	01d01463          	bne	zero,t4,80009504 <fail>
80009500:	0100006f          	j	80009510 <pass>

80009504 <fail>:
80009504:	fff00513          	li	a0,-1
80009508:	00100073          	ebreak
8000950c:	ff9ff06f          	j	80009504 <fail>

80009510 <pass>:
80009510:	00000513          	li	a0,0
80009514:	00008067          	ret

80009518 <mulh>:
80009518:	00000f93          	li	t6,0
8000951c:	00000113          	li	sp,0
80009520:	022f91b3          	mulh	gp,t6,sp
80009524:	00000e93          	li	t4,0
80009528:	00200e13          	li	t3,2
8000952c:	4bd19a63          	bne	gp,t4,800099e0 <fail>

80009530 <test_3>:
80009530:	00100f93          	li	t6,1
80009534:	00100113          	li	sp,1
80009538:	022f91b3          	mulh	gp,t6,sp
8000953c:	00000e93          	li	t4,0
80009540:	00300e13          	li	t3,3
80009544:	49d19e63          	bne	gp,t4,800099e0 <fail>

80009548 <test_4>:
80009548:	00300f93          	li	t6,3
8000954c:	00700113          	li	sp,7
80009550:	022f91b3          	mulh	gp,t6,sp
80009554:	00000e93          	li	t4,0
80009558:	00400e13          	li	t3,4
8000955c:	49d19263          	bne	gp,t4,800099e0 <fail>

80009560 <test_5>:
80009560:	00000f93          	li	t6,0
80009564:	ffff8137          	lui	sp,0xffff8
80009568:	022f91b3          	mulh	gp,t6,sp
8000956c:	00000e93          	li	t4,0
80009570:	00500e13          	li	t3,5
80009574:	47d19663          	bne	gp,t4,800099e0 <fail>

80009578 <test_6>:
80009578:	80000fb7          	lui	t6,0x80000
8000957c:	00000113          	li	sp,0
80009580:	022f91b3          	mulh	gp,t6,sp
80009584:	00000e93          	li	t4,0
80009588:	00600e13          	li	t3,6
8000958c:	45d19a63          	bne	gp,t4,800099e0 <fail>

80009590 <test_7>:
80009590:	80000fb7          	lui	t6,0x80000
80009594:	00000113          	li	sp,0
80009598:	022f91b3          	mulh	gp,t6,sp
8000959c:	00000e93          	li	t4,0
800095a0:	00700e13          	li	t3,7
800095a4:	43d19e63          	bne	gp,t4,800099e0 <fail>

800095a8 <test_30>:
800095a8:	aaaabfb7          	lui	t6,0xaaaab
800095ac:	aabf8f93          	add	t6,t6,-1365 # aaaaaaab <_end+0x2aa97aab>
800095b0:	00030137          	lui	sp,0x30
800095b4:	e7d10113          	add	sp,sp,-387 # 2fe7d <_entry_offset+0x2fe7d>
800095b8:	022f91b3          	mulh	gp,t6,sp
800095bc:	ffff0eb7          	lui	t4,0xffff0
800095c0:	081e8e93          	add	t4,t4,129 # ffff0081 <_end+0x7ffdd081>
800095c4:	01e00e13          	li	t3,30
800095c8:	41d19c63          	bne	gp,t4,800099e0 <fail>

800095cc <test_31>:
800095cc:	00030fb7          	lui	t6,0x30
800095d0:	e7df8f93          	add	t6,t6,-387 # 2fe7d <_entry_offset+0x2fe7d>
800095d4:	aaaab137          	lui	sp,0xaaaab
800095d8:	aab10113          	add	sp,sp,-1365 # aaaaaaab <_end+0x2aa97aab>
800095dc:	022f91b3          	mulh	gp,t6,sp
800095e0:	ffff0eb7          	lui	t4,0xffff0
800095e4:	081e8e93          	add	t4,t4,129 # ffff0081 <_end+0x7ffdd081>
800095e8:	01f00e13          	li	t3,31
800095ec:	3fd19a63          	bne	gp,t4,800099e0 <fail>

800095f0 <test_32>:
800095f0:	ff000fb7          	lui	t6,0xff000
800095f4:	ff000137          	lui	sp,0xff000
800095f8:	022f91b3          	mulh	gp,t6,sp
800095fc:	00010eb7          	lui	t4,0x10
80009600:	02000e13          	li	t3,32
80009604:	3dd19e63          	bne	gp,t4,800099e0 <fail>

80009608 <test_33>:
80009608:	fff00f93          	li	t6,-1
8000960c:	fff00113          	li	sp,-1
80009610:	022f91b3          	mulh	gp,t6,sp
80009614:	00000e93          	li	t4,0
80009618:	02100e13          	li	t3,33
8000961c:	3dd19263          	bne	gp,t4,800099e0 <fail>

80009620 <test_34>:
80009620:	fff00f93          	li	t6,-1
80009624:	00100113          	li	sp,1
80009628:	022f91b3          	mulh	gp,t6,sp
8000962c:	fff00e93          	li	t4,-1
80009630:	02200e13          	li	t3,34
80009634:	3bd19663          	bne	gp,t4,800099e0 <fail>

80009638 <test_35>:
80009638:	00100f93          	li	t6,1
8000963c:	fff00113          	li	sp,-1
80009640:	022f91b3          	mulh	gp,t6,sp
80009644:	fff00e93          	li	t4,-1
80009648:	02300e13          	li	t3,35
8000964c:	39d19a63          	bne	gp,t4,800099e0 <fail>

80009650 <test_8>:
80009650:	00d00fb7          	lui	t6,0xd00
80009654:	00b00137          	lui	sp,0xb00
80009658:	022f9fb3          	mulh	t6,t6,sp
8000965c:	00009eb7          	lui	t4,0x9
80009660:	f00e8e93          	add	t4,t4,-256 # 8f00 <_entry_offset+0x8f00>
80009664:	00800e13          	li	t3,8
80009668:	37df9c63          	bne	t6,t4,800099e0 <fail>

8000966c <test_9>:
8000966c:	00e00fb7          	lui	t6,0xe00
80009670:	00b00137          	lui	sp,0xb00
80009674:	022f9133          	mulh	sp,t6,sp
80009678:	0000aeb7          	lui	t4,0xa
8000967c:	a00e8e93          	add	t4,t4,-1536 # 9a00 <_entry_offset+0x9a00>
80009680:	00900e13          	li	t3,9
80009684:	35d11e63          	bne	sp,t4,800099e0 <fail>

80009688 <test_10>:
80009688:	00d00fb7          	lui	t6,0xd00
8000968c:	03ff9fb3          	mulh	t6,t6,t6
80009690:	0000beb7          	lui	t4,0xb
80009694:	900e8e93          	add	t4,t4,-1792 # a900 <_entry_offset+0xa900>
80009698:	00a00e13          	li	t3,10
8000969c:	35df9263          	bne	t6,t4,800099e0 <fail>

800096a0 <test_11>:
800096a0:	00000213          	li	tp,0
800096a4:	00d00fb7          	lui	t6,0xd00
800096a8:	00b00137          	lui	sp,0xb00
800096ac:	022f91b3          	mulh	gp,t6,sp
800096b0:	00018313          	mv	t1,gp
800096b4:	00120213          	add	tp,tp,1 # 1 <_entry_offset+0x1>
800096b8:	00200293          	li	t0,2
800096bc:	fe5214e3          	bne	tp,t0,800096a4 <test_11+0x4>
800096c0:	00009eb7          	lui	t4,0x9
800096c4:	f00e8e93          	add	t4,t4,-256 # 8f00 <_entry_offset+0x8f00>
800096c8:	00b00e13          	li	t3,11
800096cc:	31d31a63          	bne	t1,t4,800099e0 <fail>

800096d0 <test_12>:
800096d0:	00000213          	li	tp,0
800096d4:	00e00fb7          	lui	t6,0xe00
800096d8:	00b00137          	lui	sp,0xb00
800096dc:	022f91b3          	mulh	gp,t6,sp
800096e0:	00000013          	nop
800096e4:	00018313          	mv	t1,gp
800096e8:	00120213          	add	tp,tp,1 # 1 <_entry_offset+0x1>
800096ec:	00200293          	li	t0,2
800096f0:	fe5212e3          	bne	tp,t0,800096d4 <test_12+0x4>
800096f4:	0000aeb7          	lui	t4,0xa
800096f8:	a00e8e93          	add	t4,t4,-1536 # 9a00 <_entry_offset+0x9a00>
800096fc:	00c00e13          	li	t3,12
80009700:	2fd31063          	bne	t1,t4,800099e0 <fail>

80009704 <test_13>:
80009704:	00000213          	li	tp,0
80009708:	00f00fb7          	lui	t6,0xf00
8000970c:	00b00137          	lui	sp,0xb00
80009710:	022f91b3          	mulh	gp,t6,sp
80009714:	00000013          	nop
80009718:	00000013          	nop
8000971c:	00018313          	mv	t1,gp
80009720:	00120213          	add	tp,tp,1 # 1 <_entry_offset+0x1>
80009724:	00200293          	li	t0,2
80009728:	fe5210e3          	bne	tp,t0,80009708 <test_13+0x4>
8000972c:	0000aeb7          	lui	t4,0xa
80009730:	500e8e93          	add	t4,t4,1280 # a500 <_entry_offset+0xa500>
80009734:	00d00e13          	li	t3,13
80009738:	2bd31463          	bne	t1,t4,800099e0 <fail>

8000973c <test_14>:
8000973c:	00000213          	li	tp,0
80009740:	00d00fb7          	lui	t6,0xd00
80009744:	00b00137          	lui	sp,0xb00
80009748:	022f91b3          	mulh	gp,t6,sp
8000974c:	00120213          	add	tp,tp,1 # 1 <_entry_offset+0x1>
80009750:	00200293          	li	t0,2
80009754:	fe5216e3          	bne	tp,t0,80009740 <test_14+0x4>
80009758:	00009eb7          	lui	t4,0x9
8000975c:	f00e8e93          	add	t4,t4,-256 # 8f00 <_entry_offset+0x8f00>
80009760:	00e00e13          	li	t3,14
80009764:	27d19e63          	bne	gp,t4,800099e0 <fail>

80009768 <test_15>:
80009768:	00000213          	li	tp,0
8000976c:	00e00fb7          	lui	t6,0xe00
80009770:	00b00137          	lui	sp,0xb00
80009774:	00000013          	nop
80009778:	022f91b3          	mulh	gp,t6,sp
8000977c:	00120213          	add	tp,tp,1 # 1 <_entry_offset+0x1>
80009780:	00200293          	li	t0,2
80009784:	fe5214e3          	bne	tp,t0,8000976c <test_15+0x4>
80009788:	0000aeb7          	lui	t4,0xa
8000978c:	a00e8e93          	add	t4,t4,-1536 # 9a00 <_entry_offset+0x9a00>
80009790:	00f00e13          	li	t3,15
80009794:	25d19663          	bne	gp,t4,800099e0 <fail>

80009798 <test_16>:
80009798:	00000213          	li	tp,0
8000979c:	00f00fb7          	lui	t6,0xf00
800097a0:	00b00137          	lui	sp,0xb00
800097a4:	00000013          	nop
800097a8:	00000013          	nop
800097ac:	022f91b3          	mulh	gp,t6,sp
800097b0:	00120213          	add	tp,tp,1 # 1 <_entry_offset+0x1>
800097b4:	00200293          	li	t0,2
800097b8:	fe5212e3          	bne	tp,t0,8000979c <test_16+0x4>
800097bc:	0000aeb7          	lui	t4,0xa
800097c0:	500e8e93          	add	t4,t4,1280 # a500 <_entry_offset+0xa500>
800097c4:	01000e13          	li	t3,16
800097c8:	21d19c63          	bne	gp,t4,800099e0 <fail>

800097cc <test_17>:
800097cc:	00000213          	li	tp,0
800097d0:	00d00fb7          	lui	t6,0xd00
800097d4:	00000013          	nop
800097d8:	00b00137          	lui	sp,0xb00
800097dc:	022f91b3          	mulh	gp,t6,sp
800097e0:	00120213          	add	tp,tp,1 # 1 <_entry_offset+0x1>
800097e4:	00200293          	li	t0,2
800097e8:	fe5214e3          	bne	tp,t0,800097d0 <test_17+0x4>
800097ec:	00009eb7          	lui	t4,0x9
800097f0:	f00e8e93          	add	t4,t4,-256 # 8f00 <_entry_offset+0x8f00>
800097f4:	01100e13          	li	t3,17
800097f8:	1fd19463          	bne	gp,t4,800099e0 <fail>

800097fc <test_18>:
800097fc:	00000213          	li	tp,0
80009800:	00e00fb7          	lui	t6,0xe00
80009804:	00000013          	nop
80009808:	00b00137          	lui	sp,0xb00
8000980c:	00000013          	nop
80009810:	022f91b3          	mulh	gp,t6,sp
80009814:	00120213          	add	tp,tp,1 # 1 <_entry_offset+0x1>
80009818:	00200293          	li	t0,2
8000981c:	fe5212e3          	bne	tp,t0,80009800 <test_18+0x4>
80009820:	0000aeb7          	lui	t4,0xa
80009824:	a00e8e93          	add	t4,t4,-1536 # 9a00 <_entry_offset+0x9a00>
80009828:	01200e13          	li	t3,18
8000982c:	1bd19a63          	bne	gp,t4,800099e0 <fail>

80009830 <test_19>:
80009830:	00000213          	li	tp,0
80009834:	00f00fb7          	lui	t6,0xf00
80009838:	00000013          	nop
8000983c:	00000013          	nop
80009840:	00b00137          	lui	sp,0xb00
80009844:	022f91b3          	mulh	gp,t6,sp
80009848:	00120213          	add	tp,tp,1 # 1 <_entry_offset+0x1>
8000984c:	00200293          	li	t0,2
80009850:	fe5212e3          	bne	tp,t0,80009834 <test_19+0x4>
80009854:	0000aeb7          	lui	t4,0xa
80009858:	500e8e93          	add	t4,t4,1280 # a500 <_entry_offset+0xa500>
8000985c:	01300e13          	li	t3,19
80009860:	19d19063          	bne	gp,t4,800099e0 <fail>

80009864 <test_20>:
80009864:	00000213          	li	tp,0
80009868:	00b00137          	lui	sp,0xb00
8000986c:	00d00fb7          	lui	t6,0xd00
80009870:	022f91b3          	mulh	gp,t6,sp
80009874:	00120213          	add	tp,tp,1 # 1 <_entry_offset+0x1>
80009878:	00200293          	li	t0,2
8000987c:	fe5216e3          	bne	tp,t0,80009868 <test_20+0x4>
80009880:	00009eb7          	lui	t4,0x9
80009884:	f00e8e93          	add	t4,t4,-256 # 8f00 <_entry_offset+0x8f00>
80009888:	01400e13          	li	t3,20
8000988c:	15d19a63          	bne	gp,t4,800099e0 <fail>

80009890 <test_21>:
80009890:	00000213          	li	tp,0
80009894:	00b00137          	lui	sp,0xb00
80009898:	00e00fb7          	lui	t6,0xe00
8000989c:	00000013          	nop
800098a0:	022f91b3          	mulh	gp,t6,sp
800098a4:	00120213          	add	tp,tp,1 # 1 <_entry_offset+0x1>
800098a8:	00200293          	li	t0,2
800098ac:	fe5214e3          	bne	tp,t0,80009894 <test_21+0x4>
800098b0:	0000aeb7          	lui	t4,0xa
800098b4:	a00e8e93          	add	t4,t4,-1536 # 9a00 <_entry_offset+0x9a00>
800098b8:	01500e13          	li	t3,21
800098bc:	13d19263          	bne	gp,t4,800099e0 <fail>

800098c0 <test_22>:
800098c0:	00000213          	li	tp,0
800098c4:	00b00137          	lui	sp,0xb00
800098c8:	00f00fb7          	lui	t6,0xf00
800098cc:	00000013          	nop
800098d0:	00000013          	nop
800098d4:	022f91b3          	mulh	gp,t6,sp
800098d8:	00120213          	add	tp,tp,1 # 1 <_entry_offset+0x1>
800098dc:	00200293          	li	t0,2
800098e0:	fe5212e3          	bne	tp,t0,800098c4 <test_22+0x4>
800098e4:	0000aeb7          	lui	t4,0xa
800098e8:	500e8e93          	add	t4,t4,1280 # a500 <_entry_offset+0xa500>
800098ec:	01600e13          	li	t3,22
800098f0:	0fd19863          	bne	gp,t4,800099e0 <fail>

800098f4 <test_23>:
800098f4:	00000213          	li	tp,0
800098f8:	00b00137          	lui	sp,0xb00
800098fc:	00000013          	nop
80009900:	00d00fb7          	lui	t6,0xd00
80009904:	022f91b3          	mulh	gp,t6,sp
80009908:	00120213          	add	tp,tp,1 # 1 <_entry_offset+0x1>
8000990c:	00200293          	li	t0,2
80009910:	fe5214e3          	bne	tp,t0,800098f8 <test_23+0x4>
80009914:	00009eb7          	lui	t4,0x9
80009918:	f00e8e93          	add	t4,t4,-256 # 8f00 <_entry_offset+0x8f00>
8000991c:	01700e13          	li	t3,23
80009920:	0dd19063          	bne	gp,t4,800099e0 <fail>

80009924 <test_24>:
80009924:	00000213          	li	tp,0
80009928:	00b00137          	lui	sp,0xb00
8000992c:	00000013          	nop
80009930:	00e00fb7          	lui	t6,0xe00
80009934:	00000013          	nop
80009938:	022f91b3          	mulh	gp,t6,sp
8000993c:	00120213          	add	tp,tp,1 # 1 <_entry_offset+0x1>
80009940:	00200293          	li	t0,2
80009944:	fe5212e3          	bne	tp,t0,80009928 <test_24+0x4>
80009948:	0000aeb7          	lui	t4,0xa
8000994c:	a00e8e93          	add	t4,t4,-1536 # 9a00 <_entry_offset+0x9a00>
80009950:	01800e13          	li	t3,24
80009954:	09d19663          	bne	gp,t4,800099e0 <fail>

80009958 <test_25>:
80009958:	00000213          	li	tp,0
8000995c:	00b00137          	lui	sp,0xb00
80009960:	00000013          	nop
80009964:	00000013          	nop
80009968:	00f00fb7          	lui	t6,0xf00
8000996c:	022f91b3          	mulh	gp,t6,sp
80009970:	00120213          	add	tp,tp,1 # 1 <_entry_offset+0x1>
80009974:	00200293          	li	t0,2
80009978:	fe5212e3          	bne	tp,t0,8000995c <test_25+0x4>
8000997c:	0000aeb7          	lui	t4,0xa
80009980:	500e8e93          	add	t4,t4,1280 # a500 <_entry_offset+0xa500>
80009984:	01900e13          	li	t3,25
80009988:	05d19c63          	bne	gp,t4,800099e0 <fail>

8000998c <test_26>:
8000998c:	7c000fb7          	lui	t6,0x7c000
80009990:	03f01133          	mulh	sp,zero,t6
80009994:	00000e93          	li	t4,0
80009998:	01a00e13          	li	t3,26
8000999c:	05d11263          	bne	sp,t4,800099e0 <fail>

800099a0 <test_27>:
800099a0:	80000fb7          	lui	t6,0x80000
800099a4:	020f9133          	mulh	sp,t6,zero
800099a8:	00000e93          	li	t4,0
800099ac:	01b00e13          	li	t3,27
800099b0:	03d11863          	bne	sp,t4,800099e0 <fail>

800099b4 <test_28>:
800099b4:	02001fb3          	mulh	t6,zero,zero
800099b8:	00000e93          	li	t4,0
800099bc:	01c00e13          	li	t3,28
800099c0:	03df9063          	bne	t6,t4,800099e0 <fail>

800099c4 <test_29>:
800099c4:	02100fb7          	lui	t6,0x2100
800099c8:	02200137          	lui	sp,0x2200
800099cc:	022f9033          	mulh	zero,t6,sp
800099d0:	00000e93          	li	t4,0
800099d4:	01d00e13          	li	t3,29
800099d8:	01d01463          	bne	zero,t4,800099e0 <fail>
800099dc:	0100006f          	j	800099ec <pass>

800099e0 <fail>:
800099e0:	fff00513          	li	a0,-1
800099e4:	00100073          	ebreak
800099e8:	ff9ff06f          	j	800099e0 <fail>

800099ec <pass>:
800099ec:	00000513          	li	a0,0
800099f0:	00008067          	ret

800099f4 <sra>:
800099f4:	80000fb7          	lui	t6,0x80000
800099f8:	00000113          	li	sp,0
800099fc:	402fd1b3          	sra	gp,t6,sp
80009a00:	80000eb7          	lui	t4,0x80000
80009a04:	00200e13          	li	t3,2
80009a08:	59d19463          	bne	gp,t4,80009f90 <fail>

80009a0c <test_3>:
80009a0c:	80000fb7          	lui	t6,0x80000
80009a10:	00100113          	li	sp,1
80009a14:	402fd1b3          	sra	gp,t6,sp
80009a18:	c0000eb7          	lui	t4,0xc0000
80009a1c:	00300e13          	li	t3,3
80009a20:	57d19863          	bne	gp,t4,80009f90 <fail>

80009a24 <test_4>:
80009a24:	80000fb7          	lui	t6,0x80000
80009a28:	00700113          	li	sp,7
80009a2c:	402fd1b3          	sra	gp,t6,sp
80009a30:	ff000eb7          	lui	t4,0xff000
80009a34:	00400e13          	li	t3,4
80009a38:	55d19c63          	bne	gp,t4,80009f90 <fail>

80009a3c <test_5>:
80009a3c:	80000fb7          	lui	t6,0x80000
80009a40:	00e00113          	li	sp,14
80009a44:	402fd1b3          	sra	gp,t6,sp
80009a48:	fffe0eb7          	lui	t4,0xfffe0
80009a4c:	00500e13          	li	t3,5
80009a50:	55d19063          	bne	gp,t4,80009f90 <fail>

80009a54 <test_6>:
80009a54:	80000fb7          	lui	t6,0x80000
80009a58:	001f8f93          	add	t6,t6,1 # 80000001 <_start+0x1>
80009a5c:	01f00113          	li	sp,31
80009a60:	402fd1b3          	sra	gp,t6,sp
80009a64:	fff00e93          	li	t4,-1
80009a68:	00600e13          	li	t3,6
80009a6c:	53d19263          	bne	gp,t4,80009f90 <fail>

80009a70 <test_7>:
80009a70:	80000fb7          	lui	t6,0x80000
80009a74:	ffff8f93          	add	t6,t6,-1 # 7fffffff <_entry_offset+0x7fffffff>
80009a78:	00000113          	li	sp,0
80009a7c:	402fd1b3          	sra	gp,t6,sp
80009a80:	80000eb7          	lui	t4,0x80000
80009a84:	fffe8e93          	add	t4,t4,-1 # 7fffffff <_entry_offset+0x7fffffff>
80009a88:	00700e13          	li	t3,7
80009a8c:	51d19263          	bne	gp,t4,80009f90 <fail>

80009a90 <test_8>:
80009a90:	80000fb7          	lui	t6,0x80000
80009a94:	ffff8f93          	add	t6,t6,-1 # 7fffffff <_entry_offset+0x7fffffff>
80009a98:	00100113          	li	sp,1
80009a9c:	402fd1b3          	sra	gp,t6,sp
80009aa0:	40000eb7          	lui	t4,0x40000
80009aa4:	fffe8e93          	add	t4,t4,-1 # 3fffffff <_entry_offset+0x3fffffff>
80009aa8:	00800e13          	li	t3,8
80009aac:	4fd19263          	bne	gp,t4,80009f90 <fail>

80009ab0 <test_9>:
80009ab0:	80000fb7          	lui	t6,0x80000
80009ab4:	ffff8f93          	add	t6,t6,-1 # 7fffffff <_entry_offset+0x7fffffff>
80009ab8:	00700113          	li	sp,7
80009abc:	402fd1b3          	sra	gp,t6,sp
80009ac0:	01000eb7          	lui	t4,0x1000
80009ac4:	fffe8e93          	add	t4,t4,-1 # ffffff <_entry_offset+0xffffff>
80009ac8:	00900e13          	li	t3,9
80009acc:	4dd19263          	bne	gp,t4,80009f90 <fail>

80009ad0 <test_10>:
80009ad0:	80000fb7          	lui	t6,0x80000
80009ad4:	ffff8f93          	add	t6,t6,-1 # 7fffffff <_entry_offset+0x7fffffff>
80009ad8:	00e00113          	li	sp,14
80009adc:	402fd1b3          	sra	gp,t6,sp
80009ae0:	00020eb7          	lui	t4,0x20
80009ae4:	fffe8e93          	add	t4,t4,-1 # 1ffff <_entry_offset+0x1ffff>
80009ae8:	00a00e13          	li	t3,10
80009aec:	4bd19263          	bne	gp,t4,80009f90 <fail>

80009af0 <test_11>:
80009af0:	80000fb7          	lui	t6,0x80000
80009af4:	ffff8f93          	add	t6,t6,-1 # 7fffffff <_entry_offset+0x7fffffff>
80009af8:	01f00113          	li	sp,31
80009afc:	402fd1b3          	sra	gp,t6,sp
80009b00:	00000e93          	li	t4,0
80009b04:	00b00e13          	li	t3,11
80009b08:	49d19463          	bne	gp,t4,80009f90 <fail>

80009b0c <test_12>:
80009b0c:	81818fb7          	lui	t6,0x81818
80009b10:	181f8f93          	add	t6,t6,385 # 81818181 <_end+0x1805181>
80009b14:	00000113          	li	sp,0
80009b18:	402fd1b3          	sra	gp,t6,sp
80009b1c:	81818eb7          	lui	t4,0x81818
80009b20:	181e8e93          	add	t4,t4,385 # 81818181 <_end+0x1805181>
80009b24:	00c00e13          	li	t3,12
80009b28:	47d19463          	bne	gp,t4,80009f90 <fail>

80009b2c <test_13>:
80009b2c:	81818fb7          	lui	t6,0x81818
80009b30:	181f8f93          	add	t6,t6,385 # 81818181 <_end+0x1805181>
80009b34:	00100113          	li	sp,1
80009b38:	402fd1b3          	sra	gp,t6,sp
80009b3c:	c0c0ceb7          	lui	t4,0xc0c0c
80009b40:	0c0e8e93          	add	t4,t4,192 # c0c0c0c0 <_end+0x40bf90c0>
80009b44:	00d00e13          	li	t3,13
80009b48:	45d19463          	bne	gp,t4,80009f90 <fail>

80009b4c <test_14>:
80009b4c:	81818fb7          	lui	t6,0x81818
80009b50:	181f8f93          	add	t6,t6,385 # 81818181 <_end+0x1805181>
80009b54:	00700113          	li	sp,7
80009b58:	402fd1b3          	sra	gp,t6,sp
80009b5c:	ff030eb7          	lui	t4,0xff030
80009b60:	303e8e93          	add	t4,t4,771 # ff030303 <_end+0x7f01d303>
80009b64:	00e00e13          	li	t3,14
80009b68:	43d19463          	bne	gp,t4,80009f90 <fail>

80009b6c <test_15>:
80009b6c:	81818fb7          	lui	t6,0x81818
80009b70:	181f8f93          	add	t6,t6,385 # 81818181 <_end+0x1805181>
80009b74:	00e00113          	li	sp,14
80009b78:	402fd1b3          	sra	gp,t6,sp
80009b7c:	fffe0eb7          	lui	t4,0xfffe0
80009b80:	606e8e93          	add	t4,t4,1542 # fffe0606 <_end+0x7ffcd606>
80009b84:	00f00e13          	li	t3,15
80009b88:	41d19463          	bne	gp,t4,80009f90 <fail>

80009b8c <test_16>:
80009b8c:	81818fb7          	lui	t6,0x81818
80009b90:	181f8f93          	add	t6,t6,385 # 81818181 <_end+0x1805181>
80009b94:	01f00113          	li	sp,31
80009b98:	402fd1b3          	sra	gp,t6,sp
80009b9c:	fff00e93          	li	t4,-1
80009ba0:	01000e13          	li	t3,16
80009ba4:	3fd19663          	bne	gp,t4,80009f90 <fail>

80009ba8 <test_17>:
80009ba8:	81818fb7          	lui	t6,0x81818
80009bac:	181f8f93          	add	t6,t6,385 # 81818181 <_end+0x1805181>
80009bb0:	fc000113          	li	sp,-64
80009bb4:	402fd1b3          	sra	gp,t6,sp
80009bb8:	81818eb7          	lui	t4,0x81818
80009bbc:	181e8e93          	add	t4,t4,385 # 81818181 <_end+0x1805181>
80009bc0:	01100e13          	li	t3,17
80009bc4:	3dd19663          	bne	gp,t4,80009f90 <fail>

80009bc8 <test_18>:
80009bc8:	81818fb7          	lui	t6,0x81818
80009bcc:	181f8f93          	add	t6,t6,385 # 81818181 <_end+0x1805181>
80009bd0:	fc100113          	li	sp,-63
80009bd4:	402fd1b3          	sra	gp,t6,sp
80009bd8:	c0c0ceb7          	lui	t4,0xc0c0c
80009bdc:	0c0e8e93          	add	t4,t4,192 # c0c0c0c0 <_end+0x40bf90c0>
80009be0:	01200e13          	li	t3,18
80009be4:	3bd19663          	bne	gp,t4,80009f90 <fail>

80009be8 <test_19>:
80009be8:	81818fb7          	lui	t6,0x81818
80009bec:	181f8f93          	add	t6,t6,385 # 81818181 <_end+0x1805181>
80009bf0:	fc700113          	li	sp,-57
80009bf4:	402fd1b3          	sra	gp,t6,sp
80009bf8:	ff030eb7          	lui	t4,0xff030
80009bfc:	303e8e93          	add	t4,t4,771 # ff030303 <_end+0x7f01d303>
80009c00:	01300e13          	li	t3,19
80009c04:	39d19663          	bne	gp,t4,80009f90 <fail>

80009c08 <test_20>:
80009c08:	81818fb7          	lui	t6,0x81818
80009c0c:	181f8f93          	add	t6,t6,385 # 81818181 <_end+0x1805181>
80009c10:	fce00113          	li	sp,-50
80009c14:	402fd1b3          	sra	gp,t6,sp
80009c18:	fffe0eb7          	lui	t4,0xfffe0
80009c1c:	606e8e93          	add	t4,t4,1542 # fffe0606 <_end+0x7ffcd606>
80009c20:	01400e13          	li	t3,20
80009c24:	37d19663          	bne	gp,t4,80009f90 <fail>

80009c28 <test_21>:
80009c28:	81818fb7          	lui	t6,0x81818
80009c2c:	181f8f93          	add	t6,t6,385 # 81818181 <_end+0x1805181>
80009c30:	fff00113          	li	sp,-1
80009c34:	402fd1b3          	sra	gp,t6,sp
80009c38:	fff00e93          	li	t4,-1
80009c3c:	01500e13          	li	t3,21
80009c40:	35d19863          	bne	gp,t4,80009f90 <fail>

80009c44 <test_22>:
80009c44:	80000fb7          	lui	t6,0x80000
80009c48:	00700113          	li	sp,7
80009c4c:	402fdfb3          	sra	t6,t6,sp
80009c50:	ff000eb7          	lui	t4,0xff000
80009c54:	01600e13          	li	t3,22
80009c58:	33df9c63          	bne	t6,t4,80009f90 <fail>

80009c5c <test_23>:
80009c5c:	80000fb7          	lui	t6,0x80000
80009c60:	00e00113          	li	sp,14
80009c64:	402fd133          	sra	sp,t6,sp
80009c68:	fffe0eb7          	lui	t4,0xfffe0
80009c6c:	01700e13          	li	t3,23
80009c70:	33d11063          	bne	sp,t4,80009f90 <fail>

80009c74 <test_24>:
80009c74:	00700f93          	li	t6,7
80009c78:	41ffdfb3          	sra	t6,t6,t6
80009c7c:	00000e93          	li	t4,0
80009c80:	01800e13          	li	t3,24
80009c84:	31df9663          	bne	t6,t4,80009f90 <fail>

80009c88 <test_25>:
80009c88:	00000213          	li	tp,0
80009c8c:	80000fb7          	lui	t6,0x80000
80009c90:	00700113          	li	sp,7
80009c94:	402fd1b3          	sra	gp,t6,sp
80009c98:	00018313          	mv	t1,gp
80009c9c:	00120213          	add	tp,tp,1 # 1 <_entry_offset+0x1>
80009ca0:	00200293          	li	t0,2
80009ca4:	fe5214e3          	bne	tp,t0,80009c8c <test_25+0x4>
80009ca8:	ff000eb7          	lui	t4,0xff000
80009cac:	01900e13          	li	t3,25
80009cb0:	2fd31063          	bne	t1,t4,80009f90 <fail>

80009cb4 <test_26>:
80009cb4:	00000213          	li	tp,0
80009cb8:	80000fb7          	lui	t6,0x80000
80009cbc:	00e00113          	li	sp,14
80009cc0:	402fd1b3          	sra	gp,t6,sp
80009cc4:	00000013          	nop
80009cc8:	00018313          	mv	t1,gp
80009ccc:	00120213          	add	tp,tp,1 # 1 <_entry_offset+0x1>
80009cd0:	00200293          	li	t0,2
80009cd4:	fe5212e3          	bne	tp,t0,80009cb8 <test_26+0x4>
80009cd8:	fffe0eb7          	lui	t4,0xfffe0
80009cdc:	01a00e13          	li	t3,26
80009ce0:	2bd31863          	bne	t1,t4,80009f90 <fail>

80009ce4 <test_27>:
80009ce4:	00000213          	li	tp,0
80009ce8:	80000fb7          	lui	t6,0x80000
80009cec:	01f00113          	li	sp,31
80009cf0:	402fd1b3          	sra	gp,t6,sp
80009cf4:	00000013          	nop
80009cf8:	00000013          	nop
80009cfc:	00018313          	mv	t1,gp
80009d00:	00120213          	add	tp,tp,1 # 1 <_entry_offset+0x1>
80009d04:	00200293          	li	t0,2
80009d08:	fe5210e3          	bne	tp,t0,80009ce8 <test_27+0x4>
80009d0c:	fff00e93          	li	t4,-1
80009d10:	01b00e13          	li	t3,27
80009d14:	27d31e63          	bne	t1,t4,80009f90 <fail>

80009d18 <test_28>:
80009d18:	00000213          	li	tp,0
80009d1c:	80000fb7          	lui	t6,0x80000
80009d20:	00700113          	li	sp,7
80009d24:	402fd1b3          	sra	gp,t6,sp
80009d28:	00120213          	add	tp,tp,1 # 1 <_entry_offset+0x1>
80009d2c:	00200293          	li	t0,2
80009d30:	fe5216e3          	bne	tp,t0,80009d1c <test_28+0x4>
80009d34:	ff000eb7          	lui	t4,0xff000
80009d38:	01c00e13          	li	t3,28
80009d3c:	25d19a63          	bne	gp,t4,80009f90 <fail>

80009d40 <test_29>:
80009d40:	00000213          	li	tp,0
80009d44:	80000fb7          	lui	t6,0x80000
80009d48:	00e00113          	li	sp,14
80009d4c:	00000013          	nop
80009d50:	402fd1b3          	sra	gp,t6,sp
80009d54:	00120213          	add	tp,tp,1 # 1 <_entry_offset+0x1>
80009d58:	00200293          	li	t0,2
80009d5c:	fe5214e3          	bne	tp,t0,80009d44 <test_29+0x4>
80009d60:	fffe0eb7          	lui	t4,0xfffe0
80009d64:	01d00e13          	li	t3,29
80009d68:	23d19463          	bne	gp,t4,80009f90 <fail>

80009d6c <test_30>:
80009d6c:	00000213          	li	tp,0
80009d70:	80000fb7          	lui	t6,0x80000
80009d74:	01f00113          	li	sp,31
80009d78:	00000013          	nop
80009d7c:	00000013          	nop
80009d80:	402fd1b3          	sra	gp,t6,sp
80009d84:	00120213          	add	tp,tp,1 # 1 <_entry_offset+0x1>
80009d88:	00200293          	li	t0,2
80009d8c:	fe5212e3          	bne	tp,t0,80009d70 <test_30+0x4>
80009d90:	fff00e93          	li	t4,-1
80009d94:	01e00e13          	li	t3,30
80009d98:	1fd19c63          	bne	gp,t4,80009f90 <fail>

80009d9c <test_31>:
80009d9c:	00000213          	li	tp,0
80009da0:	80000fb7          	lui	t6,0x80000
80009da4:	00000013          	nop
80009da8:	00700113          	li	sp,7
80009dac:	402fd1b3          	sra	gp,t6,sp
80009db0:	00120213          	add	tp,tp,1 # 1 <_entry_offset+0x1>
80009db4:	00200293          	li	t0,2
80009db8:	fe5214e3          	bne	tp,t0,80009da0 <test_31+0x4>
80009dbc:	ff000eb7          	lui	t4,0xff000
80009dc0:	01f00e13          	li	t3,31
80009dc4:	1dd19663          	bne	gp,t4,80009f90 <fail>

80009dc8 <test_32>:
80009dc8:	00000213          	li	tp,0
80009dcc:	80000fb7          	lui	t6,0x80000
80009dd0:	00000013          	nop
80009dd4:	00e00113          	li	sp,14
80009dd8:	00000013          	nop
80009ddc:	402fd1b3          	sra	gp,t6,sp
80009de0:	00120213          	add	tp,tp,1 # 1 <_entry_offset+0x1>
80009de4:	00200293          	li	t0,2
80009de8:	fe5212e3          	bne	tp,t0,80009dcc <test_32+0x4>
80009dec:	fffe0eb7          	lui	t4,0xfffe0
80009df0:	02000e13          	li	t3,32
80009df4:	19d19e63          	bne	gp,t4,80009f90 <fail>

80009df8 <test_33>:
80009df8:	00000213          	li	tp,0
80009dfc:	80000fb7          	lui	t6,0x80000
80009e00:	00000013          	nop
80009e04:	00000013          	nop
80009e08:	01f00113          	li	sp,31
80009e0c:	402fd1b3          	sra	gp,t6,sp
80009e10:	00120213          	add	tp,tp,1 # 1 <_entry_offset+0x1>
80009e14:	00200293          	li	t0,2
80009e18:	fe5212e3          	bne	tp,t0,80009dfc <test_33+0x4>
80009e1c:	fff00e93          	li	t4,-1
80009e20:	02100e13          	li	t3,33
80009e24:	17d19663          	bne	gp,t4,80009f90 <fail>

80009e28 <test_34>:
80009e28:	00000213          	li	tp,0
80009e2c:	00700113          	li	sp,7
80009e30:	80000fb7          	lui	t6,0x80000
80009e34:	402fd1b3          	sra	gp,t6,sp
80009e38:	00120213          	add	tp,tp,1 # 1 <_entry_offset+0x1>
80009e3c:	00200293          	li	t0,2
80009e40:	fe5216e3          	bne	tp,t0,80009e2c <test_34+0x4>
80009e44:	ff000eb7          	lui	t4,0xff000
80009e48:	02200e13          	li	t3,34
80009e4c:	15d19263          	bne	gp,t4,80009f90 <fail>

80009e50 <test_35>:
80009e50:	00000213          	li	tp,0
80009e54:	00e00113          	li	sp,14
80009e58:	80000fb7          	lui	t6,0x80000
80009e5c:	00000013          	nop
80009e60:	402fd1b3          	sra	gp,t6,sp
80009e64:	00120213          	add	tp,tp,1 # 1 <_entry_offset+0x1>
80009e68:	00200293          	li	t0,2
80009e6c:	fe5214e3          	bne	tp,t0,80009e54 <test_35+0x4>
80009e70:	fffe0eb7          	lui	t4,0xfffe0
80009e74:	02300e13          	li	t3,35
80009e78:	11d19c63          	bne	gp,t4,80009f90 <fail>

80009e7c <test_36>:
80009e7c:	00000213          	li	tp,0
80009e80:	01f00113          	li	sp,31
80009e84:	80000fb7          	lui	t6,0x80000
80009e88:	00000013          	nop
80009e8c:	00000013          	nop
80009e90:	402fd1b3          	sra	gp,t6,sp
80009e94:	00120213          	add	tp,tp,1 # 1 <_entry_offset+0x1>
80009e98:	00200293          	li	t0,2
80009e9c:	fe5212e3          	bne	tp,t0,80009e80 <test_36+0x4>
80009ea0:	fff00e93          	li	t4,-1
80009ea4:	02400e13          	li	t3,36
80009ea8:	0fd19463          	bne	gp,t4,80009f90 <fail>

80009eac <test_37>:
80009eac:	00000213          	li	tp,0
80009eb0:	00700113          	li	sp,7
80009eb4:	00000013          	nop
80009eb8:	80000fb7          	lui	t6,0x80000
80009ebc:	402fd1b3          	sra	gp,t6,sp
80009ec0:	00120213          	add	tp,tp,1 # 1 <_entry_offset+0x1>
80009ec4:	00200293          	li	t0,2
80009ec8:	fe5214e3          	bne	tp,t0,80009eb0 <test_37+0x4>
80009ecc:	ff000eb7          	lui	t4,0xff000
80009ed0:	02500e13          	li	t3,37
80009ed4:	0bd19e63          	bne	gp,t4,80009f90 <fail>

80009ed8 <test_38>:
80009ed8:	00000213          	li	tp,0
80009edc:	00e00113          	li	sp,14
80009ee0:	00000013          	nop
80009ee4:	80000fb7          	lui	t6,0x80000
80009ee8:	00000013          	nop
80009eec:	402fd1b3          	sra	gp,t6,sp
80009ef0:	00120213          	add	tp,tp,1 # 1 <_entry_offset+0x1>
80009ef4:	00200293          	li	t0,2
80009ef8:	fe5212e3          	bne	tp,t0,80009edc <test_38+0x4>
80009efc:	fffe0eb7          	lui	t4,0xfffe0
80009f00:	02600e13          	li	t3,38
80009f04:	09d19663          	bne	gp,t4,80009f90 <fail>

80009f08 <test_39>:
80009f08:	00000213          	li	tp,0
80009f0c:	01f00113          	li	sp,31
80009f10:	00000013          	nop
80009f14:	00000013          	nop
80009f18:	80000fb7          	lui	t6,0x80000
80009f1c:	402fd1b3          	sra	gp,t6,sp
80009f20:	00120213          	add	tp,tp,1 # 1 <_entry_offset+0x1>
80009f24:	00200293          	li	t0,2
80009f28:	fe5212e3          	bne	tp,t0,80009f0c <test_39+0x4>
80009f2c:	fff00e93          	li	t4,-1
80009f30:	02700e13          	li	t3,39
80009f34:	05d19e63          	bne	gp,t4,80009f90 <fail>

80009f38 <test_40>:
80009f38:	00f00f93          	li	t6,15
80009f3c:	41f05133          	sra	sp,zero,t6
80009f40:	00000e93          	li	t4,0
80009f44:	02800e13          	li	t3,40
80009f48:	05d11463          	bne	sp,t4,80009f90 <fail>

80009f4c <test_41>:
80009f4c:	02000f93          	li	t6,32
80009f50:	400fd133          	sra	sp,t6,zero
80009f54:	02000e93          	li	t4,32
80009f58:	02900e13          	li	t3,41
80009f5c:	03d11a63          	bne	sp,t4,80009f90 <fail>

80009f60 <test_42>:
80009f60:	40005fb3          	sra	t6,zero,zero
80009f64:	00000e93          	li	t4,0
80009f68:	02a00e13          	li	t3,42
80009f6c:	03df9263          	bne	t6,t4,80009f90 <fail>

80009f70 <test_43>:
80009f70:	40000f93          	li	t6,1024
80009f74:	00001137          	lui	sp,0x1
80009f78:	80010113          	add	sp,sp,-2048 # 800 <_entry_offset+0x800>
80009f7c:	402fd033          	sra	zero,t6,sp
80009f80:	00000e93          	li	t4,0
80009f84:	02b00e13          	li	t3,43
80009f88:	01d01463          	bne	zero,t4,80009f90 <fail>
80009f8c:	0100006f          	j	80009f9c <pass>

80009f90 <fail>:
80009f90:	fff00513          	li	a0,-1
80009f94:	00100073          	ebreak
80009f98:	ff9ff06f          	j	80009f90 <fail>

80009f9c <pass>:
80009f9c:	00000513          	li	a0,0
80009fa0:	00008067          	ret

80009fa4 <slt>:
80009fa4:	00000f93          	li	t6,0
80009fa8:	00000113          	li	sp,0
80009fac:	002fa1b3          	slt	gp,t6,sp
80009fb0:	00000e93          	li	t4,0
80009fb4:	00200e13          	li	t3,2
80009fb8:	4bd19a63          	bne	gp,t4,8000a46c <fail>

80009fbc <test_3>:
80009fbc:	00100f93          	li	t6,1
80009fc0:	00100113          	li	sp,1
80009fc4:	002fa1b3          	slt	gp,t6,sp
80009fc8:	00000e93          	li	t4,0
80009fcc:	00300e13          	li	t3,3
80009fd0:	49d19e63          	bne	gp,t4,8000a46c <fail>

80009fd4 <test_4>:
80009fd4:	00300f93          	li	t6,3
80009fd8:	00700113          	li	sp,7
80009fdc:	002fa1b3          	slt	gp,t6,sp
80009fe0:	00100e93          	li	t4,1
80009fe4:	00400e13          	li	t3,4
80009fe8:	49d19263          	bne	gp,t4,8000a46c <fail>

80009fec <test_5>:
80009fec:	00700f93          	li	t6,7
80009ff0:	00300113          	li	sp,3
80009ff4:	002fa1b3          	slt	gp,t6,sp
80009ff8:	00000e93          	li	t4,0
80009ffc:	00500e13          	li	t3,5
8000a000:	47d19663          	bne	gp,t4,8000a46c <fail>

8000a004 <test_6>:
8000a004:	00000f93          	li	t6,0
8000a008:	ffff8137          	lui	sp,0xffff8
8000a00c:	002fa1b3          	slt	gp,t6,sp
8000a010:	00000e93          	li	t4,0
8000a014:	00600e13          	li	t3,6
8000a018:	45d19a63          	bne	gp,t4,8000a46c <fail>

8000a01c <test_7>:
8000a01c:	80000fb7          	lui	t6,0x80000
8000a020:	00000113          	li	sp,0
8000a024:	002fa1b3          	slt	gp,t6,sp
8000a028:	00100e93          	li	t4,1
8000a02c:	00700e13          	li	t3,7
8000a030:	43d19e63          	bne	gp,t4,8000a46c <fail>

8000a034 <test_8>:
8000a034:	80000fb7          	lui	t6,0x80000
8000a038:	ffff8137          	lui	sp,0xffff8
8000a03c:	002fa1b3          	slt	gp,t6,sp
8000a040:	00100e93          	li	t4,1
8000a044:	00800e13          	li	t3,8
8000a048:	43d19263          	bne	gp,t4,8000a46c <fail>

8000a04c <test_9>:
8000a04c:	00000f93          	li	t6,0
8000a050:	00008137          	lui	sp,0x8
8000a054:	fff10113          	add	sp,sp,-1 # 7fff <_entry_offset+0x7fff>
8000a058:	002fa1b3          	slt	gp,t6,sp
8000a05c:	00100e93          	li	t4,1
8000a060:	00900e13          	li	t3,9
8000a064:	41d19463          	bne	gp,t4,8000a46c <fail>

8000a068 <test_10>:
8000a068:	80000fb7          	lui	t6,0x80000
8000a06c:	ffff8f93          	add	t6,t6,-1 # 7fffffff <_entry_offset+0x7fffffff>
8000a070:	00000113          	li	sp,0
8000a074:	002fa1b3          	slt	gp,t6,sp
8000a078:	00000e93          	li	t4,0
8000a07c:	00a00e13          	li	t3,10
8000a080:	3fd19663          	bne	gp,t4,8000a46c <fail>

8000a084 <test_11>:
8000a084:	80000fb7          	lui	t6,0x80000
8000a088:	ffff8f93          	add	t6,t6,-1 # 7fffffff <_entry_offset+0x7fffffff>
8000a08c:	00008137          	lui	sp,0x8
8000a090:	fff10113          	add	sp,sp,-1 # 7fff <_entry_offset+0x7fff>
8000a094:	002fa1b3          	slt	gp,t6,sp
8000a098:	00000e93          	li	t4,0
8000a09c:	00b00e13          	li	t3,11
8000a0a0:	3dd19663          	bne	gp,t4,8000a46c <fail>

8000a0a4 <test_12>:
8000a0a4:	80000fb7          	lui	t6,0x80000
8000a0a8:	00008137          	lui	sp,0x8
8000a0ac:	fff10113          	add	sp,sp,-1 # 7fff <_entry_offset+0x7fff>
8000a0b0:	002fa1b3          	slt	gp,t6,sp
8000a0b4:	00100e93          	li	t4,1
8000a0b8:	00c00e13          	li	t3,12
8000a0bc:	3bd19863          	bne	gp,t4,8000a46c <fail>

8000a0c0 <test_13>:
8000a0c0:	80000fb7          	lui	t6,0x80000
8000a0c4:	ffff8f93          	add	t6,t6,-1 # 7fffffff <_entry_offset+0x7fffffff>
8000a0c8:	ffff8137          	lui	sp,0xffff8
8000a0cc:	002fa1b3          	slt	gp,t6,sp
8000a0d0:	00000e93          	li	t4,0
8000a0d4:	00d00e13          	li	t3,13
8000a0d8:	39d19a63          	bne	gp,t4,8000a46c <fail>

8000a0dc <test_14>:
8000a0dc:	00000f93          	li	t6,0
8000a0e0:	fff00113          	li	sp,-1
8000a0e4:	002fa1b3          	slt	gp,t6,sp
8000a0e8:	00000e93          	li	t4,0
8000a0ec:	00e00e13          	li	t3,14
8000a0f0:	37d19e63          	bne	gp,t4,8000a46c <fail>

8000a0f4 <test_15>:
8000a0f4:	fff00f93          	li	t6,-1
8000a0f8:	00100113          	li	sp,1
8000a0fc:	002fa1b3          	slt	gp,t6,sp
8000a100:	00100e93          	li	t4,1
8000a104:	00f00e13          	li	t3,15
8000a108:	37d19263          	bne	gp,t4,8000a46c <fail>

8000a10c <test_16>:
8000a10c:	fff00f93          	li	t6,-1
8000a110:	fff00113          	li	sp,-1
8000a114:	002fa1b3          	slt	gp,t6,sp
8000a118:	00000e93          	li	t4,0
8000a11c:	01000e13          	li	t3,16
8000a120:	35d19663          	bne	gp,t4,8000a46c <fail>

8000a124 <test_17>:
8000a124:	00e00f93          	li	t6,14
8000a128:	00d00113          	li	sp,13
8000a12c:	002fafb3          	slt	t6,t6,sp
8000a130:	00000e93          	li	t4,0
8000a134:	01100e13          	li	t3,17
8000a138:	33df9a63          	bne	t6,t4,8000a46c <fail>

8000a13c <test_18>:
8000a13c:	00b00f93          	li	t6,11
8000a140:	00d00113          	li	sp,13
8000a144:	002fa133          	slt	sp,t6,sp
8000a148:	00100e93          	li	t4,1
8000a14c:	01200e13          	li	t3,18
8000a150:	31d11e63          	bne	sp,t4,8000a46c <fail>

8000a154 <test_19>:
8000a154:	00d00f93          	li	t6,13
8000a158:	01ffafb3          	slt	t6,t6,t6
8000a15c:	00000e93          	li	t4,0
8000a160:	01300e13          	li	t3,19
8000a164:	31df9463          	bne	t6,t4,8000a46c <fail>

8000a168 <test_20>:
8000a168:	00000213          	li	tp,0
8000a16c:	00b00f93          	li	t6,11
8000a170:	00d00113          	li	sp,13
8000a174:	002fa1b3          	slt	gp,t6,sp
8000a178:	00018313          	mv	t1,gp
8000a17c:	00120213          	add	tp,tp,1 # 1 <_entry_offset+0x1>
8000a180:	00200293          	li	t0,2
8000a184:	fe5214e3          	bne	tp,t0,8000a16c <test_20+0x4>
8000a188:	00100e93          	li	t4,1
8000a18c:	01400e13          	li	t3,20
8000a190:	2dd31e63          	bne	t1,t4,8000a46c <fail>

8000a194 <test_21>:
8000a194:	00000213          	li	tp,0
8000a198:	00e00f93          	li	t6,14
8000a19c:	00d00113          	li	sp,13
8000a1a0:	002fa1b3          	slt	gp,t6,sp
8000a1a4:	00000013          	nop
8000a1a8:	00018313          	mv	t1,gp
8000a1ac:	00120213          	add	tp,tp,1 # 1 <_entry_offset+0x1>
8000a1b0:	00200293          	li	t0,2
8000a1b4:	fe5212e3          	bne	tp,t0,8000a198 <test_21+0x4>
8000a1b8:	00000e93          	li	t4,0
8000a1bc:	01500e13          	li	t3,21
8000a1c0:	2bd31663          	bne	t1,t4,8000a46c <fail>

8000a1c4 <test_22>:
8000a1c4:	00000213          	li	tp,0
8000a1c8:	00c00f93          	li	t6,12
8000a1cc:	00d00113          	li	sp,13
8000a1d0:	002fa1b3          	slt	gp,t6,sp
8000a1d4:	00000013          	nop
8000a1d8:	00000013          	nop
8000a1dc:	00018313          	mv	t1,gp
8000a1e0:	00120213          	add	tp,tp,1 # 1 <_entry_offset+0x1>
8000a1e4:	00200293          	li	t0,2
8000a1e8:	fe5210e3          	bne	tp,t0,8000a1c8 <test_22+0x4>
8000a1ec:	00100e93          	li	t4,1
8000a1f0:	01600e13          	li	t3,22
8000a1f4:	27d31c63          	bne	t1,t4,8000a46c <fail>

8000a1f8 <test_23>:
8000a1f8:	00000213          	li	tp,0
8000a1fc:	00e00f93          	li	t6,14
8000a200:	00d00113          	li	sp,13
8000a204:	002fa1b3          	slt	gp,t6,sp
8000a208:	00120213          	add	tp,tp,1 # 1 <_entry_offset+0x1>
8000a20c:	00200293          	li	t0,2
8000a210:	fe5216e3          	bne	tp,t0,8000a1fc <test_23+0x4>
8000a214:	00000e93          	li	t4,0
8000a218:	01700e13          	li	t3,23
8000a21c:	25d19863          	bne	gp,t4,8000a46c <fail>

8000a220 <test_24>:
8000a220:	00000213          	li	tp,0
8000a224:	00b00f93          	li	t6,11
8000a228:	00d00113          	li	sp,13
8000a22c:	00000013          	nop
8000a230:	002fa1b3          	slt	gp,t6,sp
8000a234:	00120213          	add	tp,tp,1 # 1 <_entry_offset+0x1>
8000a238:	00200293          	li	t0,2
8000a23c:	fe5214e3          	bne	tp,t0,8000a224 <test_24+0x4>
8000a240:	00100e93          	li	t4,1
8000a244:	01800e13          	li	t3,24
8000a248:	23d19263          	bne	gp,t4,8000a46c <fail>

8000a24c <test_25>:
8000a24c:	00000213          	li	tp,0
8000a250:	00f00f93          	li	t6,15
8000a254:	00d00113          	li	sp,13
8000a258:	00000013          	nop
8000a25c:	00000013          	nop
8000a260:	002fa1b3          	slt	gp,t6,sp
8000a264:	00120213          	add	tp,tp,1 # 1 <_entry_offset+0x1>
8000a268:	00200293          	li	t0,2
8000a26c:	fe5212e3          	bne	tp,t0,8000a250 <test_25+0x4>
8000a270:	00000e93          	li	t4,0
8000a274:	01900e13          	li	t3,25
8000a278:	1fd19a63          	bne	gp,t4,8000a46c <fail>

8000a27c <test_26>:
8000a27c:	00000213          	li	tp,0
8000a280:	00a00f93          	li	t6,10
8000a284:	00000013          	nop
8000a288:	00d00113          	li	sp,13
8000a28c:	002fa1b3          	slt	gp,t6,sp
8000a290:	00120213          	add	tp,tp,1 # 1 <_entry_offset+0x1>
8000a294:	00200293          	li	t0,2
8000a298:	fe5214e3          	bne	tp,t0,8000a280 <test_26+0x4>
8000a29c:	00100e93          	li	t4,1
8000a2a0:	01a00e13          	li	t3,26
8000a2a4:	1dd19463          	bne	gp,t4,8000a46c <fail>

8000a2a8 <test_27>:
8000a2a8:	00000213          	li	tp,0
8000a2ac:	01000f93          	li	t6,16
8000a2b0:	00000013          	nop
8000a2b4:	00d00113          	li	sp,13
8000a2b8:	00000013          	nop
8000a2bc:	002fa1b3          	slt	gp,t6,sp
8000a2c0:	00120213          	add	tp,tp,1 # 1 <_entry_offset+0x1>
8000a2c4:	00200293          	li	t0,2
8000a2c8:	fe5212e3          	bne	tp,t0,8000a2ac <test_27+0x4>
8000a2cc:	00000e93          	li	t4,0
8000a2d0:	01b00e13          	li	t3,27
8000a2d4:	19d19c63          	bne	gp,t4,8000a46c <fail>

8000a2d8 <test_28>:
8000a2d8:	00000213          	li	tp,0
8000a2dc:	00900f93          	li	t6,9
8000a2e0:	00000013          	nop
8000a2e4:	00000013          	nop
8000a2e8:	00d00113          	li	sp,13
8000a2ec:	002fa1b3          	slt	gp,t6,sp
8000a2f0:	00120213          	add	tp,tp,1 # 1 <_entry_offset+0x1>
8000a2f4:	00200293          	li	t0,2
8000a2f8:	fe5212e3          	bne	tp,t0,8000a2dc <test_28+0x4>
8000a2fc:	00100e93          	li	t4,1
8000a300:	01c00e13          	li	t3,28
8000a304:	17d19463          	bne	gp,t4,8000a46c <fail>

8000a308 <test_29>:
8000a308:	00000213          	li	tp,0
8000a30c:	00d00113          	li	sp,13
8000a310:	01100f93          	li	t6,17
8000a314:	002fa1b3          	slt	gp,t6,sp
8000a318:	00120213          	add	tp,tp,1 # 1 <_entry_offset+0x1>
8000a31c:	00200293          	li	t0,2
8000a320:	fe5216e3          	bne	tp,t0,8000a30c <test_29+0x4>
8000a324:	00000e93          	li	t4,0
8000a328:	01d00e13          	li	t3,29
8000a32c:	15d19063          	bne	gp,t4,8000a46c <fail>

8000a330 <test_30>:
8000a330:	00000213          	li	tp,0
8000a334:	00d00113          	li	sp,13
8000a338:	00800f93          	li	t6,8
8000a33c:	00000013          	nop
8000a340:	002fa1b3          	slt	gp,t6,sp
8000a344:	00120213          	add	tp,tp,1 # 1 <_entry_offset+0x1>
8000a348:	00200293          	li	t0,2
8000a34c:	fe5214e3          	bne	tp,t0,8000a334 <test_30+0x4>
8000a350:	00100e93          	li	t4,1
8000a354:	01e00e13          	li	t3,30
8000a358:	11d19a63          	bne	gp,t4,8000a46c <fail>

8000a35c <test_31>:
8000a35c:	00000213          	li	tp,0
8000a360:	00d00113          	li	sp,13
8000a364:	01200f93          	li	t6,18
8000a368:	00000013          	nop
8000a36c:	00000013          	nop
8000a370:	002fa1b3          	slt	gp,t6,sp
8000a374:	00120213          	add	tp,tp,1 # 1 <_entry_offset+0x1>
8000a378:	00200293          	li	t0,2
8000a37c:	fe5212e3          	bne	tp,t0,8000a360 <test_31+0x4>
8000a380:	00000e93          	li	t4,0
8000a384:	01f00e13          	li	t3,31
8000a388:	0fd19263          	bne	gp,t4,8000a46c <fail>

8000a38c <test_32>:
8000a38c:	00000213          	li	tp,0
8000a390:	00d00113          	li	sp,13
8000a394:	00000013          	nop
8000a398:	00700f93          	li	t6,7
8000a39c:	002fa1b3          	slt	gp,t6,sp
8000a3a0:	00120213          	add	tp,tp,1 # 1 <_entry_offset+0x1>
8000a3a4:	00200293          	li	t0,2
8000a3a8:	fe5214e3          	bne	tp,t0,8000a390 <test_32+0x4>
8000a3ac:	00100e93          	li	t4,1
8000a3b0:	02000e13          	li	t3,32
8000a3b4:	0bd19c63          	bne	gp,t4,8000a46c <fail>

8000a3b8 <test_33>:
8000a3b8:	00000213          	li	tp,0
8000a3bc:	00d00113          	li	sp,13
8000a3c0:	00000013          	nop
8000a3c4:	01300f93          	li	t6,19
8000a3c8:	00000013          	nop
8000a3cc:	002fa1b3          	slt	gp,t6,sp
8000a3d0:	00120213          	add	tp,tp,1 # 1 <_entry_offset+0x1>
8000a3d4:	00200293          	li	t0,2
8000a3d8:	fe5212e3          	bne	tp,t0,8000a3bc <test_33+0x4>
8000a3dc:	00000e93          	li	t4,0
8000a3e0:	02100e13          	li	t3,33
8000a3e4:	09d19463          	bne	gp,t4,8000a46c <fail>

8000a3e8 <test_34>:
8000a3e8:	00000213          	li	tp,0
8000a3ec:	00d00113          	li	sp,13
8000a3f0:	00000013          	nop
8000a3f4:	00000013          	nop
8000a3f8:	00600f93          	li	t6,6
8000a3fc:	002fa1b3          	slt	gp,t6,sp
8000a400:	00120213          	add	tp,tp,1 # 1 <_entry_offset+0x1>
8000a404:	00200293          	li	t0,2
8000a408:	fe5212e3          	bne	tp,t0,8000a3ec <test_34+0x4>
8000a40c:	00100e93          	li	t4,1
8000a410:	02200e13          	li	t3,34
8000a414:	05d19c63          	bne	gp,t4,8000a46c <fail>

8000a418 <test_35>:
8000a418:	fff00f93          	li	t6,-1
8000a41c:	01f02133          	sgtz	sp,t6
8000a420:	00000e93          	li	t4,0
8000a424:	02300e13          	li	t3,35
8000a428:	05d11263          	bne	sp,t4,8000a46c <fail>

8000a42c <test_36>:
8000a42c:	fff00f93          	li	t6,-1
8000a430:	000fa133          	sltz	sp,t6
8000a434:	00100e93          	li	t4,1
8000a438:	02400e13          	li	t3,36
8000a43c:	03d11863          	bne	sp,t4,8000a46c <fail>

8000a440 <test_37>:
8000a440:	00002fb3          	sltz	t6,zero
8000a444:	00000e93          	li	t4,0
8000a448:	02500e13          	li	t3,37
8000a44c:	03df9063          	bne	t6,t4,8000a46c <fail>

8000a450 <test_38>:
8000a450:	01000f93          	li	t6,16
8000a454:	01e00113          	li	sp,30
8000a458:	002fa033          	slt	zero,t6,sp
8000a45c:	00000e93          	li	t4,0
8000a460:	02600e13          	li	t3,38
8000a464:	01d01463          	bne	zero,t4,8000a46c <fail>
8000a468:	0100006f          	j	8000a478 <pass>

8000a46c <fail>:
8000a46c:	fff00513          	li	a0,-1
8000a470:	00100073          	ebreak
8000a474:	ff9ff06f          	j	8000a46c <fail>

8000a478 <pass>:
8000a478:	00000513          	li	a0,0
8000a47c:	00008067          	ret

8000a480 <mulhu>:
8000a480:	00000f93          	li	t6,0
8000a484:	00000113          	li	sp,0
8000a488:	022fb1b3          	mulhu	gp,t6,sp
8000a48c:	00000e93          	li	t4,0
8000a490:	00200e13          	li	t3,2
8000a494:	4bd19a63          	bne	gp,t4,8000a948 <fail>

8000a498 <test_3>:
8000a498:	00100f93          	li	t6,1
8000a49c:	00100113          	li	sp,1
8000a4a0:	022fb1b3          	mulhu	gp,t6,sp
8000a4a4:	00000e93          	li	t4,0
8000a4a8:	00300e13          	li	t3,3
8000a4ac:	49d19e63          	bne	gp,t4,8000a948 <fail>

8000a4b0 <test_4>:
8000a4b0:	00300f93          	li	t6,3
8000a4b4:	00700113          	li	sp,7
8000a4b8:	022fb1b3          	mulhu	gp,t6,sp
8000a4bc:	00000e93          	li	t4,0
8000a4c0:	00400e13          	li	t3,4
8000a4c4:	49d19263          	bne	gp,t4,8000a948 <fail>

8000a4c8 <test_5>:
8000a4c8:	00000f93          	li	t6,0
8000a4cc:	ffff8137          	lui	sp,0xffff8
8000a4d0:	022fb1b3          	mulhu	gp,t6,sp
8000a4d4:	00000e93          	li	t4,0
8000a4d8:	00500e13          	li	t3,5
8000a4dc:	47d19663          	bne	gp,t4,8000a948 <fail>

8000a4e0 <test_6>:
8000a4e0:	80000fb7          	lui	t6,0x80000
8000a4e4:	00000113          	li	sp,0
8000a4e8:	022fb1b3          	mulhu	gp,t6,sp
8000a4ec:	00000e93          	li	t4,0
8000a4f0:	00600e13          	li	t3,6
8000a4f4:	45d19a63          	bne	gp,t4,8000a948 <fail>

8000a4f8 <test_7>:
8000a4f8:	80000fb7          	lui	t6,0x80000
8000a4fc:	ffff8137          	lui	sp,0xffff8
8000a500:	022fb1b3          	mulhu	gp,t6,sp
8000a504:	7fffceb7          	lui	t4,0x7fffc
8000a508:	00700e13          	li	t3,7
8000a50c:	43d19e63          	bne	gp,t4,8000a948 <fail>

8000a510 <test_30>:
8000a510:	aaaabfb7          	lui	t6,0xaaaab
8000a514:	aabf8f93          	add	t6,t6,-1365 # aaaaaaab <_end+0x2aa97aab>
8000a518:	00030137          	lui	sp,0x30
8000a51c:	e7d10113          	add	sp,sp,-387 # 2fe7d <_entry_offset+0x2fe7d>
8000a520:	022fb1b3          	mulhu	gp,t6,sp
8000a524:	00020eb7          	lui	t4,0x20
8000a528:	efee8e93          	add	t4,t4,-258 # 1fefe <_entry_offset+0x1fefe>
8000a52c:	01e00e13          	li	t3,30
8000a530:	41d19c63          	bne	gp,t4,8000a948 <fail>

8000a534 <test_31>:
8000a534:	00030fb7          	lui	t6,0x30
8000a538:	e7df8f93          	add	t6,t6,-387 # 2fe7d <_entry_offset+0x2fe7d>
8000a53c:	aaaab137          	lui	sp,0xaaaab
8000a540:	aab10113          	add	sp,sp,-1365 # aaaaaaab <_end+0x2aa97aab>
8000a544:	022fb1b3          	mulhu	gp,t6,sp
8000a548:	00020eb7          	lui	t4,0x20
8000a54c:	efee8e93          	add	t4,t4,-258 # 1fefe <_entry_offset+0x1fefe>
8000a550:	01f00e13          	li	t3,31
8000a554:	3fd19a63          	bne	gp,t4,8000a948 <fail>

8000a558 <test_32>:
8000a558:	ff000fb7          	lui	t6,0xff000
8000a55c:	ff000137          	lui	sp,0xff000
8000a560:	022fb1b3          	mulhu	gp,t6,sp
8000a564:	fe010eb7          	lui	t4,0xfe010
8000a568:	02000e13          	li	t3,32
8000a56c:	3dd19e63          	bne	gp,t4,8000a948 <fail>

8000a570 <test_33>:
8000a570:	fff00f93          	li	t6,-1
8000a574:	fff00113          	li	sp,-1
8000a578:	022fb1b3          	mulhu	gp,t6,sp
8000a57c:	ffe00e93          	li	t4,-2
8000a580:	02100e13          	li	t3,33
8000a584:	3dd19263          	bne	gp,t4,8000a948 <fail>

8000a588 <test_34>:
8000a588:	fff00f93          	li	t6,-1
8000a58c:	00100113          	li	sp,1
8000a590:	022fb1b3          	mulhu	gp,t6,sp
8000a594:	00000e93          	li	t4,0
8000a598:	02200e13          	li	t3,34
8000a59c:	3bd19663          	bne	gp,t4,8000a948 <fail>

8000a5a0 <test_35>:
8000a5a0:	00100f93          	li	t6,1
8000a5a4:	fff00113          	li	sp,-1
8000a5a8:	022fb1b3          	mulhu	gp,t6,sp
8000a5ac:	00000e93          	li	t4,0
8000a5b0:	02300e13          	li	t3,35
8000a5b4:	39d19a63          	bne	gp,t4,8000a948 <fail>

8000a5b8 <test_8>:
8000a5b8:	00d00fb7          	lui	t6,0xd00
8000a5bc:	00b00137          	lui	sp,0xb00
8000a5c0:	022fbfb3          	mulhu	t6,t6,sp
8000a5c4:	00009eb7          	lui	t4,0x9
8000a5c8:	f00e8e93          	add	t4,t4,-256 # 8f00 <_entry_offset+0x8f00>
8000a5cc:	00800e13          	li	t3,8
8000a5d0:	37df9c63          	bne	t6,t4,8000a948 <fail>

8000a5d4 <test_9>:
8000a5d4:	00e00fb7          	lui	t6,0xe00
8000a5d8:	00b00137          	lui	sp,0xb00
8000a5dc:	022fb133          	mulhu	sp,t6,sp
8000a5e0:	0000aeb7          	lui	t4,0xa
8000a5e4:	a00e8e93          	add	t4,t4,-1536 # 9a00 <_entry_offset+0x9a00>
8000a5e8:	00900e13          	li	t3,9
8000a5ec:	35d11e63          	bne	sp,t4,8000a948 <fail>

8000a5f0 <test_10>:
8000a5f0:	00d00fb7          	lui	t6,0xd00
8000a5f4:	03ffbfb3          	mulhu	t6,t6,t6
8000a5f8:	0000beb7          	lui	t4,0xb
8000a5fc:	900e8e93          	add	t4,t4,-1792 # a900 <_entry_offset+0xa900>
8000a600:	00a00e13          	li	t3,10
8000a604:	35df9263          	bne	t6,t4,8000a948 <fail>

8000a608 <test_11>:
8000a608:	00000213          	li	tp,0
8000a60c:	00d00fb7          	lui	t6,0xd00
8000a610:	00b00137          	lui	sp,0xb00
8000a614:	022fb1b3          	mulhu	gp,t6,sp
8000a618:	00018313          	mv	t1,gp
8000a61c:	00120213          	add	tp,tp,1 # 1 <_entry_offset+0x1>
8000a620:	00200293          	li	t0,2
8000a624:	fe5214e3          	bne	tp,t0,8000a60c <test_11+0x4>
8000a628:	00009eb7          	lui	t4,0x9
8000a62c:	f00e8e93          	add	t4,t4,-256 # 8f00 <_entry_offset+0x8f00>
8000a630:	00b00e13          	li	t3,11
8000a634:	31d31a63          	bne	t1,t4,8000a948 <fail>

8000a638 <test_12>:
8000a638:	00000213          	li	tp,0
8000a63c:	00e00fb7          	lui	t6,0xe00
8000a640:	00b00137          	lui	sp,0xb00
8000a644:	022fb1b3          	mulhu	gp,t6,sp
8000a648:	00000013          	nop
8000a64c:	00018313          	mv	t1,gp
8000a650:	00120213          	add	tp,tp,1 # 1 <_entry_offset+0x1>
8000a654:	00200293          	li	t0,2
8000a658:	fe5212e3          	bne	tp,t0,8000a63c <test_12+0x4>
8000a65c:	0000aeb7          	lui	t4,0xa
8000a660:	a00e8e93          	add	t4,t4,-1536 # 9a00 <_entry_offset+0x9a00>
8000a664:	00c00e13          	li	t3,12
8000a668:	2fd31063          	bne	t1,t4,8000a948 <fail>

8000a66c <test_13>:
8000a66c:	00000213          	li	tp,0
8000a670:	00f00fb7          	lui	t6,0xf00
8000a674:	00b00137          	lui	sp,0xb00
8000a678:	022fb1b3          	mulhu	gp,t6,sp
8000a67c:	00000013          	nop
8000a680:	00000013          	nop
8000a684:	00018313          	mv	t1,gp
8000a688:	00120213          	add	tp,tp,1 # 1 <_entry_offset+0x1>
8000a68c:	00200293          	li	t0,2
8000a690:	fe5210e3          	bne	tp,t0,8000a670 <test_13+0x4>
8000a694:	0000aeb7          	lui	t4,0xa
8000a698:	500e8e93          	add	t4,t4,1280 # a500 <_entry_offset+0xa500>
8000a69c:	00d00e13          	li	t3,13
8000a6a0:	2bd31463          	bne	t1,t4,8000a948 <fail>

8000a6a4 <test_14>:
8000a6a4:	00000213          	li	tp,0
8000a6a8:	00d00fb7          	lui	t6,0xd00
8000a6ac:	00b00137          	lui	sp,0xb00
8000a6b0:	022fb1b3          	mulhu	gp,t6,sp
8000a6b4:	00120213          	add	tp,tp,1 # 1 <_entry_offset+0x1>
8000a6b8:	00200293          	li	t0,2
8000a6bc:	fe5216e3          	bne	tp,t0,8000a6a8 <test_14+0x4>
8000a6c0:	00009eb7          	lui	t4,0x9
8000a6c4:	f00e8e93          	add	t4,t4,-256 # 8f00 <_entry_offset+0x8f00>
8000a6c8:	00e00e13          	li	t3,14
8000a6cc:	27d19e63          	bne	gp,t4,8000a948 <fail>

8000a6d0 <test_15>:
8000a6d0:	00000213          	li	tp,0
8000a6d4:	00e00fb7          	lui	t6,0xe00
8000a6d8:	00b00137          	lui	sp,0xb00
8000a6dc:	00000013          	nop
8000a6e0:	022fb1b3          	mulhu	gp,t6,sp
8000a6e4:	00120213          	add	tp,tp,1 # 1 <_entry_offset+0x1>
8000a6e8:	00200293          	li	t0,2
8000a6ec:	fe5214e3          	bne	tp,t0,8000a6d4 <test_15+0x4>
8000a6f0:	0000aeb7          	lui	t4,0xa
8000a6f4:	a00e8e93          	add	t4,t4,-1536 # 9a00 <_entry_offset+0x9a00>
8000a6f8:	00f00e13          	li	t3,15
8000a6fc:	25d19663          	bne	gp,t4,8000a948 <fail>

8000a700 <test_16>:
8000a700:	00000213          	li	tp,0
8000a704:	00f00fb7          	lui	t6,0xf00
8000a708:	00b00137          	lui	sp,0xb00
8000a70c:	00000013          	nop
8000a710:	00000013          	nop
8000a714:	022fb1b3          	mulhu	gp,t6,sp
8000a718:	00120213          	add	tp,tp,1 # 1 <_entry_offset+0x1>
8000a71c:	00200293          	li	t0,2
8000a720:	fe5212e3          	bne	tp,t0,8000a704 <test_16+0x4>
8000a724:	0000aeb7          	lui	t4,0xa
8000a728:	500e8e93          	add	t4,t4,1280 # a500 <_entry_offset+0xa500>
8000a72c:	01000e13          	li	t3,16
8000a730:	21d19c63          	bne	gp,t4,8000a948 <fail>

8000a734 <test_17>:
8000a734:	00000213          	li	tp,0
8000a738:	00d00fb7          	lui	t6,0xd00
8000a73c:	00000013          	nop
8000a740:	00b00137          	lui	sp,0xb00
8000a744:	022fb1b3          	mulhu	gp,t6,sp
8000a748:	00120213          	add	tp,tp,1 # 1 <_entry_offset+0x1>
8000a74c:	00200293          	li	t0,2
8000a750:	fe5214e3          	bne	tp,t0,8000a738 <test_17+0x4>
8000a754:	00009eb7          	lui	t4,0x9
8000a758:	f00e8e93          	add	t4,t4,-256 # 8f00 <_entry_offset+0x8f00>
8000a75c:	01100e13          	li	t3,17
8000a760:	1fd19463          	bne	gp,t4,8000a948 <fail>

8000a764 <test_18>:
8000a764:	00000213          	li	tp,0
8000a768:	00e00fb7          	lui	t6,0xe00
8000a76c:	00000013          	nop
8000a770:	00b00137          	lui	sp,0xb00
8000a774:	00000013          	nop
8000a778:	022fb1b3          	mulhu	gp,t6,sp
8000a77c:	00120213          	add	tp,tp,1 # 1 <_entry_offset+0x1>
8000a780:	00200293          	li	t0,2
8000a784:	fe5212e3          	bne	tp,t0,8000a768 <test_18+0x4>
8000a788:	0000aeb7          	lui	t4,0xa
8000a78c:	a00e8e93          	add	t4,t4,-1536 # 9a00 <_entry_offset+0x9a00>
8000a790:	01200e13          	li	t3,18
8000a794:	1bd19a63          	bne	gp,t4,8000a948 <fail>

8000a798 <test_19>:
8000a798:	00000213          	li	tp,0
8000a79c:	00f00fb7          	lui	t6,0xf00
8000a7a0:	00000013          	nop
8000a7a4:	00000013          	nop
8000a7a8:	00b00137          	lui	sp,0xb00
8000a7ac:	022fb1b3          	mulhu	gp,t6,sp
8000a7b0:	00120213          	add	tp,tp,1 # 1 <_entry_offset+0x1>
8000a7b4:	00200293          	li	t0,2
8000a7b8:	fe5212e3          	bne	tp,t0,8000a79c <test_19+0x4>
8000a7bc:	0000aeb7          	lui	t4,0xa
8000a7c0:	500e8e93          	add	t4,t4,1280 # a500 <_entry_offset+0xa500>
8000a7c4:	01300e13          	li	t3,19
8000a7c8:	19d19063          	bne	gp,t4,8000a948 <fail>

8000a7cc <test_20>:
8000a7cc:	00000213          	li	tp,0
8000a7d0:	00b00137          	lui	sp,0xb00
8000a7d4:	00d00fb7          	lui	t6,0xd00
8000a7d8:	022fb1b3          	mulhu	gp,t6,sp
8000a7dc:	00120213          	add	tp,tp,1 # 1 <_entry_offset+0x1>
8000a7e0:	00200293          	li	t0,2
8000a7e4:	fe5216e3          	bne	tp,t0,8000a7d0 <test_20+0x4>
8000a7e8:	00009eb7          	lui	t4,0x9
8000a7ec:	f00e8e93          	add	t4,t4,-256 # 8f00 <_entry_offset+0x8f00>
8000a7f0:	01400e13          	li	t3,20
8000a7f4:	15d19a63          	bne	gp,t4,8000a948 <fail>

8000a7f8 <test_21>:
8000a7f8:	00000213          	li	tp,0
8000a7fc:	00b00137          	lui	sp,0xb00
8000a800:	00e00fb7          	lui	t6,0xe00
8000a804:	00000013          	nop
8000a808:	022fb1b3          	mulhu	gp,t6,sp
8000a80c:	00120213          	add	tp,tp,1 # 1 <_entry_offset+0x1>
8000a810:	00200293          	li	t0,2
8000a814:	fe5214e3          	bne	tp,t0,8000a7fc <test_21+0x4>
8000a818:	0000aeb7          	lui	t4,0xa
8000a81c:	a00e8e93          	add	t4,t4,-1536 # 9a00 <_entry_offset+0x9a00>
8000a820:	01500e13          	li	t3,21
8000a824:	13d19263          	bne	gp,t4,8000a948 <fail>

8000a828 <test_22>:
8000a828:	00000213          	li	tp,0
8000a82c:	00b00137          	lui	sp,0xb00
8000a830:	00f00fb7          	lui	t6,0xf00
8000a834:	00000013          	nop
8000a838:	00000013          	nop
8000a83c:	022fb1b3          	mulhu	gp,t6,sp
8000a840:	00120213          	add	tp,tp,1 # 1 <_entry_offset+0x1>
8000a844:	00200293          	li	t0,2
8000a848:	fe5212e3          	bne	tp,t0,8000a82c <test_22+0x4>
8000a84c:	0000aeb7          	lui	t4,0xa
8000a850:	500e8e93          	add	t4,t4,1280 # a500 <_entry_offset+0xa500>
8000a854:	01600e13          	li	t3,22
8000a858:	0fd19863          	bne	gp,t4,8000a948 <fail>

8000a85c <test_23>:
8000a85c:	00000213          	li	tp,0
8000a860:	00b00137          	lui	sp,0xb00
8000a864:	00000013          	nop
8000a868:	00d00fb7          	lui	t6,0xd00
8000a86c:	022fb1b3          	mulhu	gp,t6,sp
8000a870:	00120213          	add	tp,tp,1 # 1 <_entry_offset+0x1>
8000a874:	00200293          	li	t0,2
8000a878:	fe5214e3          	bne	tp,t0,8000a860 <test_23+0x4>
8000a87c:	00009eb7          	lui	t4,0x9
8000a880:	f00e8e93          	add	t4,t4,-256 # 8f00 <_entry_offset+0x8f00>
8000a884:	01700e13          	li	t3,23
8000a888:	0dd19063          	bne	gp,t4,8000a948 <fail>

8000a88c <test_24>:
8000a88c:	00000213          	li	tp,0
8000a890:	00b00137          	lui	sp,0xb00
8000a894:	00000013          	nop
8000a898:	00e00fb7          	lui	t6,0xe00
8000a89c:	00000013          	nop
8000a8a0:	022fb1b3          	mulhu	gp,t6,sp
8000a8a4:	00120213          	add	tp,tp,1 # 1 <_entry_offset+0x1>
8000a8a8:	00200293          	li	t0,2
8000a8ac:	fe5212e3          	bne	tp,t0,8000a890 <test_24+0x4>
8000a8b0:	0000aeb7          	lui	t4,0xa
8000a8b4:	a00e8e93          	add	t4,t4,-1536 # 9a00 <_entry_offset+0x9a00>
8000a8b8:	01800e13          	li	t3,24
8000a8bc:	09d19663          	bne	gp,t4,8000a948 <fail>

8000a8c0 <test_25>:
8000a8c0:	00000213          	li	tp,0
8000a8c4:	00b00137          	lui	sp,0xb00
8000a8c8:	00000013          	nop
8000a8cc:	00000013          	nop
8000a8d0:	00f00fb7          	lui	t6,0xf00
8000a8d4:	022fb1b3          	mulhu	gp,t6,sp
8000a8d8:	00120213          	add	tp,tp,1 # 1 <_entry_offset+0x1>
8000a8dc:	00200293          	li	t0,2
8000a8e0:	fe5212e3          	bne	tp,t0,8000a8c4 <test_25+0x4>
8000a8e4:	0000aeb7          	lui	t4,0xa
8000a8e8:	500e8e93          	add	t4,t4,1280 # a500 <_entry_offset+0xa500>
8000a8ec:	01900e13          	li	t3,25
8000a8f0:	05d19c63          	bne	gp,t4,8000a948 <fail>

8000a8f4 <test_26>:
8000a8f4:	7c000fb7          	lui	t6,0x7c000
8000a8f8:	03f03133          	mulhu	sp,zero,t6
8000a8fc:	00000e93          	li	t4,0
8000a900:	01a00e13          	li	t3,26
8000a904:	05d11263          	bne	sp,t4,8000a948 <fail>

8000a908 <test_27>:
8000a908:	80000fb7          	lui	t6,0x80000
8000a90c:	020fb133          	mulhu	sp,t6,zero
8000a910:	00000e93          	li	t4,0
8000a914:	01b00e13          	li	t3,27
8000a918:	03d11863          	bne	sp,t4,8000a948 <fail>

8000a91c <test_28>:
8000a91c:	02003fb3          	mulhu	t6,zero,zero
8000a920:	00000e93          	li	t4,0
8000a924:	01c00e13          	li	t3,28
8000a928:	03df9063          	bne	t6,t4,8000a948 <fail>

8000a92c <test_29>:
8000a92c:	02100fb7          	lui	t6,0x2100
8000a930:	02200137          	lui	sp,0x2200
8000a934:	022fb033          	mulhu	zero,t6,sp
8000a938:	00000e93          	li	t4,0
8000a93c:	01d00e13          	li	t3,29
8000a940:	01d01463          	bne	zero,t4,8000a948 <fail>
8000a944:	0100006f          	j	8000a954 <pass>

8000a948 <fail>:
8000a948:	fff00513          	li	a0,-1
8000a94c:	00100073          	ebreak
8000a950:	ff9ff06f          	j	8000a948 <fail>

8000a954 <pass>:
8000a954:	00000513          	li	a0,0
8000a958:	00008067          	ret

8000a95c <andi>:
8000a95c:	ff010fb7          	lui	t6,0xff010
8000a960:	f00f8f93          	add	t6,t6,-256 # ff00ff00 <_end+0x7effcf00>
8000a964:	f0fff193          	and	gp,t6,-241
8000a968:	ff010eb7          	lui	t4,0xff010
8000a96c:	f00e8e93          	add	t4,t4,-256 # ff00ff00 <_end+0x7effcf00>
8000a970:	00200e13          	li	t3,2
8000a974:	1bd19463          	bne	gp,t4,8000ab1c <fail>

8000a978 <test_3>:
8000a978:	0ff01fb7          	lui	t6,0xff01
8000a97c:	ff0f8f93          	add	t6,t6,-16 # ff00ff0 <_entry_offset+0xff00ff0>
8000a980:	0f0ff193          	and	gp,t6,240
8000a984:	0f000e93          	li	t4,240
8000a988:	00300e13          	li	t3,3
8000a98c:	19d19863          	bne	gp,t4,8000ab1c <fail>

8000a990 <test_4>:
8000a990:	00ff0fb7          	lui	t6,0xff0
8000a994:	0fff8f93          	add	t6,t6,255 # ff00ff <_entry_offset+0xff00ff>
8000a998:	70fff193          	and	gp,t6,1807
8000a99c:	00f00e93          	li	t4,15
8000a9a0:	00400e13          	li	t3,4
8000a9a4:	17d19c63          	bne	gp,t4,8000ab1c <fail>

8000a9a8 <test_5>:
8000a9a8:	f00fffb7          	lui	t6,0xf00ff
8000a9ac:	00ff8f93          	add	t6,t6,15 # f00ff00f <_end+0x700ec00f>
8000a9b0:	0f0ff193          	and	gp,t6,240
8000a9b4:	00000e93          	li	t4,0
8000a9b8:	00500e13          	li	t3,5
8000a9bc:	17d19063          	bne	gp,t4,8000ab1c <fail>

8000a9c0 <test_6>:
8000a9c0:	ff010fb7          	lui	t6,0xff010
8000a9c4:	f00f8f93          	add	t6,t6,-256 # ff00ff00 <_end+0x7effcf00>
8000a9c8:	0f0fff93          	and	t6,t6,240
8000a9cc:	00000e93          	li	t4,0
8000a9d0:	00600e13          	li	t3,6
8000a9d4:	15df9463          	bne	t6,t4,8000ab1c <fail>

8000a9d8 <test_7>:
8000a9d8:	00000213          	li	tp,0
8000a9dc:	0ff01fb7          	lui	t6,0xff01
8000a9e0:	ff0f8f93          	add	t6,t6,-16 # ff00ff0 <_entry_offset+0xff00ff0>
8000a9e4:	70fff193          	and	gp,t6,1807
8000a9e8:	00018313          	mv	t1,gp
8000a9ec:	00120213          	add	tp,tp,1 # 1 <_entry_offset+0x1>
8000a9f0:	00200293          	li	t0,2
8000a9f4:	fe5214e3          	bne	tp,t0,8000a9dc <test_7+0x4>
8000a9f8:	70000e93          	li	t4,1792
8000a9fc:	00700e13          	li	t3,7
8000aa00:	11d31e63          	bne	t1,t4,8000ab1c <fail>

8000aa04 <test_8>:
8000aa04:	00000213          	li	tp,0
8000aa08:	00ff0fb7          	lui	t6,0xff0
8000aa0c:	0fff8f93          	add	t6,t6,255 # ff00ff <_entry_offset+0xff00ff>
8000aa10:	0f0ff193          	and	gp,t6,240
8000aa14:	00000013          	nop
8000aa18:	00018313          	mv	t1,gp
8000aa1c:	00120213          	add	tp,tp,1 # 1 <_entry_offset+0x1>
8000aa20:	00200293          	li	t0,2
8000aa24:	fe5212e3          	bne	tp,t0,8000aa08 <test_8+0x4>
8000aa28:	0f000e93          	li	t4,240
8000aa2c:	00800e13          	li	t3,8
8000aa30:	0fd31663          	bne	t1,t4,8000ab1c <fail>

8000aa34 <test_9>:
8000aa34:	00000213          	li	tp,0
8000aa38:	f00fffb7          	lui	t6,0xf00ff
8000aa3c:	00ff8f93          	add	t6,t6,15 # f00ff00f <_end+0x700ec00f>
8000aa40:	f0fff193          	and	gp,t6,-241
8000aa44:	00000013          	nop
8000aa48:	00000013          	nop
8000aa4c:	00018313          	mv	t1,gp
8000aa50:	00120213          	add	tp,tp,1 # 1 <_entry_offset+0x1>
8000aa54:	00200293          	li	t0,2
8000aa58:	fe5210e3          	bne	tp,t0,8000aa38 <test_9+0x4>
8000aa5c:	f00ffeb7          	lui	t4,0xf00ff
8000aa60:	00fe8e93          	add	t4,t4,15 # f00ff00f <_end+0x700ec00f>
8000aa64:	00900e13          	li	t3,9
8000aa68:	0bd31a63          	bne	t1,t4,8000ab1c <fail>

8000aa6c <test_10>:
8000aa6c:	00000213          	li	tp,0
8000aa70:	0ff01fb7          	lui	t6,0xff01
8000aa74:	ff0f8f93          	add	t6,t6,-16 # ff00ff0 <_entry_offset+0xff00ff0>
8000aa78:	70fff193          	and	gp,t6,1807
8000aa7c:	00120213          	add	tp,tp,1 # 1 <_entry_offset+0x1>
8000aa80:	00200293          	li	t0,2
8000aa84:	fe5216e3          	bne	tp,t0,8000aa70 <test_10+0x4>
8000aa88:	70000e93          	li	t4,1792
8000aa8c:	00a00e13          	li	t3,10
8000aa90:	09d19663          	bne	gp,t4,8000ab1c <fail>

8000aa94 <test_11>:
8000aa94:	00000213          	li	tp,0
8000aa98:	00ff0fb7          	lui	t6,0xff0
8000aa9c:	0fff8f93          	add	t6,t6,255 # ff00ff <_entry_offset+0xff00ff>
8000aaa0:	00000013          	nop
8000aaa4:	0f0ff193          	and	gp,t6,240
8000aaa8:	00120213          	add	tp,tp,1 # 1 <_entry_offset+0x1>
8000aaac:	00200293          	li	t0,2
8000aab0:	fe5214e3          	bne	tp,t0,8000aa98 <test_11+0x4>
8000aab4:	0f000e93          	li	t4,240
8000aab8:	00b00e13          	li	t3,11
8000aabc:	07d19063          	bne	gp,t4,8000ab1c <fail>

8000aac0 <test_12>:
8000aac0:	00000213          	li	tp,0
8000aac4:	f00fffb7          	lui	t6,0xf00ff
8000aac8:	00ff8f93          	add	t6,t6,15 # f00ff00f <_end+0x700ec00f>
8000aacc:	00000013          	nop
8000aad0:	00000013          	nop
8000aad4:	70fff193          	and	gp,t6,1807
8000aad8:	00120213          	add	tp,tp,1 # 1 <_entry_offset+0x1>
8000aadc:	00200293          	li	t0,2
8000aae0:	fe5212e3          	bne	tp,t0,8000aac4 <test_12+0x4>
8000aae4:	00f00e93          	li	t4,15
8000aae8:	00c00e13          	li	t3,12
8000aaec:	03d19863          	bne	gp,t4,8000ab1c <fail>

8000aaf0 <test_13>:
8000aaf0:	0f007f93          	and	t6,zero,240
8000aaf4:	00000e93          	li	t4,0
8000aaf8:	00d00e13          	li	t3,13
8000aafc:	03df9063          	bne	t6,t4,8000ab1c <fail>

8000ab00 <test_14>:
8000ab00:	00ff0fb7          	lui	t6,0xff0
8000ab04:	0fff8f93          	add	t6,t6,255 # ff00ff <_entry_offset+0xff00ff>
8000ab08:	70fff013          	and	zero,t6,1807
8000ab0c:	00000e93          	li	t4,0
8000ab10:	00e00e13          	li	t3,14
8000ab14:	01d01463          	bne	zero,t4,8000ab1c <fail>
8000ab18:	0100006f          	j	8000ab28 <pass>

8000ab1c <fail>:
8000ab1c:	fff00513          	li	a0,-1
8000ab20:	00100073          	ebreak
8000ab24:	ff9ff06f          	j	8000ab1c <fail>

8000ab28 <pass>:
8000ab28:	00000513          	li	a0,0
8000ab2c:	00008067          	ret

8000ab30 <putch>:
8000ab30:	00008067          	ret

8000ab34 <halt>:
8000ab34:	00050513          	mv	a0,a0
8000ab38:	00100073          	ebreak
8000ab3c:	0000006f          	j	8000ab3c <halt+0x8>

8000ab40 <call_main>:
8000ab40:	8000b537          	lui	a0,0x8000b
8000ab44:	ff010113          	add	sp,sp,-16 # 21ffff0 <_entry_offset+0x21ffff0>
8000ab48:	b6050513          	add	a0,a0,-1184 # 8000ab60 <_etext>
8000ab4c:	00112623          	sw	ra,12(sp)
8000ab50:	a34fc0ef          	jal	80006d84 <main>
8000ab54:	00050513          	mv	a0,a0
8000ab58:	00100073          	ebreak
8000ab5c:	0000006f          	j	8000ab5c <call_main+0x1c>
