
/home/xhyvm2/gitwork/labs/COMPSYS/software/functest/build/bit-riscv32.elf:     file format elf32-littleriscv


Disassembly of section .text:

80000000 <_start>:
80000000:	00000413          	li	s0,0
80000004:	00009117          	auipc	sp,0x9
80000008:	ffc10113          	add	sp,sp,-4 # 80009000 <_end>
8000000c:	36c000ef          	jal	80000378 <call_main>

80000010 <check>:
80000010:	fe010113          	add	sp,sp,-32
80000014:	00112e23          	sw	ra,28(sp)
80000018:	00812c23          	sw	s0,24(sp)
8000001c:	02010413          	add	s0,sp,32
80000020:	fea42623          	sw	a0,-20(s0)
80000024:	fec42783          	lw	a5,-20(s0)
80000028:	00079663          	bnez	a5,80000034 <check+0x24>
8000002c:	00100513          	li	a0,1
80000030:	33c000ef          	jal	8000036c <halt>
80000034:	00000013          	nop
80000038:	01c12083          	lw	ra,28(sp)
8000003c:	01812403          	lw	s0,24(sp)
80000040:	02010113          	add	sp,sp,32
80000044:	00008067          	ret

80000048 <getbit>:
80000048:	fd010113          	add	sp,sp,-48
8000004c:	02812623          	sw	s0,44(sp)
80000050:	03010413          	add	s0,sp,48
80000054:	fca42e23          	sw	a0,-36(s0)
80000058:	fcb42c23          	sw	a1,-40(s0)
8000005c:	fd842783          	lw	a5,-40(s0)
80000060:	4037d793          	sra	a5,a5,0x3
80000064:	fef42623          	sw	a5,-20(s0)
80000068:	fd842783          	lw	a5,-40(s0)
8000006c:	0077f793          	and	a5,a5,7
80000070:	fcf42c23          	sw	a5,-40(s0)
80000074:	fd842783          	lw	a5,-40(s0)
80000078:	00100713          	li	a4,1
8000007c:	00f717b3          	sll	a5,a4,a5
80000080:	fef405a3          	sb	a5,-21(s0)
80000084:	fec42783          	lw	a5,-20(s0)
80000088:	fdc42703          	lw	a4,-36(s0)
8000008c:	00f707b3          	add	a5,a4,a5
80000090:	0007c783          	lbu	a5,0(a5)
80000094:	feb44703          	lbu	a4,-21(s0)
80000098:	00e7f7b3          	and	a5,a5,a4
8000009c:	0ff7f793          	zext.b	a5,a5
800000a0:	00f037b3          	snez	a5,a5
800000a4:	0ff7f793          	zext.b	a5,a5
800000a8:	00078513          	mv	a0,a5
800000ac:	02c12403          	lw	s0,44(sp)
800000b0:	03010113          	add	sp,sp,48
800000b4:	00008067          	ret

800000b8 <setbit>:
800000b8:	fd010113          	add	sp,sp,-48
800000bc:	02812623          	sw	s0,44(sp)
800000c0:	03010413          	add	s0,sp,48
800000c4:	fca42e23          	sw	a0,-36(s0)
800000c8:	fcb42c23          	sw	a1,-40(s0)
800000cc:	00060793          	mv	a5,a2
800000d0:	fcf40ba3          	sb	a5,-41(s0)
800000d4:	fd842783          	lw	a5,-40(s0)
800000d8:	4037d793          	sra	a5,a5,0x3
800000dc:	fef42623          	sw	a5,-20(s0)
800000e0:	fd842783          	lw	a5,-40(s0)
800000e4:	0077f793          	and	a5,a5,7
800000e8:	fcf42c23          	sw	a5,-40(s0)
800000ec:	fd842783          	lw	a5,-40(s0)
800000f0:	00100713          	li	a4,1
800000f4:	00f717b3          	sll	a5,a4,a5
800000f8:	fef405a3          	sb	a5,-21(s0)
800000fc:	fec42783          	lw	a5,-20(s0)
80000100:	fdc42703          	lw	a4,-36(s0)
80000104:	00f707b3          	add	a5,a4,a5
80000108:	fef42223          	sw	a5,-28(s0)
8000010c:	fd744783          	lbu	a5,-41(s0)
80000110:	0017c793          	xor	a5,a5,1
80000114:	0ff7f793          	zext.b	a5,a5
80000118:	02078c63          	beqz	a5,80000150 <setbit+0x98>
8000011c:	fe442783          	lw	a5,-28(s0)
80000120:	0007c783          	lbu	a5,0(a5)
80000124:	01879713          	sll	a4,a5,0x18
80000128:	41875713          	sra	a4,a4,0x18
8000012c:	feb40783          	lb	a5,-21(s0)
80000130:	fff7c793          	not	a5,a5
80000134:	01879793          	sll	a5,a5,0x18
80000138:	4187d793          	sra	a5,a5,0x18
8000013c:	00f777b3          	and	a5,a4,a5
80000140:	01879793          	sll	a5,a5,0x18
80000144:	4187d793          	sra	a5,a5,0x18
80000148:	0ff7f793          	zext.b	a5,a5
8000014c:	0180006f          	j	80000164 <setbit+0xac>
80000150:	fe442783          	lw	a5,-28(s0)
80000154:	0007c783          	lbu	a5,0(a5)
80000158:	feb44703          	lbu	a4,-21(s0)
8000015c:	00e7e7b3          	or	a5,a5,a4
80000160:	0ff7f793          	zext.b	a5,a5
80000164:	fe442703          	lw	a4,-28(s0)
80000168:	00f70023          	sb	a5,0(a4)
8000016c:	00000013          	nop
80000170:	02c12403          	lw	s0,44(sp)
80000174:	03010113          	add	sp,sp,48
80000178:	00008067          	ret

8000017c <main>:
8000017c:	fe010113          	add	sp,sp,-32
80000180:	00112e23          	sw	ra,28(sp)
80000184:	00812c23          	sw	s0,24(sp)
80000188:	02010413          	add	s0,sp,32
8000018c:	faa00793          	li	a5,-86
80000190:	fef40623          	sb	a5,-20(s0)
80000194:	fe0406a3          	sb	zero,-19(s0)
80000198:	fec40793          	add	a5,s0,-20
8000019c:	00000593          	li	a1,0
800001a0:	00078513          	mv	a0,a5
800001a4:	ea5ff0ef          	jal	80000048 <getbit>
800001a8:	00050793          	mv	a5,a0
800001ac:	0017c793          	xor	a5,a5,1
800001b0:	0ff7f793          	zext.b	a5,a5
800001b4:	00078513          	mv	a0,a5
800001b8:	e59ff0ef          	jal	80000010 <check>
800001bc:	fec40793          	add	a5,s0,-20
800001c0:	00100593          	li	a1,1
800001c4:	00078513          	mv	a0,a5
800001c8:	e81ff0ef          	jal	80000048 <getbit>
800001cc:	00050793          	mv	a5,a0
800001d0:	00078513          	mv	a0,a5
800001d4:	e3dff0ef          	jal	80000010 <check>
800001d8:	fec40793          	add	a5,s0,-20
800001dc:	00200593          	li	a1,2
800001e0:	00078513          	mv	a0,a5
800001e4:	e65ff0ef          	jal	80000048 <getbit>
800001e8:	00050793          	mv	a5,a0
800001ec:	0017c793          	xor	a5,a5,1
800001f0:	0ff7f793          	zext.b	a5,a5
800001f4:	00078513          	mv	a0,a5
800001f8:	e19ff0ef          	jal	80000010 <check>
800001fc:	fec40793          	add	a5,s0,-20
80000200:	00300593          	li	a1,3
80000204:	00078513          	mv	a0,a5
80000208:	e41ff0ef          	jal	80000048 <getbit>
8000020c:	00050793          	mv	a5,a0
80000210:	00078513          	mv	a0,a5
80000214:	dfdff0ef          	jal	80000010 <check>
80000218:	fec40793          	add	a5,s0,-20
8000021c:	00400593          	li	a1,4
80000220:	00078513          	mv	a0,a5
80000224:	e25ff0ef          	jal	80000048 <getbit>
80000228:	00050793          	mv	a5,a0
8000022c:	0017c793          	xor	a5,a5,1
80000230:	0ff7f793          	zext.b	a5,a5
80000234:	00078513          	mv	a0,a5
80000238:	dd9ff0ef          	jal	80000010 <check>
8000023c:	fec40793          	add	a5,s0,-20
80000240:	00500593          	li	a1,5
80000244:	00078513          	mv	a0,a5
80000248:	e01ff0ef          	jal	80000048 <getbit>
8000024c:	00050793          	mv	a5,a0
80000250:	00078513          	mv	a0,a5
80000254:	dbdff0ef          	jal	80000010 <check>
80000258:	fec40793          	add	a5,s0,-20
8000025c:	00600593          	li	a1,6
80000260:	00078513          	mv	a0,a5
80000264:	de5ff0ef          	jal	80000048 <getbit>
80000268:	00050793          	mv	a5,a0
8000026c:	0017c793          	xor	a5,a5,1
80000270:	0ff7f793          	zext.b	a5,a5
80000274:	00078513          	mv	a0,a5
80000278:	d99ff0ef          	jal	80000010 <check>
8000027c:	fec40793          	add	a5,s0,-20
80000280:	00700593          	li	a1,7
80000284:	00078513          	mv	a0,a5
80000288:	dc1ff0ef          	jal	80000048 <getbit>
8000028c:	00050793          	mv	a5,a0
80000290:	00078513          	mv	a0,a5
80000294:	d7dff0ef          	jal	80000010 <check>
80000298:	fec40793          	add	a5,s0,-20
8000029c:	00100613          	li	a2,1
800002a0:	00800593          	li	a1,8
800002a4:	00078513          	mv	a0,a5
800002a8:	e11ff0ef          	jal	800000b8 <setbit>
800002ac:	fec40793          	add	a5,s0,-20
800002b0:	00000613          	li	a2,0
800002b4:	00900593          	li	a1,9
800002b8:	00078513          	mv	a0,a5
800002bc:	dfdff0ef          	jal	800000b8 <setbit>
800002c0:	fec40793          	add	a5,s0,-20
800002c4:	00100613          	li	a2,1
800002c8:	00a00593          	li	a1,10
800002cc:	00078513          	mv	a0,a5
800002d0:	de9ff0ef          	jal	800000b8 <setbit>
800002d4:	fec40793          	add	a5,s0,-20
800002d8:	00000613          	li	a2,0
800002dc:	00b00593          	li	a1,11
800002e0:	00078513          	mv	a0,a5
800002e4:	dd5ff0ef          	jal	800000b8 <setbit>
800002e8:	fec40793          	add	a5,s0,-20
800002ec:	00100613          	li	a2,1
800002f0:	00c00593          	li	a1,12
800002f4:	00078513          	mv	a0,a5
800002f8:	dc1ff0ef          	jal	800000b8 <setbit>
800002fc:	fec40793          	add	a5,s0,-20
80000300:	00000613          	li	a2,0
80000304:	00d00593          	li	a1,13
80000308:	00078513          	mv	a0,a5
8000030c:	dadff0ef          	jal	800000b8 <setbit>
80000310:	fec40793          	add	a5,s0,-20
80000314:	00100613          	li	a2,1
80000318:	00e00593          	li	a1,14
8000031c:	00078513          	mv	a0,a5
80000320:	d99ff0ef          	jal	800000b8 <setbit>
80000324:	fec40793          	add	a5,s0,-20
80000328:	00000613          	li	a2,0
8000032c:	00f00593          	li	a1,15
80000330:	00078513          	mv	a0,a5
80000334:	d85ff0ef          	jal	800000b8 <setbit>
80000338:	fed44783          	lbu	a5,-19(s0)
8000033c:	fab78793          	add	a5,a5,-85
80000340:	0017b793          	seqz	a5,a5
80000344:	0ff7f793          	zext.b	a5,a5
80000348:	00078513          	mv	a0,a5
8000034c:	cc5ff0ef          	jal	80000010 <check>
80000350:	00000793          	li	a5,0
80000354:	00078513          	mv	a0,a5
80000358:	01c12083          	lw	ra,28(sp)
8000035c:	01812403          	lw	s0,24(sp)
80000360:	02010113          	add	sp,sp,32
80000364:	00008067          	ret

80000368 <putch>:
80000368:	00008067          	ret

8000036c <halt>:
8000036c:	00050513          	mv	a0,a0
80000370:	00100073          	ebreak
80000374:	0000006f          	j	80000374 <halt+0x8>

80000378 <call_main>:
80000378:	80000537          	lui	a0,0x80000
8000037c:	ff010113          	add	sp,sp,-16
80000380:	39850513          	add	a0,a0,920 # 80000398 <_etext>
80000384:	00112623          	sw	ra,12(sp)
80000388:	df5ff0ef          	jal	8000017c <main>
8000038c:	00050513          	mv	a0,a0
80000390:	00100073          	ebreak
80000394:	0000006f          	j	80000394 <call_main+0x1c>
