
/home/xhyvm2/gitwork/labs/COMPSYS/software/functest/build/crc32-riscv32.elf:     file format elf32-littleriscv


Disassembly of section .text:

80000000 <_start>:
80000000:	00000413          	li	s0,0
80000004:	00009117          	auipc	sp,0x9
80000008:	ffc10113          	add	sp,sp,-4 # 80009000 <_end>
8000000c:	214000ef          	jal	80000220 <call_main>

80000010 <check>:
80000010:	fe010113          	add	sp,sp,-32
80000014:	00112e23          	sw	ra,28(sp)
80000018:	00812c23          	sw	s0,24(sp)
8000001c:	02010413          	add	s0,sp,32
80000020:	fea42623          	sw	a0,-20(s0)
80000024:	fec42783          	lw	a5,-20(s0)
80000028:	00079663          	bnez	a5,80000034 <check+0x24>
8000002c:	00100513          	li	a0,1
80000030:	1e4000ef          	jal	80000214 <halt>
80000034:	00000013          	nop
80000038:	01c12083          	lw	ra,28(sp)
8000003c:	01812403          	lw	s0,24(sp)
80000040:	02010113          	add	sp,sp,32
80000044:	00008067          	ret

80000048 <rc_crc32>:
80000048:	fc010113          	add	sp,sp,-64
8000004c:	02812e23          	sw	s0,60(sp)
80000050:	04010413          	add	s0,sp,64
80000054:	fca42623          	sw	a0,-52(s0)
80000058:	fcb42423          	sw	a1,-56(s0)
8000005c:	fcc42223          	sw	a2,-60(s0)
80000060:	800007b7          	lui	a5,0x80000
80000064:	2707a783          	lw	a5,624(a5) # 80000270 <have_table.1>
80000068:	0a079863          	bnez	a5,80000118 <rc_crc32+0xd0>
8000006c:	fe042423          	sw	zero,-24(s0)
80000070:	0900006f          	j	80000100 <rc_crc32+0xb8>
80000074:	fe842783          	lw	a5,-24(s0)
80000078:	fef42623          	sw	a5,-20(s0)
8000007c:	fe042223          	sw	zero,-28(s0)
80000080:	04c0006f          	j	800000cc <rc_crc32+0x84>
80000084:	fec42783          	lw	a5,-20(s0)
80000088:	0017f793          	and	a5,a5,1
8000008c:	02078463          	beqz	a5,800000b4 <rc_crc32+0x6c>
80000090:	fec42783          	lw	a5,-20(s0)
80000094:	0017d793          	srl	a5,a5,0x1
80000098:	fef42623          	sw	a5,-20(s0)
8000009c:	fec42703          	lw	a4,-20(s0)
800000a0:	edb887b7          	lui	a5,0xedb88
800000a4:	32078793          	add	a5,a5,800 # edb88320 <_end+0x6db7f320>
800000a8:	00f747b3          	xor	a5,a4,a5
800000ac:	fef42623          	sw	a5,-20(s0)
800000b0:	0100006f          	j	800000c0 <rc_crc32+0x78>
800000b4:	fec42783          	lw	a5,-20(s0)
800000b8:	0017d793          	srl	a5,a5,0x1
800000bc:	fef42623          	sw	a5,-20(s0)
800000c0:	fe442783          	lw	a5,-28(s0)
800000c4:	00178793          	add	a5,a5,1
800000c8:	fef42223          	sw	a5,-28(s0)
800000cc:	fe442703          	lw	a4,-28(s0)
800000d0:	00700793          	li	a5,7
800000d4:	fae7d8e3          	bge	a5,a4,80000084 <rc_crc32+0x3c>
800000d8:	800007b7          	lui	a5,0x80000
800000dc:	27478713          	add	a4,a5,628 # 80000274 <table.0>
800000e0:	fe842783          	lw	a5,-24(s0)
800000e4:	00279793          	sll	a5,a5,0x2
800000e8:	00f707b3          	add	a5,a4,a5
800000ec:	fec42703          	lw	a4,-20(s0)
800000f0:	00e7a023          	sw	a4,0(a5)
800000f4:	fe842783          	lw	a5,-24(s0)
800000f8:	00178793          	add	a5,a5,1
800000fc:	fef42423          	sw	a5,-24(s0)
80000100:	fe842703          	lw	a4,-24(s0)
80000104:	0ff00793          	li	a5,255
80000108:	f6e7d6e3          	bge	a5,a4,80000074 <rc_crc32+0x2c>
8000010c:	800007b7          	lui	a5,0x80000
80000110:	00100713          	li	a4,1
80000114:	26e7a823          	sw	a4,624(a5) # 80000270 <have_table.1>
80000118:	fcc42783          	lw	a5,-52(s0)
8000011c:	fff7c793          	not	a5,a5
80000120:	fcf42623          	sw	a5,-52(s0)
80000124:	fc842703          	lw	a4,-56(s0)
80000128:	fc442783          	lw	a5,-60(s0)
8000012c:	00f707b3          	add	a5,a4,a5
80000130:	fcf42e23          	sw	a5,-36(s0)
80000134:	fc842783          	lw	a5,-56(s0)
80000138:	fef42023          	sw	a5,-32(s0)
8000013c:	0500006f          	j	8000018c <rc_crc32+0x144>
80000140:	fe042783          	lw	a5,-32(s0)
80000144:	0007c783          	lbu	a5,0(a5)
80000148:	fcf40da3          	sb	a5,-37(s0)
8000014c:	fcc42783          	lw	a5,-52(s0)
80000150:	0087d713          	srl	a4,a5,0x8
80000154:	fcc42783          	lw	a5,-52(s0)
80000158:	0ff7f693          	zext.b	a3,a5
8000015c:	fdb44783          	lbu	a5,-37(s0)
80000160:	00f6c7b3          	xor	a5,a3,a5
80000164:	800006b7          	lui	a3,0x80000
80000168:	27468693          	add	a3,a3,628 # 80000274 <table.0>
8000016c:	00279793          	sll	a5,a5,0x2
80000170:	00f687b3          	add	a5,a3,a5
80000174:	0007a783          	lw	a5,0(a5)
80000178:	00f747b3          	xor	a5,a4,a5
8000017c:	fcf42623          	sw	a5,-52(s0)
80000180:	fe042783          	lw	a5,-32(s0)
80000184:	00178793          	add	a5,a5,1
80000188:	fef42023          	sw	a5,-32(s0)
8000018c:	fe042703          	lw	a4,-32(s0)
80000190:	fdc42783          	lw	a5,-36(s0)
80000194:	faf766e3          	bltu	a4,a5,80000140 <rc_crc32+0xf8>
80000198:	fcc42783          	lw	a5,-52(s0)
8000019c:	fff7c793          	not	a5,a5
800001a0:	00078513          	mv	a0,a5
800001a4:	03c12403          	lw	s0,60(sp)
800001a8:	04010113          	add	sp,sp,64
800001ac:	00008067          	ret

800001b0 <main>:
800001b0:	fe010113          	add	sp,sp,-32
800001b4:	00112e23          	sw	ra,28(sp)
800001b8:	00812c23          	sw	s0,24(sp)
800001bc:	02010413          	add	s0,sp,32
800001c0:	02b00613          	li	a2,43
800001c4:	800007b7          	lui	a5,0x80000
800001c8:	24078593          	add	a1,a5,576 # 80000240 <_etext>
800001cc:	00000513          	li	a0,0
800001d0:	e79ff0ef          	jal	80000048 <rc_crc32>
800001d4:	fea42623          	sw	a0,-20(s0)
800001d8:	fec42703          	lw	a4,-20(s0)
800001dc:	beb067b7          	lui	a5,0xbeb06
800001e0:	cc778793          	add	a5,a5,-825 # beb05cc7 <_end+0x3eafccc7>
800001e4:	00f707b3          	add	a5,a4,a5
800001e8:	0017b793          	seqz	a5,a5
800001ec:	0ff7f793          	zext.b	a5,a5
800001f0:	00078513          	mv	a0,a5
800001f4:	e1dff0ef          	jal	80000010 <check>
800001f8:	00000793          	li	a5,0
800001fc:	00078513          	mv	a0,a5
80000200:	01c12083          	lw	ra,28(sp)
80000204:	01812403          	lw	s0,24(sp)
80000208:	02010113          	add	sp,sp,32
8000020c:	00008067          	ret

80000210 <putch>:
80000210:	00008067          	ret

80000214 <halt>:
80000214:	00050513          	mv	a0,a0
80000218:	00100073          	ebreak
8000021c:	0000006f          	j	8000021c <halt+0x8>

80000220 <call_main>:
80000220:	80000537          	lui	a0,0x80000
80000224:	ff010113          	add	sp,sp,-16
80000228:	26c50513          	add	a0,a0,620 # 8000026c <argv>
8000022c:	00112623          	sw	ra,12(sp)
80000230:	f81ff0ef          	jal	800001b0 <main>
80000234:	00050513          	mv	a0,a0
80000238:	00100073          	ebreak
8000023c:	0000006f          	j	8000023c <call_main+0x1c>
