
/home/fcmwf/CECS-Lab/software/functest/build/fact-riscv32.elf:     file format elf32-littleriscv


Disassembly of section .text:

80000000 <_start>:
80000000:	00000413          	li	s0,0
80000004:	00009117          	auipc	sp,0x9
80000008:	ffc10113          	add	sp,sp,-4 # 80009000 <_end>
8000000c:	15c000ef          	jal	80000168 <call_main>

80000010 <check>:
80000010:	fe010113          	add	sp,sp,-32
80000014:	00112e23          	sw	ra,28(sp)
80000018:	00812c23          	sw	s0,24(sp)
8000001c:	02010413          	add	s0,sp,32
80000020:	fea42623          	sw	a0,-20(s0)
80000024:	fec42783          	lw	a5,-20(s0)
80000028:	00079663          	bnez	a5,80000034 <check+0x24>
8000002c:	00100513          	li	a0,1
80000030:	12c000ef          	jal	8000015c <halt>
80000034:	00000013          	nop
80000038:	01c12083          	lw	ra,28(sp)
8000003c:	01812403          	lw	s0,24(sp)
80000040:	02010113          	add	sp,sp,32
80000044:	00008067          	ret

80000048 <fact>:
80000048:	fe010113          	add	sp,sp,-32
8000004c:	00112e23          	sw	ra,28(sp)
80000050:	00812c23          	sw	s0,24(sp)
80000054:	02010413          	add	s0,sp,32
80000058:	fea42623          	sw	a0,-20(s0)
8000005c:	fec42783          	lw	a5,-20(s0)
80000060:	00078863          	beqz	a5,80000070 <fact+0x28>
80000064:	fec42703          	lw	a4,-20(s0)
80000068:	00100793          	li	a5,1
8000006c:	00f71663          	bne	a4,a5,80000078 <fact+0x30>
80000070:	00100793          	li	a5,1
80000074:	0200006f          	j	80000094 <fact+0x4c>
80000078:	fec42783          	lw	a5,-20(s0)
8000007c:	fff78793          	add	a5,a5,-1
80000080:	00078513          	mv	a0,a5
80000084:	fc5ff0ef          	jal	80000048 <fact>
80000088:	00050713          	mv	a4,a0
8000008c:	fec42783          	lw	a5,-20(s0)
80000090:	02f707b3          	mul	a5,a4,a5
80000094:	00078513          	mv	a0,a5
80000098:	01c12083          	lw	ra,28(sp)
8000009c:	01812403          	lw	s0,24(sp)
800000a0:	02010113          	add	sp,sp,32
800000a4:	00008067          	ret

800000a8 <main>:
800000a8:	fe010113          	add	sp,sp,-32
800000ac:	00112e23          	sw	ra,28(sp)
800000b0:	00812c23          	sw	s0,24(sp)
800000b4:	02010413          	add	s0,sp,32
800000b8:	fe042623          	sw	zero,-20(s0)
800000bc:	0780006f          	j	80000134 <main+0x8c>
800000c0:	fec42503          	lw	a0,-20(s0)
800000c4:	f85ff0ef          	jal	80000048 <fact>
800000c8:	00050693          	mv	a3,a0
800000cc:	800007b7          	lui	a5,0x80000
800000d0:	1c078713          	add	a4,a5,448 # 800001c0 <f>
800000d4:	fec42783          	lw	a5,-20(s0)
800000d8:	00279793          	sll	a5,a5,0x2
800000dc:	00f707b3          	add	a5,a4,a5
800000e0:	00d7a023          	sw	a3,0(a5)
800000e4:	800007b7          	lui	a5,0x80000
800000e8:	1c078713          	add	a4,a5,448 # 800001c0 <f>
800000ec:	fec42783          	lw	a5,-20(s0)
800000f0:	00279793          	sll	a5,a5,0x2
800000f4:	00f707b3          	add	a5,a4,a5
800000f8:	0007a703          	lw	a4,0(a5)
800000fc:	800007b7          	lui	a5,0x80000
80000100:	18c78693          	add	a3,a5,396 # 8000018c <ans>
80000104:	fec42783          	lw	a5,-20(s0)
80000108:	00279793          	sll	a5,a5,0x2
8000010c:	00f687b3          	add	a5,a3,a5
80000110:	0007a783          	lw	a5,0(a5)
80000114:	40f707b3          	sub	a5,a4,a5
80000118:	0017b793          	seqz	a5,a5
8000011c:	0ff7f793          	zext.b	a5,a5
80000120:	00078513          	mv	a0,a5
80000124:	eedff0ef          	jal	80000010 <check>
80000128:	fec42783          	lw	a5,-20(s0)
8000012c:	00178793          	add	a5,a5,1
80000130:	fef42623          	sw	a5,-20(s0)
80000134:	fec42703          	lw	a4,-20(s0)
80000138:	00c00793          	li	a5,12
8000013c:	f8e7d2e3          	bge	a5,a4,800000c0 <main+0x18>
80000140:	00000793          	li	a5,0
80000144:	00078513          	mv	a0,a5
80000148:	01c12083          	lw	ra,28(sp)
8000014c:	01812403          	lw	s0,24(sp)
80000150:	02010113          	add	sp,sp,32
80000154:	00008067          	ret

80000158 <putch>:
80000158:	00008067          	ret

8000015c <halt>:
8000015c:	00050513          	mv	a0,a0
80000160:	00100073          	ebreak
80000164:	0000006f          	j	80000164 <halt+0x8>

80000168 <call_main>:
80000168:	80000537          	lui	a0,0x80000
8000016c:	ff010113          	add	sp,sp,-16
80000170:	18850513          	add	a0,a0,392 # 80000188 <_etext>
80000174:	00112623          	sw	ra,12(sp)
80000178:	f31ff0ef          	jal	800000a8 <main>
8000017c:	00050513          	mv	a0,a0
80000180:	00100073          	ebreak
80000184:	0000006f          	j	80000184 <call_main+0x1c>
