
/home/fcmwf/CECS-lab/software/functest/build/fib-riscv32.elf:     file format elf32-littleriscv


Disassembly of section .text:

80000000 <_start>:
80000000:	00000413          	li	s0,0
80000004:	00009117          	auipc	sp,0x9
80000008:	ffc10113          	add	sp,sp,-4 # 80009000 <_end>
8000000c:	148000ef          	jal	80000154 <call_main>

80000010 <check>:
80000010:	fe010113          	add	sp,sp,-32
80000014:	00112e23          	sw	ra,28(sp)
80000018:	00812c23          	sw	s0,24(sp)
8000001c:	02010413          	add	s0,sp,32
80000020:	fea42623          	sw	a0,-20(s0)
80000024:	fec42783          	lw	a5,-20(s0)
80000028:	00079663          	bnez	a5,80000034 <check+0x24>
8000002c:	00100513          	li	a0,1
80000030:	118000ef          	jal	80000148 <halt>
80000034:	00000013          	nop
80000038:	01c12083          	lw	ra,28(sp)
8000003c:	01812403          	lw	s0,24(sp)
80000040:	02010113          	add	sp,sp,32
80000044:	00008067          	ret

80000048 <main>:
80000048:	fe010113          	add	sp,sp,-32
8000004c:	00112e23          	sw	ra,28(sp)
80000050:	00812c23          	sw	s0,24(sp)
80000054:	02010413          	add	s0,sp,32
80000058:	00200793          	li	a5,2
8000005c:	fef42623          	sw	a5,-20(s0)
80000060:	0a80006f          	j	80000108 <main+0xc0>
80000064:	fec42783          	lw	a5,-20(s0)
80000068:	fff78793          	add	a5,a5,-1
8000006c:	80000737          	lui	a4,0x80000
80000070:	17870713          	add	a4,a4,376 # 80000178 <fib>
80000074:	00279793          	sll	a5,a5,0x2
80000078:	00f707b3          	add	a5,a4,a5
8000007c:	0007a703          	lw	a4,0(a5)
80000080:	fec42783          	lw	a5,-20(s0)
80000084:	ffe78793          	add	a5,a5,-2
80000088:	800006b7          	lui	a3,0x80000
8000008c:	17868693          	add	a3,a3,376 # 80000178 <fib>
80000090:	00279793          	sll	a5,a5,0x2
80000094:	00f687b3          	add	a5,a3,a5
80000098:	0007a783          	lw	a5,0(a5)
8000009c:	00f70733          	add	a4,a4,a5
800000a0:	800007b7          	lui	a5,0x80000
800000a4:	17878693          	add	a3,a5,376 # 80000178 <fib>
800000a8:	fec42783          	lw	a5,-20(s0)
800000ac:	00279793          	sll	a5,a5,0x2
800000b0:	00f687b3          	add	a5,a3,a5
800000b4:	00e7a023          	sw	a4,0(a5)
800000b8:	800007b7          	lui	a5,0x80000
800000bc:	17878713          	add	a4,a5,376 # 80000178 <fib>
800000c0:	fec42783          	lw	a5,-20(s0)
800000c4:	00279793          	sll	a5,a5,0x2
800000c8:	00f707b3          	add	a5,a4,a5
800000cc:	0007a703          	lw	a4,0(a5)
800000d0:	800007b7          	lui	a5,0x80000
800000d4:	21878693          	add	a3,a5,536 # 80000218 <ans>
800000d8:	fec42783          	lw	a5,-20(s0)
800000dc:	00279793          	sll	a5,a5,0x2
800000e0:	00f687b3          	add	a5,a3,a5
800000e4:	0007a783          	lw	a5,0(a5)
800000e8:	40f707b3          	sub	a5,a4,a5
800000ec:	0017b793          	seqz	a5,a5
800000f0:	0ff7f793          	zext.b	a5,a5
800000f4:	00078513          	mv	a0,a5
800000f8:	f19ff0ef          	jal	80000010 <check>
800000fc:	fec42783          	lw	a5,-20(s0)
80000100:	00178793          	add	a5,a5,1
80000104:	fef42623          	sw	a5,-20(s0)
80000108:	fec42703          	lw	a4,-20(s0)
8000010c:	02700793          	li	a5,39
80000110:	f4e7dae3          	bge	a5,a4,80000064 <main+0x1c>
80000114:	fec42783          	lw	a5,-20(s0)
80000118:	fd878793          	add	a5,a5,-40
8000011c:	0017b793          	seqz	a5,a5
80000120:	0ff7f793          	zext.b	a5,a5
80000124:	00078513          	mv	a0,a5
80000128:	ee9ff0ef          	jal	80000010 <check>
8000012c:	00000793          	li	a5,0
80000130:	00078513          	mv	a0,a5
80000134:	01c12083          	lw	ra,28(sp)
80000138:	01812403          	lw	s0,24(sp)
8000013c:	02010113          	add	sp,sp,32
80000140:	00008067          	ret

80000144 <putch>:
80000144:	00008067          	ret

80000148 <halt>:
80000148:	00050513          	mv	a0,a0
8000014c:	00100073          	ebreak
80000150:	0000006f          	j	80000150 <halt+0x8>

80000154 <call_main>:
80000154:	80000537          	lui	a0,0x80000
80000158:	ff010113          	add	sp,sp,-16
8000015c:	17450513          	add	a0,a0,372 # 80000174 <_etext>
80000160:	00112623          	sw	ra,12(sp)
80000164:	ee5ff0ef          	jal	80000048 <main>
80000168:	00050513          	mv	a0,a0
8000016c:	00100073          	ebreak
80000170:	0000006f          	j	80000170 <call_main+0x1c>
