
/home/fcmwf/CECS-Lab/software/functest/build/goldbach-riscv32.elf:     file format elf32-littleriscv


Disassembly of section .text:

80000000 <_start>:
80000000:	00000413          	li	s0,0
80000004:	00009117          	auipc	sp,0x9
80000008:	ffc10113          	add	sp,sp,-4 # 80009000 <_end>
8000000c:	1b0000ef          	jal	800001bc <call_main>

80000010 <check>:
80000010:	fe010113          	add	sp,sp,-32
80000014:	00112e23          	sw	ra,28(sp)
80000018:	00812c23          	sw	s0,24(sp)
8000001c:	02010413          	add	s0,sp,32
80000020:	fea42623          	sw	a0,-20(s0)
80000024:	fec42783          	lw	a5,-20(s0)
80000028:	00079663          	bnez	a5,80000034 <check+0x24>
8000002c:	00100513          	li	a0,1
80000030:	180000ef          	jal	800001b0 <halt>
80000034:	00000013          	nop
80000038:	01c12083          	lw	ra,28(sp)
8000003c:	01812403          	lw	s0,24(sp)
80000040:	02010113          	add	sp,sp,32
80000044:	00008067          	ret

80000048 <is_prime>:
80000048:	fd010113          	add	sp,sp,-48
8000004c:	02812623          	sw	s0,44(sp)
80000050:	03010413          	add	s0,sp,48
80000054:	fca42e23          	sw	a0,-36(s0)
80000058:	fdc42703          	lw	a4,-36(s0)
8000005c:	00100793          	li	a5,1
80000060:	00e7c663          	blt	a5,a4,8000006c <is_prime+0x24>
80000064:	00000793          	li	a5,0
80000068:	0440006f          	j	800000ac <is_prime+0x64>
8000006c:	00200793          	li	a5,2
80000070:	fef42623          	sw	a5,-20(s0)
80000074:	0280006f          	j	8000009c <is_prime+0x54>
80000078:	fdc42703          	lw	a4,-36(s0)
8000007c:	fec42783          	lw	a5,-20(s0)
80000080:	02f767b3          	rem	a5,a4,a5
80000084:	00079663          	bnez	a5,80000090 <is_prime+0x48>
80000088:	00000793          	li	a5,0
8000008c:	0200006f          	j	800000ac <is_prime+0x64>
80000090:	fec42783          	lw	a5,-20(s0)
80000094:	00178793          	add	a5,a5,1
80000098:	fef42623          	sw	a5,-20(s0)
8000009c:	fec42703          	lw	a4,-20(s0)
800000a0:	fdc42783          	lw	a5,-36(s0)
800000a4:	fcf74ae3          	blt	a4,a5,80000078 <is_prime+0x30>
800000a8:	00100793          	li	a5,1
800000ac:	00078513          	mv	a0,a5
800000b0:	02c12403          	lw	s0,44(sp)
800000b4:	03010113          	add	sp,sp,48
800000b8:	00008067          	ret

800000bc <goldbach>:
800000bc:	fd010113          	add	sp,sp,-48
800000c0:	02112623          	sw	ra,44(sp)
800000c4:	02812423          	sw	s0,40(sp)
800000c8:	03010413          	add	s0,sp,48
800000cc:	fca42e23          	sw	a0,-36(s0)
800000d0:	00200793          	li	a5,2
800000d4:	fef42623          	sw	a5,-20(s0)
800000d8:	0440006f          	j	8000011c <goldbach+0x60>
800000dc:	fec42503          	lw	a0,-20(s0)
800000e0:	f69ff0ef          	jal	80000048 <is_prime>
800000e4:	00050793          	mv	a5,a0
800000e8:	02078463          	beqz	a5,80000110 <goldbach+0x54>
800000ec:	fdc42703          	lw	a4,-36(s0)
800000f0:	fec42783          	lw	a5,-20(s0)
800000f4:	40f707b3          	sub	a5,a4,a5
800000f8:	00078513          	mv	a0,a5
800000fc:	f4dff0ef          	jal	80000048 <is_prime>
80000100:	00050793          	mv	a5,a0
80000104:	00078663          	beqz	a5,80000110 <goldbach+0x54>
80000108:	00100793          	li	a5,1
8000010c:	0200006f          	j	8000012c <goldbach+0x70>
80000110:	fec42783          	lw	a5,-20(s0)
80000114:	00178793          	add	a5,a5,1
80000118:	fef42623          	sw	a5,-20(s0)
8000011c:	fec42703          	lw	a4,-20(s0)
80000120:	fdc42783          	lw	a5,-36(s0)
80000124:	faf74ce3          	blt	a4,a5,800000dc <goldbach+0x20>
80000128:	00000793          	li	a5,0
8000012c:	00078513          	mv	a0,a5
80000130:	02c12083          	lw	ra,44(sp)
80000134:	02812403          	lw	s0,40(sp)
80000138:	03010113          	add	sp,sp,48
8000013c:	00008067          	ret

80000140 <main>:
80000140:	fe010113          	add	sp,sp,-32
80000144:	00112e23          	sw	ra,28(sp)
80000148:	00812c23          	sw	s0,24(sp)
8000014c:	02010413          	add	s0,sp,32
80000150:	00400793          	li	a5,4
80000154:	fef42623          	sw	a5,-20(s0)
80000158:	0300006f          	j	80000188 <main+0x48>
8000015c:	fec42503          	lw	a0,-20(s0)
80000160:	f5dff0ef          	jal	800000bc <goldbach>
80000164:	00050793          	mv	a5,a0
80000168:	fff78793          	add	a5,a5,-1
8000016c:	0017b793          	seqz	a5,a5
80000170:	0ff7f793          	zext.b	a5,a5
80000174:	00078513          	mv	a0,a5
80000178:	e99ff0ef          	jal	80000010 <check>
8000017c:	fec42783          	lw	a5,-20(s0)
80000180:	00278793          	add	a5,a5,2
80000184:	fef42623          	sw	a5,-20(s0)
80000188:	fec42703          	lw	a4,-20(s0)
8000018c:	01e00793          	li	a5,30
80000190:	fce7d6e3          	bge	a5,a4,8000015c <main+0x1c>
80000194:	00000793          	li	a5,0
80000198:	00078513          	mv	a0,a5
8000019c:	01c12083          	lw	ra,28(sp)
800001a0:	01812403          	lw	s0,24(sp)
800001a4:	02010113          	add	sp,sp,32
800001a8:	00008067          	ret

800001ac <putch>:
800001ac:	00008067          	ret

800001b0 <halt>:
800001b0:	00050513          	mv	a0,a0
800001b4:	00100073          	ebreak
800001b8:	0000006f          	j	800001b8 <halt+0x8>

800001bc <call_main>:
800001bc:	80000537          	lui	a0,0x80000
800001c0:	ff010113          	add	sp,sp,-16
800001c4:	1dc50513          	add	a0,a0,476 # 800001dc <_etext>
800001c8:	00112623          	sw	ra,12(sp)
800001cc:	f75ff0ef          	jal	80000140 <main>
800001d0:	00050513          	mv	a0,a0
800001d4:	00100073          	ebreak
800001d8:	0000006f          	j	800001d8 <call_main+0x1c>
