
/home/xhyvm2/gitwork/labs/COMPSYS/software/functest/build/leap-year-riscv32.elf:     file format elf32-littleriscv


Disassembly of section .text:

80000000 <_start>:
80000000:	00000413          	li	s0,0
80000004:	00009117          	auipc	sp,0x9
80000008:	ffc10113          	add	sp,sp,-4 # 80009000 <_end>
8000000c:	12c000ef          	jal	80000138 <call_main>

80000010 <check>:
80000010:	fe010113          	add	sp,sp,-32
80000014:	00112e23          	sw	ra,28(sp)
80000018:	00812c23          	sw	s0,24(sp)
8000001c:	02010413          	add	s0,sp,32
80000020:	fea42623          	sw	a0,-20(s0)
80000024:	fec42783          	lw	a5,-20(s0)
80000028:	00079663          	bnez	a5,80000034 <check+0x24>
8000002c:	00100513          	li	a0,1
80000030:	0fc000ef          	jal	8000012c <halt>
80000034:	00000013          	nop
80000038:	01c12083          	lw	ra,28(sp)
8000003c:	01812403          	lw	s0,24(sp)
80000040:	02010113          	add	sp,sp,32
80000044:	00008067          	ret

80000048 <is_leap_year>:
80000048:	fe010113          	add	sp,sp,-32
8000004c:	00812e23          	sw	s0,28(sp)
80000050:	02010413          	add	s0,sp,32
80000054:	fea42623          	sw	a0,-20(s0)
80000058:	fec42783          	lw	a5,-20(s0)
8000005c:	0037f793          	and	a5,a5,3
80000060:	00079a63          	bnez	a5,80000074 <is_leap_year+0x2c>
80000064:	fec42703          	lw	a4,-20(s0)
80000068:	06400793          	li	a5,100
8000006c:	02f767b3          	rem	a5,a4,a5
80000070:	00079a63          	bnez	a5,80000084 <is_leap_year+0x3c>
80000074:	fec42703          	lw	a4,-20(s0)
80000078:	19000793          	li	a5,400
8000007c:	02f767b3          	rem	a5,a4,a5
80000080:	00079663          	bnez	a5,8000008c <is_leap_year+0x44>
80000084:	00100793          	li	a5,1
80000088:	0080006f          	j	80000090 <is_leap_year+0x48>
8000008c:	00000793          	li	a5,0
80000090:	00078513          	mv	a0,a5
80000094:	01c12403          	lw	s0,28(sp)
80000098:	02010113          	add	sp,sp,32
8000009c:	00008067          	ret

800000a0 <main>:
800000a0:	fe010113          	add	sp,sp,-32
800000a4:	00112e23          	sw	ra,28(sp)
800000a8:	00812c23          	sw	s0,24(sp)
800000ac:	02010413          	add	s0,sp,32
800000b0:	fe042623          	sw	zero,-20(s0)
800000b4:	0500006f          	j	80000104 <main+0x64>
800000b8:	fec42783          	lw	a5,-20(s0)
800000bc:	76278793          	add	a5,a5,1890
800000c0:	00078513          	mv	a0,a5
800000c4:	f85ff0ef          	jal	80000048 <is_leap_year>
800000c8:	00050693          	mv	a3,a0
800000cc:	800007b7          	lui	a5,0x80000
800000d0:	15c78713          	add	a4,a5,348 # 8000015c <ans>
800000d4:	fec42783          	lw	a5,-20(s0)
800000d8:	00279793          	sll	a5,a5,0x2
800000dc:	00f707b3          	add	a5,a4,a5
800000e0:	0007a783          	lw	a5,0(a5)
800000e4:	40f687b3          	sub	a5,a3,a5
800000e8:	0017b793          	seqz	a5,a5
800000ec:	0ff7f793          	zext.b	a5,a5
800000f0:	00078513          	mv	a0,a5
800000f4:	f1dff0ef          	jal	80000010 <check>
800000f8:	fec42783          	lw	a5,-20(s0)
800000fc:	00178793          	add	a5,a5,1
80000100:	fef42623          	sw	a5,-20(s0)
80000104:	fec42703          	lw	a4,-20(s0)
80000108:	07c00793          	li	a5,124
8000010c:	fae7d6e3          	bge	a5,a4,800000b8 <main+0x18>
80000110:	00000793          	li	a5,0
80000114:	00078513          	mv	a0,a5
80000118:	01c12083          	lw	ra,28(sp)
8000011c:	01812403          	lw	s0,24(sp)
80000120:	02010113          	add	sp,sp,32
80000124:	00008067          	ret

80000128 <putch>:
80000128:	00008067          	ret

8000012c <halt>:
8000012c:	00050513          	mv	a0,a0
80000130:	00100073          	ebreak
80000134:	0000006f          	j	80000134 <halt+0x8>

80000138 <call_main>:
80000138:	80000537          	lui	a0,0x80000
8000013c:	ff010113          	add	sp,sp,-16
80000140:	15850513          	add	a0,a0,344 # 80000158 <_etext>
80000144:	00112623          	sw	ra,12(sp)
80000148:	f59ff0ef          	jal	800000a0 <main>
8000014c:	00050513          	mv	a0,a0
80000150:	00100073          	ebreak
80000154:	0000006f          	j	80000154 <call_main+0x1c>
