
/home/xhyvm2/gitwork/labs/COMPSYS/software/functest/build/min3-riscv32.elf:     file format elf32-littleriscv


Disassembly of section .text:

80000000 <_start>:
80000000:	00000413          	li	s0,0
80000004:	00009117          	auipc	sp,0x9
80000008:	ffc10113          	add	sp,sp,-4 # 80009000 <_end>
8000000c:	20c000ef          	jal	80000218 <call_main>

80000010 <check>:
80000010:	fe010113          	add	sp,sp,-32
80000014:	00112e23          	sw	ra,28(sp)
80000018:	00812c23          	sw	s0,24(sp)
8000001c:	02010413          	add	s0,sp,32
80000020:	fea42623          	sw	a0,-20(s0)
80000024:	fec42783          	lw	a5,-20(s0)
80000028:	00079663          	bnez	a5,80000034 <check+0x24>
8000002c:	00100513          	li	a0,1
80000030:	1dc000ef          	jal	8000020c <halt>
80000034:	00000013          	nop
80000038:	01c12083          	lw	ra,28(sp)
8000003c:	01812403          	lw	s0,24(sp)
80000040:	02010113          	add	sp,sp,32
80000044:	00008067          	ret

80000048 <min3>:
80000048:	fd010113          	add	sp,sp,-48
8000004c:	02812623          	sw	s0,44(sp)
80000050:	03010413          	add	s0,sp,48
80000054:	fca42e23          	sw	a0,-36(s0)
80000058:	fcb42c23          	sw	a1,-40(s0)
8000005c:	fcc42a23          	sw	a2,-44(s0)
80000060:	fdc42703          	lw	a4,-36(s0)
80000064:	fd842783          	lw	a5,-40(s0)
80000068:	00f75863          	bge	a4,a5,80000078 <min3+0x30>
8000006c:	fdc42783          	lw	a5,-36(s0)
80000070:	fef42623          	sw	a5,-20(s0)
80000074:	00c0006f          	j	80000080 <min3+0x38>
80000078:	fd842783          	lw	a5,-40(s0)
8000007c:	fef42623          	sw	a5,-20(s0)
80000080:	fd442703          	lw	a4,-44(s0)
80000084:	fec42783          	lw	a5,-20(s0)
80000088:	00f75663          	bge	a4,a5,80000094 <min3+0x4c>
8000008c:	fd442783          	lw	a5,-44(s0)
80000090:	fef42623          	sw	a5,-20(s0)
80000094:	fec42783          	lw	a5,-20(s0)
80000098:	00078513          	mv	a0,a5
8000009c:	02c12403          	lw	s0,44(sp)
800000a0:	03010113          	add	sp,sp,48
800000a4:	00008067          	ret

800000a8 <main>:
800000a8:	fe010113          	add	sp,sp,-32
800000ac:	00112e23          	sw	ra,28(sp)
800000b0:	00812c23          	sw	s0,24(sp)
800000b4:	02010413          	add	s0,sp,32
800000b8:	fe042023          	sw	zero,-32(s0)
800000bc:	fe042623          	sw	zero,-20(s0)
800000c0:	10c0006f          	j	800001cc <main+0x124>
800000c4:	fe042423          	sw	zero,-24(s0)
800000c8:	0d40006f          	j	8000019c <main+0xf4>
800000cc:	fe042223          	sw	zero,-28(s0)
800000d0:	09c0006f          	j	8000016c <main+0xc4>
800000d4:	800007b7          	lui	a5,0x80000
800000d8:	23c78713          	add	a4,a5,572 # 8000023c <test_data>
800000dc:	fec42783          	lw	a5,-20(s0)
800000e0:	00279793          	sll	a5,a5,0x2
800000e4:	00f707b3          	add	a5,a4,a5
800000e8:	0007a683          	lw	a3,0(a5)
800000ec:	800007b7          	lui	a5,0x80000
800000f0:	23c78713          	add	a4,a5,572 # 8000023c <test_data>
800000f4:	fe842783          	lw	a5,-24(s0)
800000f8:	00279793          	sll	a5,a5,0x2
800000fc:	00f707b3          	add	a5,a4,a5
80000100:	0007a583          	lw	a1,0(a5)
80000104:	800007b7          	lui	a5,0x80000
80000108:	23c78713          	add	a4,a5,572 # 8000023c <test_data>
8000010c:	fe442783          	lw	a5,-28(s0)
80000110:	00279793          	sll	a5,a5,0x2
80000114:	00f707b3          	add	a5,a4,a5
80000118:	0007a783          	lw	a5,0(a5)
8000011c:	00078613          	mv	a2,a5
80000120:	00068513          	mv	a0,a3
80000124:	f25ff0ef          	jal	80000048 <min3>
80000128:	00050693          	mv	a3,a0
8000012c:	fe042783          	lw	a5,-32(s0)
80000130:	00178713          	add	a4,a5,1
80000134:	fee42023          	sw	a4,-32(s0)
80000138:	80000737          	lui	a4,0x80000
8000013c:	24c70713          	add	a4,a4,588 # 8000024c <ans>
80000140:	00279793          	sll	a5,a5,0x2
80000144:	00f707b3          	add	a5,a4,a5
80000148:	0007a783          	lw	a5,0(a5)
8000014c:	40f687b3          	sub	a5,a3,a5
80000150:	0017b793          	seqz	a5,a5
80000154:	0ff7f793          	zext.b	a5,a5
80000158:	00078513          	mv	a0,a5
8000015c:	eb5ff0ef          	jal	80000010 <check>
80000160:	fe442783          	lw	a5,-28(s0)
80000164:	00178793          	add	a5,a5,1
80000168:	fef42223          	sw	a5,-28(s0)
8000016c:	fe442703          	lw	a4,-28(s0)
80000170:	00300793          	li	a5,3
80000174:	f6e7f0e3          	bgeu	a5,a4,800000d4 <main+0x2c>
80000178:	fe442783          	lw	a5,-28(s0)
8000017c:	ffc78793          	add	a5,a5,-4
80000180:	0017b793          	seqz	a5,a5
80000184:	0ff7f793          	zext.b	a5,a5
80000188:	00078513          	mv	a0,a5
8000018c:	e85ff0ef          	jal	80000010 <check>
80000190:	fe842783          	lw	a5,-24(s0)
80000194:	00178793          	add	a5,a5,1
80000198:	fef42423          	sw	a5,-24(s0)
8000019c:	fe842703          	lw	a4,-24(s0)
800001a0:	00300793          	li	a5,3
800001a4:	f2e7f4e3          	bgeu	a5,a4,800000cc <main+0x24>
800001a8:	fe842783          	lw	a5,-24(s0)
800001ac:	ffc78793          	add	a5,a5,-4
800001b0:	0017b793          	seqz	a5,a5
800001b4:	0ff7f793          	zext.b	a5,a5
800001b8:	00078513          	mv	a0,a5
800001bc:	e55ff0ef          	jal	80000010 <check>
800001c0:	fec42783          	lw	a5,-20(s0)
800001c4:	00178793          	add	a5,a5,1
800001c8:	fef42623          	sw	a5,-20(s0)
800001cc:	fec42703          	lw	a4,-20(s0)
800001d0:	00300793          	li	a5,3
800001d4:	eee7f8e3          	bgeu	a5,a4,800000c4 <main+0x1c>
800001d8:	fec42783          	lw	a5,-20(s0)
800001dc:	ffc78793          	add	a5,a5,-4
800001e0:	0017b793          	seqz	a5,a5
800001e4:	0ff7f793          	zext.b	a5,a5
800001e8:	00078513          	mv	a0,a5
800001ec:	e25ff0ef          	jal	80000010 <check>
800001f0:	00000793          	li	a5,0
800001f4:	00078513          	mv	a0,a5
800001f8:	01c12083          	lw	ra,28(sp)
800001fc:	01812403          	lw	s0,24(sp)
80000200:	02010113          	add	sp,sp,32
80000204:	00008067          	ret

80000208 <putch>:
80000208:	00008067          	ret

8000020c <halt>:
8000020c:	00050513          	mv	a0,a0
80000210:	00100073          	ebreak
80000214:	0000006f          	j	80000214 <halt+0x8>

80000218 <call_main>:
80000218:	80000537          	lui	a0,0x80000
8000021c:	ff010113          	add	sp,sp,-16
80000220:	23850513          	add	a0,a0,568 # 80000238 <_etext>
80000224:	00112623          	sw	ra,12(sp)
80000228:	e81ff0ef          	jal	800000a8 <main>
8000022c:	00050513          	mv	a0,a0
80000230:	00100073          	ebreak
80000234:	0000006f          	j	80000234 <call_main+0x1c>
