
/home/fcmwf/CECS-Lab/software/functest/build/mul-longlong-riscv32.elf:     file format elf32-littleriscv


Disassembly of section .text:

80000000 <_start>:
80000000:	00000413          	li	s0,0
80000004:	00009117          	auipc	sp,0x9
80000008:	ffc10113          	add	sp,sp,-4 # 80009000 <_end>
8000000c:	250000ef          	jal	8000025c <call_main>

80000010 <check>:
80000010:	fe010113          	add	sp,sp,-32
80000014:	00112e23          	sw	ra,28(sp)
80000018:	00812c23          	sw	s0,24(sp)
8000001c:	02010413          	add	s0,sp,32
80000020:	fea42623          	sw	a0,-20(s0)
80000024:	fec42783          	lw	a5,-20(s0)
80000028:	00079663          	bnez	a5,80000034 <check+0x24>
8000002c:	00100513          	li	a0,1
80000030:	220000ef          	jal	80000250 <halt>
80000034:	00000013          	nop
80000038:	01c12083          	lw	ra,28(sp)
8000003c:	01812403          	lw	s0,24(sp)
80000040:	02010113          	add	sp,sp,32
80000044:	00008067          	ret

80000048 <mul>:
80000048:	fd010113          	add	sp,sp,-48
8000004c:	02812623          	sw	s0,44(sp)
80000050:	03010413          	add	s0,sp,48
80000054:	fca42c23          	sw	a0,-40(s0)
80000058:	fcb42e23          	sw	a1,-36(s0)
8000005c:	fcc42823          	sw	a2,-48(s0)
80000060:	fcd42a23          	sw	a3,-44(s0)
80000064:	fdc42603          	lw	a2,-36(s0)
80000068:	fd042683          	lw	a3,-48(s0)
8000006c:	02d60633          	mul	a2,a2,a3
80000070:	fd442583          	lw	a1,-44(s0)
80000074:	fd842683          	lw	a3,-40(s0)
80000078:	02d586b3          	mul	a3,a1,a3
8000007c:	00d605b3          	add	a1,a2,a3
80000080:	fd842603          	lw	a2,-40(s0)
80000084:	fd042683          	lw	a3,-48(s0)
80000088:	02d60533          	mul	a0,a2,a3
8000008c:	02d637b3          	mulhu	a5,a2,a3
80000090:	00050713          	mv	a4,a0
80000094:	00f586b3          	add	a3,a1,a5
80000098:	00068793          	mv	a5,a3
8000009c:	fee42423          	sw	a4,-24(s0)
800000a0:	fef42623          	sw	a5,-20(s0)
800000a4:	fee42423          	sw	a4,-24(s0)
800000a8:	fef42623          	sw	a5,-20(s0)
800000ac:	fe842703          	lw	a4,-24(s0)
800000b0:	fec42783          	lw	a5,-20(s0)
800000b4:	00070513          	mv	a0,a4
800000b8:	00078593          	mv	a1,a5
800000bc:	02c12403          	lw	s0,44(sp)
800000c0:	03010113          	add	sp,sp,48
800000c4:	00008067          	ret

800000c8 <main>:
800000c8:	fc010113          	add	sp,sp,-64
800000cc:	02112e23          	sw	ra,60(sp)
800000d0:	02812c23          	sw	s0,56(sp)
800000d4:	03212a23          	sw	s2,52(sp)
800000d8:	03312823          	sw	s3,48(sp)
800000dc:	03412623          	sw	s4,44(sp)
800000e0:	03512423          	sw	s5,40(sp)
800000e4:	03612223          	sw	s6,36(sp)
800000e8:	03712023          	sw	s7,32(sp)
800000ec:	01812e23          	sw	s8,28(sp)
800000f0:	01912c23          	sw	s9,24(sp)
800000f4:	04010413          	add	s0,sp,64
800000f8:	fc042223          	sw	zero,-60(s0)
800000fc:	fc042623          	sw	zero,-52(s0)
80000100:	0f00006f          	j	800001f0 <main+0x128>
80000104:	fcc42783          	lw	a5,-52(s0)
80000108:	fcf42423          	sw	a5,-56(s0)
8000010c:	0b40006f          	j	800001c0 <main+0xf8>
80000110:	fc442783          	lw	a5,-60(s0)
80000114:	00178713          	add	a4,a5,1
80000118:	fce42223          	sw	a4,-60(s0)
8000011c:	80000737          	lui	a4,0x80000
80000120:	29070713          	add	a4,a4,656 # 80000290 <ans>
80000124:	00379793          	sll	a5,a5,0x3
80000128:	00f707b3          	add	a5,a4,a5
8000012c:	0007aa03          	lw	s4,0(a5)
80000130:	0047aa83          	lw	s5,4(a5)
80000134:	800007b7          	lui	a5,0x80000
80000138:	28078713          	add	a4,a5,640 # 80000280 <test_data>
8000013c:	fcc42783          	lw	a5,-52(s0)
80000140:	00279793          	sll	a5,a5,0x2
80000144:	00f707b3          	add	a5,a4,a5
80000148:	0007a783          	lw	a5,0(a5)
8000014c:	00078b13          	mv	s6,a5
80000150:	41f7d793          	sra	a5,a5,0x1f
80000154:	00078b93          	mv	s7,a5
80000158:	800007b7          	lui	a5,0x80000
8000015c:	28078713          	add	a4,a5,640 # 80000280 <test_data>
80000160:	fc842783          	lw	a5,-56(s0)
80000164:	00279793          	sll	a5,a5,0x2
80000168:	00f707b3          	add	a5,a4,a5
8000016c:	0007a783          	lw	a5,0(a5)
80000170:	00078c13          	mv	s8,a5
80000174:	41f7d793          	sra	a5,a5,0x1f
80000178:	00078c93          	mv	s9,a5
8000017c:	000c0613          	mv	a2,s8
80000180:	000c8693          	mv	a3,s9
80000184:	000b0513          	mv	a0,s6
80000188:	000b8593          	mv	a1,s7
8000018c:	ebdff0ef          	jal	80000048 <mul>
80000190:	00050713          	mv	a4,a0
80000194:	00058793          	mv	a5,a1
80000198:	00ea4933          	xor	s2,s4,a4
8000019c:	00fac9b3          	xor	s3,s5,a5
800001a0:	013967b3          	or	a5,s2,s3
800001a4:	0017b793          	seqz	a5,a5
800001a8:	0ff7f793          	zext.b	a5,a5
800001ac:	00078513          	mv	a0,a5
800001b0:	e61ff0ef          	jal	80000010 <check>
800001b4:	fc842783          	lw	a5,-56(s0)
800001b8:	00178793          	add	a5,a5,1
800001bc:	fcf42423          	sw	a5,-56(s0)
800001c0:	fc842703          	lw	a4,-56(s0)
800001c4:	00300793          	li	a5,3
800001c8:	f4e7f4e3          	bgeu	a5,a4,80000110 <main+0x48>
800001cc:	fc842783          	lw	a5,-56(s0)
800001d0:	ffc78793          	add	a5,a5,-4
800001d4:	0017b793          	seqz	a5,a5
800001d8:	0ff7f793          	zext.b	a5,a5
800001dc:	00078513          	mv	a0,a5
800001e0:	e31ff0ef          	jal	80000010 <check>
800001e4:	fcc42783          	lw	a5,-52(s0)
800001e8:	00178793          	add	a5,a5,1
800001ec:	fcf42623          	sw	a5,-52(s0)
800001f0:	fcc42703          	lw	a4,-52(s0)
800001f4:	00300793          	li	a5,3
800001f8:	f0e7f6e3          	bgeu	a5,a4,80000104 <main+0x3c>
800001fc:	fcc42783          	lw	a5,-52(s0)
80000200:	ffc78793          	add	a5,a5,-4
80000204:	0017b793          	seqz	a5,a5
80000208:	0ff7f793          	zext.b	a5,a5
8000020c:	00078513          	mv	a0,a5
80000210:	e01ff0ef          	jal	80000010 <check>
80000214:	00000793          	li	a5,0
80000218:	00078513          	mv	a0,a5
8000021c:	03c12083          	lw	ra,60(sp)
80000220:	03812403          	lw	s0,56(sp)
80000224:	03412903          	lw	s2,52(sp)
80000228:	03012983          	lw	s3,48(sp)
8000022c:	02c12a03          	lw	s4,44(sp)
80000230:	02812a83          	lw	s5,40(sp)
80000234:	02412b03          	lw	s6,36(sp)
80000238:	02012b83          	lw	s7,32(sp)
8000023c:	01c12c03          	lw	s8,28(sp)
80000240:	01812c83          	lw	s9,24(sp)
80000244:	04010113          	add	sp,sp,64
80000248:	00008067          	ret

8000024c <putch>:
8000024c:	00008067          	ret

80000250 <halt>:
80000250:	00050513          	mv	a0,a0
80000254:	00100073          	ebreak
80000258:	0000006f          	j	80000258 <halt+0x8>

8000025c <call_main>:
8000025c:	80000537          	lui	a0,0x80000
80000260:	ff010113          	add	sp,sp,-16
80000264:	27c50513          	add	a0,a0,636 # 8000027c <_etext>
80000268:	00112623          	sw	ra,12(sp)
8000026c:	e5dff0ef          	jal	800000c8 <main>
80000270:	00050513          	mv	a0,a0
80000274:	00100073          	ebreak
80000278:	0000006f          	j	80000278 <call_main+0x1c>
