
/home/xhyvm2/gitwork/labs/COMPSYS/software/functest/build/pascal-riscv32.elf:     file format elf32-littleriscv


Disassembly of section .text:

80000000 <_start>:
80000000:	00000413          	li	s0,0
80000004:	00009117          	auipc	sp,0x9
80000008:	ffc10113          	add	sp,sp,-4 # 80009000 <_end>
8000000c:	1cc000ef          	jal	800001d8 <call_main>

80000010 <check>:
80000010:	fe010113          	add	sp,sp,-32
80000014:	00112e23          	sw	ra,28(sp)
80000018:	00812c23          	sw	s0,24(sp)
8000001c:	02010413          	add	s0,sp,32
80000020:	fea42623          	sw	a0,-20(s0)
80000024:	fec42783          	lw	a5,-20(s0)
80000028:	00079663          	bnez	a5,80000034 <check+0x24>
8000002c:	00100513          	li	a0,1
80000030:	19c000ef          	jal	800001cc <halt>
80000034:	00000013          	nop
80000038:	01c12083          	lw	ra,28(sp)
8000003c:	01812403          	lw	s0,24(sp)
80000040:	02010113          	add	sp,sp,32
80000044:	00008067          	ret

80000048 <main>:
80000048:	fe010113          	add	sp,sp,-32
8000004c:	00112e23          	sw	ra,28(sp)
80000050:	00812c23          	sw	s0,24(sp)
80000054:	02010413          	add	s0,sp,32
80000058:	800007b7          	lui	a5,0x80000
8000005c:	27878793          	add	a5,a5,632 # 80000278 <a>
80000060:	00100713          	li	a4,1
80000064:	00e7a223          	sw	a4,4(a5)
80000068:	800007b7          	lui	a5,0x80000
8000006c:	27878793          	add	a5,a5,632 # 80000278 <a>
80000070:	0047a703          	lw	a4,4(a5)
80000074:	800007b7          	lui	a5,0x80000
80000078:	27878793          	add	a5,a5,632 # 80000278 <a>
8000007c:	00e7a023          	sw	a4,0(a5)
80000080:	00200793          	li	a5,2
80000084:	fef42623          	sw	a5,-20(s0)
80000088:	0a00006f          	j	80000128 <main+0xe0>
8000008c:	00100793          	li	a5,1
80000090:	fef42223          	sw	a5,-28(s0)
80000094:	00100793          	li	a5,1
80000098:	fef42423          	sw	a5,-24(s0)
8000009c:	0580006f          	j	800000f4 <main+0xac>
800000a0:	800007b7          	lui	a5,0x80000
800000a4:	27878713          	add	a4,a5,632 # 80000278 <a>
800000a8:	fe842783          	lw	a5,-24(s0)
800000ac:	00279793          	sll	a5,a5,0x2
800000b0:	00f707b3          	add	a5,a4,a5
800000b4:	0007a783          	lw	a5,0(a5)
800000b8:	fef42023          	sw	a5,-32(s0)
800000bc:	fe442703          	lw	a4,-28(s0)
800000c0:	fe042783          	lw	a5,-32(s0)
800000c4:	00f70733          	add	a4,a4,a5
800000c8:	800007b7          	lui	a5,0x80000
800000cc:	27878693          	add	a3,a5,632 # 80000278 <a>
800000d0:	fe842783          	lw	a5,-24(s0)
800000d4:	00279793          	sll	a5,a5,0x2
800000d8:	00f687b3          	add	a5,a3,a5
800000dc:	00e7a023          	sw	a4,0(a5)
800000e0:	fe042783          	lw	a5,-32(s0)
800000e4:	fef42223          	sw	a5,-28(s0)
800000e8:	fe842783          	lw	a5,-24(s0)
800000ec:	00178793          	add	a5,a5,1
800000f0:	fef42423          	sw	a5,-24(s0)
800000f4:	fe842703          	lw	a4,-24(s0)
800000f8:	fec42783          	lw	a5,-20(s0)
800000fc:	faf742e3          	blt	a4,a5,800000a0 <main+0x58>
80000100:	800007b7          	lui	a5,0x80000
80000104:	27878713          	add	a4,a5,632 # 80000278 <a>
80000108:	fec42783          	lw	a5,-20(s0)
8000010c:	00279793          	sll	a5,a5,0x2
80000110:	00f707b3          	add	a5,a4,a5
80000114:	00100713          	li	a4,1
80000118:	00e7a023          	sw	a4,0(a5)
8000011c:	fec42783          	lw	a5,-20(s0)
80000120:	00178793          	add	a5,a5,1
80000124:	fef42623          	sw	a5,-20(s0)
80000128:	fec42703          	lw	a4,-20(s0)
8000012c:	01e00793          	li	a5,30
80000130:	f4e7dee3          	bge	a5,a4,8000008c <main+0x44>
80000134:	fe042423          	sw	zero,-24(s0)
80000138:	0540006f          	j	8000018c <main+0x144>
8000013c:	800007b7          	lui	a5,0x80000
80000140:	27878713          	add	a4,a5,632 # 80000278 <a>
80000144:	fe842783          	lw	a5,-24(s0)
80000148:	00279793          	sll	a5,a5,0x2
8000014c:	00f707b3          	add	a5,a4,a5
80000150:	0007a703          	lw	a4,0(a5)
80000154:	800007b7          	lui	a5,0x80000
80000158:	1fc78693          	add	a3,a5,508 # 800001fc <ans>
8000015c:	fe842783          	lw	a5,-24(s0)
80000160:	00279793          	sll	a5,a5,0x2
80000164:	00f687b3          	add	a5,a3,a5
80000168:	0007a783          	lw	a5,0(a5)
8000016c:	40f707b3          	sub	a5,a4,a5
80000170:	0017b793          	seqz	a5,a5
80000174:	0ff7f793          	zext.b	a5,a5
80000178:	00078513          	mv	a0,a5
8000017c:	e95ff0ef          	jal	80000010 <check>
80000180:	fe842783          	lw	a5,-24(s0)
80000184:	00178793          	add	a5,a5,1
80000188:	fef42423          	sw	a5,-24(s0)
8000018c:	fe842703          	lw	a4,-24(s0)
80000190:	01e00793          	li	a5,30
80000194:	fae7d4e3          	bge	a5,a4,8000013c <main+0xf4>
80000198:	fe842783          	lw	a5,-24(s0)
8000019c:	fe178793          	add	a5,a5,-31
800001a0:	0017b793          	seqz	a5,a5
800001a4:	0ff7f793          	zext.b	a5,a5
800001a8:	00078513          	mv	a0,a5
800001ac:	e65ff0ef          	jal	80000010 <check>
800001b0:	00000793          	li	a5,0
800001b4:	00078513          	mv	a0,a5
800001b8:	01c12083          	lw	ra,28(sp)
800001bc:	01812403          	lw	s0,24(sp)
800001c0:	02010113          	add	sp,sp,32
800001c4:	00008067          	ret

800001c8 <putch>:
800001c8:	00008067          	ret

800001cc <halt>:
800001cc:	00050513          	mv	a0,a0
800001d0:	00100073          	ebreak
800001d4:	0000006f          	j	800001d4 <halt+0x8>

800001d8 <call_main>:
800001d8:	80000537          	lui	a0,0x80000
800001dc:	ff010113          	add	sp,sp,-16
800001e0:	1f850513          	add	a0,a0,504 # 800001f8 <_etext>
800001e4:	00112623          	sw	ra,12(sp)
800001e8:	e61ff0ef          	jal	80000048 <main>
800001ec:	00050513          	mv	a0,a0
800001f0:	00100073          	ebreak
800001f4:	0000006f          	j	800001f4 <call_main+0x1c>
