
/home/fcmwf/CECS-lab/software/functest/build/prime-riscv32.elf:     file format elf32-littleriscv


Disassembly of section .text:

80000000 <_start>:
80000000:	00000413          	li	s0,0
80000004:	00009117          	auipc	sp,0x9
80000008:	ffc10113          	add	sp,sp,-4 # 80009000 <_end>
8000000c:	13c000ef          	jal	80000148 <call_main>

80000010 <check>:
80000010:	fe010113          	add	sp,sp,-32
80000014:	00112e23          	sw	ra,28(sp)
80000018:	00812c23          	sw	s0,24(sp)
8000001c:	02010413          	add	s0,sp,32
80000020:	fea42623          	sw	a0,-20(s0)
80000024:	fec42783          	lw	a5,-20(s0)
80000028:	00079663          	bnez	a5,80000034 <check+0x24>
8000002c:	00100513          	li	a0,1
80000030:	10c000ef          	jal	8000013c <halt>
80000034:	00000013          	nop
80000038:	01c12083          	lw	ra,28(sp)
8000003c:	01812403          	lw	s0,24(sp)
80000040:	02010113          	add	sp,sp,32
80000044:	00008067          	ret

80000048 <main>:
80000048:	fe010113          	add	sp,sp,-32
8000004c:	00112e23          	sw	ra,28(sp)
80000050:	00812c23          	sw	s0,24(sp)
80000054:	02010413          	add	s0,sp,32
80000058:	fe042223          	sw	zero,-28(s0)
8000005c:	06500793          	li	a5,101
80000060:	fef42623          	sw	a5,-20(s0)
80000064:	0980006f          	j	800000fc <main+0xb4>
80000068:	00100793          	li	a5,1
8000006c:	fef42023          	sw	a5,-32(s0)
80000070:	00200793          	li	a5,2
80000074:	fef42423          	sw	a5,-24(s0)
80000078:	0280006f          	j	800000a0 <main+0x58>
8000007c:	fec42703          	lw	a4,-20(s0)
80000080:	fe842783          	lw	a5,-24(s0)
80000084:	02f767b3          	rem	a5,a4,a5
80000088:	00079663          	bnez	a5,80000094 <main+0x4c>
8000008c:	fe042023          	sw	zero,-32(s0)
80000090:	01c0006f          	j	800000ac <main+0x64>
80000094:	fe842783          	lw	a5,-24(s0)
80000098:	00178793          	add	a5,a5,1
8000009c:	fef42423          	sw	a5,-24(s0)
800000a0:	fe842703          	lw	a4,-24(s0)
800000a4:	fec42783          	lw	a5,-20(s0)
800000a8:	fcf74ae3          	blt	a4,a5,8000007c <main+0x34>
800000ac:	fe042783          	lw	a5,-32(s0)
800000b0:	04078063          	beqz	a5,800000f0 <main+0xa8>
800000b4:	800007b7          	lui	a5,0x80000
800000b8:	16c78713          	add	a4,a5,364 # 8000016c <ans>
800000bc:	fe442783          	lw	a5,-28(s0)
800000c0:	00279793          	sll	a5,a5,0x2
800000c4:	00f707b3          	add	a5,a4,a5
800000c8:	0007a783          	lw	a5,0(a5)
800000cc:	fe842703          	lw	a4,-24(s0)
800000d0:	40f707b3          	sub	a5,a4,a5
800000d4:	0017b793          	seqz	a5,a5
800000d8:	0ff7f793          	zext.b	a5,a5
800000dc:	00078513          	mv	a0,a5
800000e0:	f31ff0ef          	jal	80000010 <check>
800000e4:	fe442783          	lw	a5,-28(s0)
800000e8:	00178793          	add	a5,a5,1
800000ec:	fef42223          	sw	a5,-28(s0)
800000f0:	fec42783          	lw	a5,-20(s0)
800000f4:	00278793          	add	a5,a5,2
800000f8:	fef42623          	sw	a5,-20(s0)
800000fc:	fec42703          	lw	a4,-20(s0)
80000100:	09600793          	li	a5,150
80000104:	f6e7d2e3          	bge	a5,a4,80000068 <main+0x20>
80000108:	fe442783          	lw	a5,-28(s0)
8000010c:	ff678793          	add	a5,a5,-10
80000110:	0017b793          	seqz	a5,a5
80000114:	0ff7f793          	zext.b	a5,a5
80000118:	00078513          	mv	a0,a5
8000011c:	ef5ff0ef          	jal	80000010 <check>
80000120:	00000793          	li	a5,0
80000124:	00078513          	mv	a0,a5
80000128:	01c12083          	lw	ra,28(sp)
8000012c:	01812403          	lw	s0,24(sp)
80000130:	02010113          	add	sp,sp,32
80000134:	00008067          	ret

80000138 <putch>:
80000138:	00008067          	ret

8000013c <halt>:
8000013c:	00050513          	mv	a0,a0
80000140:	00100073          	ebreak
80000144:	0000006f          	j	80000144 <halt+0x8>

80000148 <call_main>:
80000148:	80000537          	lui	a0,0x80000
8000014c:	ff010113          	add	sp,sp,-16
80000150:	16850513          	add	a0,a0,360 # 80000168 <_etext>
80000154:	00112623          	sw	ra,12(sp)
80000158:	ef1ff0ef          	jal	80000048 <main>
8000015c:	00050513          	mv	a0,a0
80000160:	00100073          	ebreak
80000164:	0000006f          	j	80000164 <call_main+0x1c>
