
/home/xhyvm2/gitwork/labs/COMPSYS/software/functest/build/shuixianhua-riscv32.elf:     file format elf32-littleriscv


Disassembly of section .text:

80000000 <_start>:
80000000:	00000413          	li	s0,0
80000004:	00009117          	auipc	sp,0x9
80000008:	ffc10113          	add	sp,sp,-4 # 80009000 <_end>
8000000c:	194000ef          	jal	800001a0 <call_main>

80000010 <check>:
80000010:	fe010113          	add	sp,sp,-32
80000014:	00112e23          	sw	ra,28(sp)
80000018:	00812c23          	sw	s0,24(sp)
8000001c:	02010413          	add	s0,sp,32
80000020:	fea42623          	sw	a0,-20(s0)
80000024:	fec42783          	lw	a5,-20(s0)
80000028:	00079663          	bnez	a5,80000034 <check+0x24>
8000002c:	00100513          	li	a0,1
80000030:	164000ef          	jal	80000194 <halt>
80000034:	00000013          	nop
80000038:	01c12083          	lw	ra,28(sp)
8000003c:	01812403          	lw	s0,24(sp)
80000040:	02010113          	add	sp,sp,32
80000044:	00008067          	ret

80000048 <cube>:
80000048:	fe010113          	add	sp,sp,-32
8000004c:	00812e23          	sw	s0,28(sp)
80000050:	02010413          	add	s0,sp,32
80000054:	fea42623          	sw	a0,-20(s0)
80000058:	fec42783          	lw	a5,-20(s0)
8000005c:	02f78733          	mul	a4,a5,a5
80000060:	fec42783          	lw	a5,-20(s0)
80000064:	02f707b3          	mul	a5,a4,a5
80000068:	00078513          	mv	a0,a5
8000006c:	01c12403          	lw	s0,28(sp)
80000070:	02010113          	add	sp,sp,32
80000074:	00008067          	ret

80000078 <main>:
80000078:	fd010113          	add	sp,sp,-48
8000007c:	02112623          	sw	ra,44(sp)
80000080:	02812423          	sw	s0,40(sp)
80000084:	02912223          	sw	s1,36(sp)
80000088:	03010413          	add	s0,sp,48
8000008c:	fe042423          	sw	zero,-24(s0)
80000090:	06400793          	li	a5,100
80000094:	fef42623          	sw	a5,-20(s0)
80000098:	0b80006f          	j	80000150 <main+0xd8>
8000009c:	fec42703          	lw	a4,-20(s0)
800000a0:	06400793          	li	a5,100
800000a4:	02f747b3          	div	a5,a4,a5
800000a8:	fef42223          	sw	a5,-28(s0)
800000ac:	fec42703          	lw	a4,-20(s0)
800000b0:	00a00793          	li	a5,10
800000b4:	02f74733          	div	a4,a4,a5
800000b8:	00a00793          	li	a5,10
800000bc:	02f767b3          	rem	a5,a4,a5
800000c0:	fef42023          	sw	a5,-32(s0)
800000c4:	fec42703          	lw	a4,-20(s0)
800000c8:	00a00793          	li	a5,10
800000cc:	02f767b3          	rem	a5,a4,a5
800000d0:	fcf42e23          	sw	a5,-36(s0)
800000d4:	fe442503          	lw	a0,-28(s0)
800000d8:	f71ff0ef          	jal	80000048 <cube>
800000dc:	00050493          	mv	s1,a0
800000e0:	fe042503          	lw	a0,-32(s0)
800000e4:	f65ff0ef          	jal	80000048 <cube>
800000e8:	00050793          	mv	a5,a0
800000ec:	00f484b3          	add	s1,s1,a5
800000f0:	fdc42503          	lw	a0,-36(s0)
800000f4:	f55ff0ef          	jal	80000048 <cube>
800000f8:	00050793          	mv	a5,a0
800000fc:	00f487b3          	add	a5,s1,a5
80000100:	fec42703          	lw	a4,-20(s0)
80000104:	04f71063          	bne	a4,a5,80000144 <main+0xcc>
80000108:	800007b7          	lui	a5,0x80000
8000010c:	1c478713          	add	a4,a5,452 # 800001c4 <ans>
80000110:	fe842783          	lw	a5,-24(s0)
80000114:	00279793          	sll	a5,a5,0x2
80000118:	00f707b3          	add	a5,a4,a5
8000011c:	0007a783          	lw	a5,0(a5)
80000120:	fec42703          	lw	a4,-20(s0)
80000124:	40f707b3          	sub	a5,a4,a5
80000128:	0017b793          	seqz	a5,a5
8000012c:	0ff7f793          	zext.b	a5,a5
80000130:	00078513          	mv	a0,a5
80000134:	eddff0ef          	jal	80000010 <check>
80000138:	fe842783          	lw	a5,-24(s0)
8000013c:	00178793          	add	a5,a5,1
80000140:	fef42423          	sw	a5,-24(s0)
80000144:	fec42783          	lw	a5,-20(s0)
80000148:	00178793          	add	a5,a5,1
8000014c:	fef42623          	sw	a5,-20(s0)
80000150:	fec42703          	lw	a4,-20(s0)
80000154:	1f300793          	li	a5,499
80000158:	f4e7d2e3          	bge	a5,a4,8000009c <main+0x24>
8000015c:	fe842783          	lw	a5,-24(s0)
80000160:	ffc78793          	add	a5,a5,-4
80000164:	0017b793          	seqz	a5,a5
80000168:	0ff7f793          	zext.b	a5,a5
8000016c:	00078513          	mv	a0,a5
80000170:	ea1ff0ef          	jal	80000010 <check>
80000174:	00000793          	li	a5,0
80000178:	00078513          	mv	a0,a5
8000017c:	02c12083          	lw	ra,44(sp)
80000180:	02812403          	lw	s0,40(sp)
80000184:	02412483          	lw	s1,36(sp)
80000188:	03010113          	add	sp,sp,48
8000018c:	00008067          	ret

80000190 <putch>:
80000190:	00008067          	ret

80000194 <halt>:
80000194:	00050513          	mv	a0,a0
80000198:	00100073          	ebreak
8000019c:	0000006f          	j	8000019c <halt+0x8>

800001a0 <call_main>:
800001a0:	80000537          	lui	a0,0x80000
800001a4:	ff010113          	add	sp,sp,-16
800001a8:	1c050513          	add	a0,a0,448 # 800001c0 <_etext>
800001ac:	00112623          	sw	ra,12(sp)
800001b0:	ec9ff0ef          	jal	80000078 <main>
800001b4:	00050513          	mv	a0,a0
800001b8:	00100073          	ebreak
800001bc:	0000006f          	j	800001bc <call_main+0x1c>
