
/home/xhyvm2/gitwork/labs/COMPSYS/software/functest/build/switch-riscv32.elf:     file format elf32-littleriscv


Disassembly of section .text:

80000000 <_start>:
80000000:	00000413          	li	s0,0
80000004:	00009117          	auipc	sp,0x9
80000008:	ffc10113          	add	sp,sp,-4 # 80009000 <_end>
8000000c:	188000ef          	jal	80000194 <call_main>

80000010 <check>:
80000010:	fe010113          	add	sp,sp,-32
80000014:	00112e23          	sw	ra,28(sp)
80000018:	00812c23          	sw	s0,24(sp)
8000001c:	02010413          	add	s0,sp,32
80000020:	fea42623          	sw	a0,-20(s0)
80000024:	fec42783          	lw	a5,-20(s0)
80000028:	00079663          	bnez	a5,80000034 <check+0x24>
8000002c:	00100513          	li	a0,1
80000030:	158000ef          	jal	80000188 <halt>
80000034:	00000013          	nop
80000038:	01c12083          	lw	ra,28(sp)
8000003c:	01812403          	lw	s0,24(sp)
80000040:	02010113          	add	sp,sp,32
80000044:	00008067          	ret

80000048 <switch_case>:
80000048:	fd010113          	add	sp,sp,-48
8000004c:	02812623          	sw	s0,44(sp)
80000050:	03010413          	add	s0,sp,48
80000054:	fca42e23          	sw	a0,-36(s0)
80000058:	fdc42703          	lw	a4,-36(s0)
8000005c:	00c00793          	li	a5,12
80000060:	06e7e263          	bltu	a5,a4,800000c4 <switch_case+0x7c>
80000064:	fdc42783          	lw	a5,-36(s0)
80000068:	00279713          	sll	a4,a5,0x2
8000006c:	800007b7          	lui	a5,0x80000
80000070:	1b478793          	add	a5,a5,436 # 800001b4 <_etext>
80000074:	00f707b3          	add	a5,a4,a5
80000078:	0007a783          	lw	a5,0(a5)
8000007c:	00078067          	jr	a5
80000080:	fe042623          	sw	zero,-20(s0)
80000084:	04c0006f          	j	800000d0 <switch_case+0x88>
80000088:	00200793          	li	a5,2
8000008c:	fef42623          	sw	a5,-20(s0)
80000090:	0400006f          	j	800000d0 <switch_case+0x88>
80000094:	00500793          	li	a5,5
80000098:	fef42623          	sw	a5,-20(s0)
8000009c:	0340006f          	j	800000d0 <switch_case+0x88>
800000a0:	00800793          	li	a5,8
800000a4:	fef42623          	sw	a5,-20(s0)
800000a8:	0280006f          	j	800000d0 <switch_case+0x88>
800000ac:	00a00793          	li	a5,10
800000b0:	fef42623          	sw	a5,-20(s0)
800000b4:	01c0006f          	j	800000d0 <switch_case+0x88>
800000b8:	00f00793          	li	a5,15
800000bc:	fef42623          	sw	a5,-20(s0)
800000c0:	0100006f          	j	800000d0 <switch_case+0x88>
800000c4:	fff00793          	li	a5,-1
800000c8:	fef42623          	sw	a5,-20(s0)
800000cc:	00000013          	nop
800000d0:	fec42783          	lw	a5,-20(s0)
800000d4:	00078513          	mv	a0,a5
800000d8:	02c12403          	lw	s0,44(sp)
800000dc:	03010113          	add	sp,sp,48
800000e0:	00008067          	ret

800000e4 <main>:
800000e4:	fe010113          	add	sp,sp,-32
800000e8:	00112e23          	sw	ra,28(sp)
800000ec:	00812c23          	sw	s0,24(sp)
800000f0:	02010413          	add	s0,sp,32
800000f4:	fe042623          	sw	zero,-20(s0)
800000f8:	0500006f          	j	80000148 <main+0x64>
800000fc:	fec42783          	lw	a5,-20(s0)
80000100:	fff78793          	add	a5,a5,-1
80000104:	00078513          	mv	a0,a5
80000108:	f41ff0ef          	jal	80000048 <switch_case>
8000010c:	00050693          	mv	a3,a0
80000110:	800007b7          	lui	a5,0x80000
80000114:	1ec78713          	add	a4,a5,492 # 800001ec <ans>
80000118:	fec42783          	lw	a5,-20(s0)
8000011c:	00279793          	sll	a5,a5,0x2
80000120:	00f707b3          	add	a5,a4,a5
80000124:	0007a783          	lw	a5,0(a5)
80000128:	40f687b3          	sub	a5,a3,a5
8000012c:	0017b793          	seqz	a5,a5
80000130:	0ff7f793          	zext.b	a5,a5
80000134:	00078513          	mv	a0,a5
80000138:	ed9ff0ef          	jal	80000010 <check>
8000013c:	fec42783          	lw	a5,-20(s0)
80000140:	00178793          	add	a5,a5,1
80000144:	fef42623          	sw	a5,-20(s0)
80000148:	fec42703          	lw	a4,-20(s0)
8000014c:	00e00793          	li	a5,14
80000150:	fae7d6e3          	bge	a5,a4,800000fc <main+0x18>
80000154:	fec42783          	lw	a5,-20(s0)
80000158:	ff178793          	add	a5,a5,-15
8000015c:	0017b793          	seqz	a5,a5
80000160:	0ff7f793          	zext.b	a5,a5
80000164:	00078513          	mv	a0,a5
80000168:	ea9ff0ef          	jal	80000010 <check>
8000016c:	00000793          	li	a5,0
80000170:	00078513          	mv	a0,a5
80000174:	01c12083          	lw	ra,28(sp)
80000178:	01812403          	lw	s0,24(sp)
8000017c:	02010113          	add	sp,sp,32
80000180:	00008067          	ret

80000184 <putch>:
80000184:	00008067          	ret

80000188 <halt>:
80000188:	00050513          	mv	a0,a0
8000018c:	00100073          	ebreak
80000190:	0000006f          	j	80000190 <halt+0x8>

80000194 <call_main>:
80000194:	80000537          	lui	a0,0x80000
80000198:	ff010113          	add	sp,sp,-16
8000019c:	1e850513          	add	a0,a0,488 # 800001e8 <argv>
800001a0:	00112623          	sw	ra,12(sp)
800001a4:	f41ff0ef          	jal	800000e4 <main>
800001a8:	00050513          	mv	a0,a0
800001ac:	00100073          	ebreak
800001b0:	0000006f          	j	800001b0 <call_main+0x1c>
